
matmult-m5.x:     file format elf64-littleaarch64


Disassembly of section .init:

00000000004001f8 <_init>:
  4001f8:	a9bf7bfd 	stp	x29, x30, [sp, #-16]!
  4001fc:	910003fd 	mov	x29, sp
  400200:	940000fa 	bl	4005e8 <call_weak_fn>
  400204:	a8c17bfd 	ldp	x29, x30, [sp], #16
  400208:	d65f03c0 	ret

Disassembly of section .plt:

0000000000400210 <.plt>:
  400210:	d0000430 	adrp	x16, 486000 <.got.plt+0x18>
  400214:	f9400211 	ldr	x17, [x16]
  400218:	91000210 	add	x16, x16, #0x0
  40021c:	d61f0220 	br	x17
  400220:	d0000430 	adrp	x16, 486000 <.got.plt+0x18>
  400224:	f9400611 	ldr	x17, [x16, #8]
  400228:	91002210 	add	x16, x16, #0x8
  40022c:	d61f0220 	br	x17
  400230:	d0000430 	adrp	x16, 486000 <.got.plt+0x18>
  400234:	f9400a11 	ldr	x17, [x16, #16]
  400238:	91004210 	add	x16, x16, #0x10
  40023c:	d61f0220 	br	x17

Disassembly of section .text:

0000000000400240 <abort>:
  400240:	a9ac7bfd 	stp	x29, x30, [sp, #-320]!
  400244:	b0000420 	adrp	x0, 485000 <__FRAME_END__+0x103b0>
  400248:	91234000 	add	x0, x0, #0x8d0
  40024c:	910003fd 	mov	x29, sp
  400250:	a90153f3 	stp	x19, x20, [sp, #16]
  400254:	f0000733 	adrp	x19, 4e7000 <A+0x1f5e0>
  400258:	913d6273 	add	x19, x19, #0xf58
  40025c:	f9400001 	ldr	x1, [x0]
  400260:	f9009fe1 	str	x1, [sp, #312]
  400264:	d2800001 	mov	x1, #0x0                   	// #0
  400268:	d53bd054 	mrs	x20, tpidr_el0
  40026c:	d11c0294 	sub	x20, x20, #0x700
  400270:	f9400660 	ldr	x0, [x19, #8]
  400274:	eb14001f 	cmp	x0, x20
  400278:	54000120 	b.eq	40029c <abort+0x5c>  // b.none
  40027c:	aa1303e2 	mov	x2, x19
  400280:	52800021 	mov	w1, #0x1                   	// #1
  400284:	52800000 	mov	w0, #0x0                   	// #0
  400288:	94012886 	bl	44a4a0 <__aarch64_cas4_acq>
  40028c:	34000060 	cbz	w0, 400298 <abort+0x58>
  400290:	aa1303e0 	mov	x0, x19
  400294:	94003a3b 	bl	40eb80 <__lll_lock_wait_private>
  400298:	f9000674 	str	x20, [x19, #8]
  40029c:	b9400660 	ldr	w0, [x19, #4]
  4002a0:	b9401261 	ldr	w1, [x19, #16]
  4002a4:	11000400 	add	w0, w0, #0x1
  4002a8:	b9000660 	str	w0, [x19, #4]
  4002ac:	35000201 	cbnz	w1, 4002ec <abort+0xac>
  4002b0:	910083e1 	add	x1, sp, #0x20
  4002b4:	52800022 	mov	w2, #0x1                   	// #1
  4002b8:	d2800200 	mov	x0, #0x10                  	// #16
  4002bc:	b9001262 	str	w2, [x19, #16]
  4002c0:	d1000400 	sub	x0, x0, #0x1
  4002c4:	b100041f 	cmn	x0, #0x1
  4002c8:	54000060 	b.eq	4002d4 <abort+0x94>  // b.none
  4002cc:	f820783f 	str	xzr, [x1, x0, lsl #3]
  4002d0:	17fffffc 	b	4002c0 <abort+0x80>
  4002d4:	f94013e3 	ldr	x3, [sp, #32]
  4002d8:	d2800002 	mov	x2, #0x0                   	// #0
  4002dc:	52800020 	mov	w0, #0x1                   	// #1
  4002e0:	b27b0063 	orr	x3, x3, #0x20
  4002e4:	f90013e3 	str	x3, [sp, #32]
  4002e8:	9400148a 	bl	405510 <__sigprocmask>
  4002ec:	b9401260 	ldr	w0, [x19, #16]
  4002f0:	7100041f 	cmp	w0, #0x1
  4002f4:	54000441 	b.ne	40037c <abort+0x13c>  // b.any
  4002f8:	b9400660 	ldr	w0, [x19, #4]
  4002fc:	b900127f 	str	wzr, [x19, #16]
  400300:	51000400 	sub	w0, w0, #0x1
  400304:	b9000660 	str	w0, [x19, #4]
  400308:	35000180 	cbnz	w0, 400338 <abort+0xf8>
  40030c:	f900067f 	str	xzr, [x19, #8]
  400310:	aa1303e1 	mov	x1, x19
  400314:	940128cf 	bl	44a650 <__aarch64_swp4_rel>
  400318:	7100041f 	cmp	w0, #0x1
  40031c:	540000ed 	b.le	400338 <abort+0xf8>
  400320:	aa1303e0 	mov	x0, x19
  400324:	d2801021 	mov	x1, #0x81                  	// #129
  400328:	d2800022 	mov	x2, #0x1                   	// #1
  40032c:	d2800003 	mov	x3, #0x0                   	// #0
  400330:	d2800c48 	mov	x8, #0x62                  	// #98
  400334:	d4000001 	svc	#0x0
  400338:	528000c0 	mov	w0, #0x6                   	// #6
  40033c:	9400143b 	bl	405428 <raise>
  400340:	f9400660 	ldr	x0, [x19, #8]
  400344:	eb14001f 	cmp	x0, x20
  400348:	54000120 	b.eq	40036c <abort+0x12c>  // b.none
  40034c:	aa1303e2 	mov	x2, x19
  400350:	52800021 	mov	w1, #0x1                   	// #1
  400354:	52800000 	mov	w0, #0x0                   	// #0
  400358:	94012852 	bl	44a4a0 <__aarch64_cas4_acq>
  40035c:	34000060 	cbz	w0, 400368 <abort+0x128>
  400360:	aa1303e0 	mov	x0, x19
  400364:	94003a07 	bl	40eb80 <__lll_lock_wait_private>
  400368:	f9000674 	str	x20, [x19, #8]
  40036c:	b9400660 	ldr	w0, [x19, #4]
  400370:	11000400 	add	w0, w0, #0x1
  400374:	b9000660 	str	w0, [x19, #4]
  400378:	14000003 	b	400384 <abort+0x144>
  40037c:	7100081f 	cmp	w0, #0x2
  400380:	54000261 	b.ne	4003cc <abort+0x18c>  // b.any
  400384:	910283e3 	add	x3, sp, #0xa0
  400388:	52800064 	mov	w4, #0x3                   	// #3
  40038c:	aa0303e0 	mov	x0, x3
  400390:	52800001 	mov	w1, #0x0                   	// #0
  400394:	d2801302 	mov	x2, #0x98                  	// #152
  400398:	b9001264 	str	w4, [x19, #16]
  40039c:	97ffffa5 	bl	400230 <.plt+0x20>
  4003a0:	aa0003e3 	mov	x3, x0
  4003a4:	92800001 	mov	x1, #0xffffffffffffffff    	// #-1
  4003a8:	d2800200 	mov	x0, #0x10                  	// #16
  4003ac:	f8207861 	str	x1, [x3, x0, lsl #3]
  4003b0:	f1000400 	subs	x0, x0, #0x1
  4003b4:	54ffffc1 	b.ne	4003ac <abort+0x16c>  // b.any
  4003b8:	aa0303e1 	mov	x1, x3
  4003bc:	d2800002 	mov	x2, #0x0                   	// #0
  4003c0:	528000c0 	mov	w0, #0x6                   	// #6
  4003c4:	b9012bff 	str	wzr, [sp, #296]
  4003c8:	94009a7a 	bl	426db0 <__sigaction>
  4003cc:	b9401260 	ldr	w0, [x19, #16]
  4003d0:	71000c1f 	cmp	w0, #0x3
  4003d4:	540000a1 	b.ne	4003e8 <abort+0x1a8>  // b.any
  4003d8:	52800081 	mov	w1, #0x4                   	// #4
  4003dc:	528000c0 	mov	w0, #0x6                   	// #6
  4003e0:	b9001261 	str	w1, [x19, #16]
  4003e4:	94001411 	bl	405428 <raise>
  4003e8:	b9401260 	ldr	w0, [x19, #16]
  4003ec:	7100101f 	cmp	w0, #0x4
  4003f0:	54000081 	b.ne	400400 <abort+0x1c0>  // b.any
  4003f4:	528000a0 	mov	w0, #0x5                   	// #5
  4003f8:	b9001260 	str	w0, [x19, #16]
  4003fc:	d4207d00 	brk	#0x3e8
  400400:	b9401260 	ldr	w0, [x19, #16]
  400404:	7100141f 	cmp	w0, #0x5
  400408:	540000a1 	b.ne	40041c <abort+0x1dc>  // b.any
  40040c:	528000c1 	mov	w1, #0x6                   	// #6
  400410:	52800fe0 	mov	w0, #0x7f                  	// #127
  400414:	b9001261 	str	w1, [x19, #16]
  400418:	94005ef0 	bl	417fd8 <_exit>
  40041c:	d4207d00 	brk	#0x3e8
  400420:	17ffffff 	b	40041c <abort+0x1dc>

0000000000400424 <_dl_start>:
  400424:	a9bf7bfd 	stp	x29, x30, [sp, #-16]!
  400428:	910003fd 	mov	x29, sp
  40042c:	97ffff85 	bl	400240 <abort>

0000000000400430 <main>:
  400430:	a9bb7bfd 	stp	x29, x30, [sp, #-80]!
  400434:	910003fd 	mov	x29, sp
  400438:	7100081f 	cmp	w0, #0x2
  40043c:	540001a0 	b.eq	400470 <main+0x40>  // b.none
  400440:	90000280 	adrp	x0, 450000 <free_mem+0x48>
  400444:	91082000 	add	x0, x0, #0x208
  400448:	94001d26 	bl	4078e0 <_IO_puts>
  40044c:	90000280 	adrp	x0, 450000 <free_mem+0x48>
  400450:	9108a000 	add	x0, x0, #0x228
  400454:	94001d23 	bl	4078e0 <_IO_puts>
  400458:	90000280 	adrp	x0, 450000 <free_mem+0x48>
  40045c:	9108c000 	add	x0, x0, #0x230
  400460:	94001d20 	bl	4078e0 <_IO_puts>
  400464:	52800000 	mov	w0, #0x0                   	// #0
  400468:	a8c57bfd 	ldp	x29, x30, [sp], #80
  40046c:	d65f03c0 	ret
  400470:	f9400420 	ldr	x0, [x1, #8]
  400474:	52800142 	mov	w2, #0xa                   	// #10
  400478:	d2800001 	mov	x1, #0x0                   	// #0
  40047c:	a90153f3 	stp	x19, x20, [sp, #16]
  400480:	f0000633 	adrp	x19, 4c7000 <B+0x1f5e0>
  400484:	fd0013e8 	str	d8, [sp, #32]
  400488:	94001746 	bl	4061a0 <__strtol>
  40048c:	aa0003e2 	mov	x2, x0
  400490:	d0000421 	adrp	x1, 486000 <.got.plt+0x18>
  400494:	90000280 	adrp	x0, 450000 <free_mem+0x48>
  400498:	91092000 	add	x0, x0, #0x248
  40049c:	b9002822 	str	w2, [x1, #40]
  4004a0:	91288273 	add	x19, x19, #0xa20
  4004a4:	94001d0f 	bl	4078e0 <_IO_puts>
  4004a8:	f0000534 	adrp	x20, 4a7000 <C+0x1f5e0>
  4004ac:	6f03f400 	fmov	v0.2d, #5.000000000000000000e-01
  4004b0:	91288294 	add	x20, x20, #0xa20
  4004b4:	6f03f601 	fmov	v1.2d, #1.000000000000000000e+00
  4004b8:	f0000422 	adrp	x2, 487000 <_dl_main_map+0xb0>
  4004bc:	aa1303e1 	mov	x1, x19
  4004c0:	91408264 	add	x4, x19, #0x20, lsl #12
  4004c4:	aa1403e3 	mov	x3, x20
  4004c8:	91288042 	add	x2, x2, #0xa20
  4004cc:	d503201f 	nop
  4004d0:	d2800000 	mov	x0, #0x0                   	// #0
  4004d4:	d503201f 	nop
  4004d8:	3ca06820 	str	q0, [x1, x0]
  4004dc:	3ca06860 	str	q0, [x3, x0]
  4004e0:	3ca06841 	str	q1, [x2, x0]
  4004e4:	91004000 	add	x0, x0, #0x10
  4004e8:	f110001f 	cmp	x0, #0x400
  4004ec:	54ffff61 	b.ne	4004d8 <main+0xa8>  // b.any
  4004f0:	91100021 	add	x1, x1, #0x400
  4004f4:	91100063 	add	x3, x3, #0x400
  4004f8:	91100042 	add	x2, x2, #0x400
  4004fc:	eb01009f 	cmp	x4, x1
  400500:	54fffe81 	b.ne	4004d0 <main+0xa0>  // b.any
  400504:	90000280 	adrp	x0, 450000 <free_mem+0x48>
  400508:	9109a000 	add	x0, x0, #0x268
  40050c:	94001cf5 	bl	4078e0 <_IO_puts>
  400510:	9100c3e1 	add	x1, sp, #0x30
  400514:	52800020 	mov	w0, #0x1                   	// #1
  400518:	94005ea2 	bl	417fa0 <__clock_gettime>
  40051c:	94000079 	bl	400700 <multiply>
  400520:	910103e1 	add	x1, sp, #0x40
  400524:	52800020 	mov	w0, #0x1                   	// #1
  400528:	94005e9e 	bl	417fa0 <__clock_gettime>
  40052c:	a94313e1 	ldp	x1, x4, [sp, #48]
  400530:	d2d9aca0 	mov	x0, #0xcd6500000000        	// #225833675390976
  400534:	a9440be3 	ldp	x3, x2, [sp, #64]
  400538:	f2e839a0 	movk	x0, #0x41cd, lsl #48
  40053c:	9e670004 	fmov	d4, x0
  400540:	fd440a82 	ldr	d2, [x20, #2064]
  400544:	fd440a60 	ldr	d0, [x19, #2064]
  400548:	90000280 	adrp	x0, 450000 <free_mem+0x48>
  40054c:	910a2000 	add	x0, x0, #0x288
  400550:	1e604041 	fmov	d1, d2
  400554:	cb010063 	sub	x3, x3, x1
  400558:	cb040042 	sub	x2, x2, x4
  40055c:	52800041 	mov	w1, #0x2                   	// #2
  400560:	9e620063 	scvtf	d3, x3
  400564:	9e620048 	scvtf	d8, x2
  400568:	1f442068 	fmadd	d8, d3, d4, d8
  40056c:	940019eb 	bl	406d18 <_IO_printf>
  400570:	d2d09000 	mov	x0, #0x848000000000        	// #145685290680320
  400574:	f2e825c0 	movk	x0, #0x412e, lsl #48
  400578:	9e670000 	fmov	d0, x0
  40057c:	90000280 	adrp	x0, 450000 <free_mem+0x48>
  400580:	910b4000 	add	x0, x0, #0x2d0
  400584:	1e601900 	fdiv	d0, d8, d0
  400588:	940019e4 	bl	406d18 <_IO_printf>
  40058c:	a94153f3 	ldp	x19, x20, [sp, #16]
  400590:	fd4013e8 	ldr	d8, [sp, #32]
  400594:	17ffffb4 	b	400464 <main+0x34>

0000000000400598 <_start>:
  400598:	d280001d 	mov	x29, #0x0                   	// #0
  40059c:	d280001e 	mov	x30, #0x0                   	// #0
  4005a0:	aa0003e5 	mov	x5, x0
  4005a4:	f94003e1 	ldr	x1, [sp]
  4005a8:	910023e2 	add	x2, sp, #0x8
  4005ac:	910003e6 	mov	x6, sp
  4005b0:	d2e00000 	movz	x0, #0x0, lsl #48
  4005b4:	f2c00000 	movk	x0, #0x0, lsl #32
  4005b8:	f2a00800 	movk	x0, #0x40, lsl #16
  4005bc:	f2808600 	movk	x0, #0x430
  4005c0:	d2e00003 	movz	x3, #0x0, lsl #48
  4005c4:	f2c00003 	movk	x3, #0x0, lsl #32
  4005c8:	f2a00803 	movk	x3, #0x40, lsl #16
  4005cc:	f281ff03 	movk	x3, #0xff8
  4005d0:	d2e00004 	movz	x4, #0x0, lsl #48
  4005d4:	f2c00004 	movk	x4, #0x0, lsl #32
  4005d8:	f2a00804 	movk	x4, #0x40, lsl #16
  4005dc:	f2821704 	movk	x4, #0x10b8
  4005e0:	940000d8 	bl	400940 <__libc_start_main>
  4005e4:	97ffff17 	bl	400240 <abort>

00000000004005e8 <call_weak_fn>:
  4005e8:	b0000420 	adrp	x0, 485000 <__FRAME_END__+0x103b0>
  4005ec:	f947f000 	ldr	x0, [x0, #4064]
  4005f0:	b4000040 	cbz	x0, 4005f8 <call_weak_fn+0x10>
  4005f4:	d503201f 	nop
  4005f8:	d65f03c0 	ret
  4005fc:	d503201f 	nop

0000000000400600 <deregister_tm_clones>:
  400600:	f0000420 	adrp	x0, 487000 <_dl_main_map+0xb0>
  400604:	91276000 	add	x0, x0, #0x9d8
  400608:	f0000421 	adrp	x1, 487000 <_dl_main_map+0xb0>
  40060c:	91276021 	add	x1, x1, #0x9d8
  400610:	eb00003f 	cmp	x1, x0
  400614:	540000c0 	b.eq	40062c <deregister_tm_clones+0x2c>  // b.none
  400618:	b0000421 	adrp	x1, 485000 <__FRAME_END__+0x103b0>
  40061c:	f947cc21 	ldr	x1, [x1, #3992]
  400620:	b4000061 	cbz	x1, 40062c <deregister_tm_clones+0x2c>
  400624:	aa0103f0 	mov	x16, x1
  400628:	d61f0200 	br	x16
  40062c:	d65f03c0 	ret

0000000000400630 <register_tm_clones>:
  400630:	f0000420 	adrp	x0, 487000 <_dl_main_map+0xb0>
  400634:	91276000 	add	x0, x0, #0x9d8
  400638:	f0000421 	adrp	x1, 487000 <_dl_main_map+0xb0>
  40063c:	91276021 	add	x1, x1, #0x9d8
  400640:	cb000021 	sub	x1, x1, x0
  400644:	d37ffc22 	lsr	x2, x1, #63
  400648:	8b810c41 	add	x1, x2, x1, asr #3
  40064c:	9341fc21 	asr	x1, x1, #1
  400650:	b40000c1 	cbz	x1, 400668 <register_tm_clones+0x38>
  400654:	b0000422 	adrp	x2, 485000 <__FRAME_END__+0x103b0>
  400658:	f947b842 	ldr	x2, [x2, #3952]
  40065c:	b4000062 	cbz	x2, 400668 <register_tm_clones+0x38>
  400660:	aa0203f0 	mov	x16, x2
  400664:	d61f0200 	br	x16
  400668:	d65f03c0 	ret
  40066c:	d503201f 	nop

0000000000400670 <__do_global_dtors_aux>:
  400670:	a9be7bfd 	stp	x29, x30, [sp, #-32]!
  400674:	910003fd 	mov	x29, sp
  400678:	f9000bf3 	str	x19, [sp, #16]
  40067c:	f0000433 	adrp	x19, 487000 <_dl_main_map+0xb0>
  400680:	39678260 	ldrb	w0, [x19, #2528]
  400684:	35000140 	cbnz	w0, 4006ac <__do_global_dtors_aux+0x3c>
  400688:	97ffffde 	bl	400600 <deregister_tm_clones>
  40068c:	b0000420 	adrp	x0, 485000 <__FRAME_END__+0x103b0>
  400690:	f947b400 	ldr	x0, [x0, #3944]
  400694:	b4000080 	cbz	x0, 4006a4 <__do_global_dtors_aux+0x34>
  400698:	d0000340 	adrp	x0, 46a000 <_IO_file_jumps_mmap+0x68>
  40069c:	910ba000 	add	x0, x0, #0x2e8
  4006a0:	94013979 	bl	44ec84 <__deregister_frame_info>
  4006a4:	52800020 	mov	w0, #0x1                   	// #1
  4006a8:	39278260 	strb	w0, [x19, #2528]
  4006ac:	f9400bf3 	ldr	x19, [sp, #16]
  4006b0:	a8c27bfd 	ldp	x29, x30, [sp], #32
  4006b4:	d65f03c0 	ret
  4006b8:	d503201f 	nop
  4006bc:	d503201f 	nop

00000000004006c0 <frame_dummy>:
  4006c0:	b0000420 	adrp	x0, 485000 <__FRAME_END__+0x103b0>
  4006c4:	f947e800 	ldr	x0, [x0, #4048]
  4006c8:	b4000140 	cbz	x0, 4006f0 <frame_dummy+0x30>
  4006cc:	a9bf7bfd 	stp	x29, x30, [sp, #-16]!
  4006d0:	f0000421 	adrp	x1, 487000 <_dl_main_map+0xb0>
  4006d4:	d0000340 	adrp	x0, 46a000 <_IO_file_jumps_mmap+0x68>
  4006d8:	910003fd 	mov	x29, sp
  4006dc:	9127a021 	add	x1, x1, #0x9e8
  4006e0:	910ba000 	add	x0, x0, #0x2e8
  4006e4:	9401385f 	bl	44e860 <__register_frame_info>
  4006e8:	a8c17bfd 	ldp	x29, x30, [sp], #16
  4006ec:	17ffffd1 	b	400630 <register_tm_clones>
  4006f0:	17ffffd0 	b	400630 <register_tm_clones>
  4006f4:	d503201f 	nop
  4006f8:	d503201f 	nop
  4006fc:	d503201f 	nop

0000000000400700 <multiply>:
  400700:	a9bb7bfd 	stp	x29, x30, [sp, #-80]!
  400704:	910003fd 	mov	x29, sp
  400708:	a90153f3 	stp	x19, x20, [sp, #16]
  40070c:	d0000433 	adrp	x19, 486000 <.got.plt+0x18>
  400710:	b9402a60 	ldr	w0, [x19, #40]
  400714:	7100001f 	cmp	w0, #0x0
  400718:	540006ed 	b.le	4007f4 <multiply+0xf4>
  40071c:	f0000534 	adrp	x20, 4a7000 <C+0x1f5e0>
  400720:	9100a273 	add	x19, x19, #0x28
  400724:	91288294 	add	x20, x20, #0xa20
  400728:	a9025bf5 	stp	x21, x22, [sp, #32]
  40072c:	f0000436 	adrp	x22, 487000 <_dl_main_map+0xb0>
  400730:	f0000735 	adrp	x21, 4e7000 <A+0x1f5e0>
  400734:	912882d6 	add	x22, x22, #0xa20
  400738:	912882b5 	add	x21, x21, #0xa20
  40073c:	a90363f7 	stp	x23, x24, [sp, #48]
  400740:	90000298 	adrp	x24, 450000 <free_mem+0x48>
  400744:	f0000637 	adrp	x23, 4c7000 <B+0x1f5e0>
  400748:	9107e318 	add	x24, x24, #0x1f8
  40074c:	912882f7 	add	x23, x23, #0xa20
  400750:	a9046bf9 	stp	x25, x26, [sp, #64]
  400754:	f0000539 	adrp	x25, 4a7000 <C+0x1f5e0>
  400758:	91388339 	add	x25, x25, #0xe20
  40075c:	5280001a 	mov	w26, #0x0                   	// #0
  400760:	2a1a03e1 	mov	w1, w26
  400764:	aa1803e0 	mov	x0, x24
  400768:	9400196c 	bl	406d18 <_IO_printf>
  40076c:	d2800001 	mov	x1, #0x0                   	// #0
  400770:	d2800000 	mov	x0, #0x0                   	// #0
  400774:	94000039 	bl	400858 <m5_reset_stats>
  400778:	aa1703e3 	mov	x3, x23
  40077c:	aa1603e5 	mov	x5, x22
  400780:	aa0503e4 	mov	x4, x5
  400784:	aa1403e2 	mov	x2, x20
  400788:	3dc00080 	ldr	q0, [x4]
  40078c:	d2800000 	mov	x0, #0x0                   	// #0
  400790:	d376d401 	lsl	x1, x0, #10
  400794:	fc607862 	ldr	d2, [x3, x0, lsl #3]
  400798:	91000400 	add	x0, x0, #0x1
  40079c:	3ce16841 	ldr	q1, [x2, x1]
  4007a0:	4fc21020 	fmla	v0.2d, v1.2d, v2.d[0]
  4007a4:	f102001f 	cmp	x0, #0x80
  4007a8:	54ffff41 	b.ne	400790 <multiply+0x90>  // b.any
  4007ac:	91004042 	add	x2, x2, #0x10
  4007b0:	3c810480 	str	q0, [x4], #16
  4007b4:	eb19005f 	cmp	x2, x25
  4007b8:	54fffe81 	b.ne	400788 <multiply+0x88>  // b.any
  4007bc:	91100063 	add	x3, x3, #0x400
  4007c0:	911000a5 	add	x5, x5, #0x400
  4007c4:	eb15007f 	cmp	x3, x21
  4007c8:	54fffdc1 	b.ne	400780 <multiply+0x80>  // b.any
  4007cc:	d2800000 	mov	x0, #0x0                   	// #0
  4007d0:	d2800001 	mov	x1, #0x0                   	// #0
  4007d4:	94000023 	bl	400860 <m5_dump_stats>
  4007d8:	1100075a 	add	w26, w26, #0x1
  4007dc:	b9400260 	ldr	w0, [x19]
  4007e0:	6b1a001f 	cmp	w0, w26
  4007e4:	54fffbec 	b.gt	400760 <multiply+0x60>
  4007e8:	a9425bf5 	ldp	x21, x22, [sp, #32]
  4007ec:	a94363f7 	ldp	x23, x24, [sp, #48]
  4007f0:	a9446bf9 	ldp	x25, x26, [sp, #64]
  4007f4:	a94153f3 	ldp	x19, x20, [sp, #16]
  4007f8:	a8c57bfd 	ldp	x29, x30, [sp], #80
  4007fc:	d65f03c0 	ret

0000000000400800 <m5_arm>:
  400800:	ff000110 	.word	0xff000110
  400804:	d65f03c0 	ret

0000000000400808 <m5_quiesce>:
  400808:	ff010110 	.word	0xff010110
  40080c:	d65f03c0 	ret

0000000000400810 <m5_quiesce_ns>:
  400810:	ff020110 	.word	0xff020110
  400814:	d65f03c0 	ret

0000000000400818 <m5_quiesce_cycle>:
  400818:	ff030110 	.word	0xff030110
  40081c:	d65f03c0 	ret

0000000000400820 <m5_quiesce_time>:
  400820:	ff040110 	.word	0xff040110
  400824:	d65f03c0 	ret

0000000000400828 <m5_rpns>:
  400828:	ff070110 	.word	0xff070110
  40082c:	d65f03c0 	ret

0000000000400830 <m5_wake_cpu>:
  400830:	ff090110 	.word	0xff090110
  400834:	d65f03c0 	ret

0000000000400838 <m5_exit>:
  400838:	ff210110 	.word	0xff210110
  40083c:	d65f03c0 	ret

0000000000400840 <m5_fail>:
  400840:	ff220110 	.word	0xff220110
  400844:	d65f03c0 	ret

0000000000400848 <m5_init_param>:
  400848:	ff300110 	.word	0xff300110
  40084c:	d65f03c0 	ret

0000000000400850 <m5_load_symbol>:
  400850:	ff310110 	.word	0xff310110
  400854:	d65f03c0 	ret

0000000000400858 <m5_reset_stats>:
  400858:	ff400110 	.word	0xff400110
  40085c:	d65f03c0 	ret

0000000000400860 <m5_dump_stats>:
  400860:	ff410110 	.word	0xff410110
  400864:	d65f03c0 	ret

0000000000400868 <m5_dump_reset_stats>:
  400868:	ff420110 	.word	0xff420110
  40086c:	d65f03c0 	ret

0000000000400870 <m5_checkpoint>:
  400870:	ff430110 	.word	0xff430110
  400874:	d65f03c0 	ret

0000000000400878 <m5_read_file>:
  400878:	ff500110 	.word	0xff500110
  40087c:	d65f03c0 	ret

0000000000400880 <m5_write_file>:
  400880:	ff4f0110 	.word	0xff4f0110
  400884:	d65f03c0 	ret

0000000000400888 <m5_debug_break>:
  400888:	ff510110 	.word	0xff510110
  40088c:	d65f03c0 	ret

0000000000400890 <m5_switch_cpu>:
  400890:	ff520110 	.word	0xff520110
  400894:	d65f03c0 	ret

0000000000400898 <m5_add_symbol>:
  400898:	ff530110 	.word	0xff530110
  40089c:	d65f03c0 	ret

00000000004008a0 <m5_panic>:
  4008a0:	ff540110 	.word	0xff540110
  4008a4:	d65f03c0 	ret

00000000004008a8 <m5_work_begin>:
  4008a8:	ff5a0110 	.word	0xff5a0110
  4008ac:	d65f03c0 	ret

00000000004008b0 <m5_work_end>:
  4008b0:	ff5b0110 	.word	0xff5b0110
  4008b4:	d65f03c0 	ret

00000000004008b8 <m5_dist_toggle_sync>:
  4008b8:	ff620110 	.word	0xff620110
  4008bc:	d65f03c0 	ret

00000000004008c0 <m5a_bsm>:
  4008c0:	ff551110 	.word	0xff551110
  4008c4:	d65f03c0 	ret

00000000004008c8 <m5a_esm>:
  4008c8:	ff552110 	.word	0xff552110
  4008cc:	d65f03c0 	ret

00000000004008d0 <m5a_begin>:
  4008d0:	ff553110 	.word	0xff553110
  4008d4:	d65f03c0 	ret

00000000004008d8 <m5a_end>:
  4008d8:	ff554110 	.word	0xff554110
  4008dc:	d65f03c0 	ret

00000000004008e0 <m5a_q>:
  4008e0:	ff556110 	.word	0xff556110
  4008e4:	d65f03c0 	ret

00000000004008e8 <m5a_dq>:
  4008e8:	ff557110 	.word	0xff557110
  4008ec:	d65f03c0 	ret

00000000004008f0 <m5a_wf>:
  4008f0:	ff558110 	.word	0xff558110
  4008f4:	d65f03c0 	ret

00000000004008f8 <m5a_we>:
  4008f8:	ff559110 	.word	0xff559110
  4008fc:	d65f03c0 	ret

0000000000400900 <m5a_rq>:
  400900:	ff55a110 	.word	0xff55a110
  400904:	d65f03c0 	ret

0000000000400908 <m5a_ws>:
  400908:	ff55b110 	.word	0xff55b110
  40090c:	d65f03c0 	ret

0000000000400910 <m5a_sq>:
  400910:	ff55c110 	.word	0xff55c110
  400914:	d65f03c0 	ret

0000000000400918 <m5a_aq>:
  400918:	ff55d110 	.word	0xff55d110
  40091c:	d65f03c0 	ret

0000000000400920 <m5a_pq>:
  400920:	ff55e110 	.word	0xff55e110
  400924:	d65f03c0 	ret

0000000000400928 <m5a_l>:
  400928:	ff55f110 	.word	0xff55f110
  40092c:	d65f03c0 	ret

0000000000400930 <m5a_identify>:
  400930:	ff550110 	.word	0xff550110
  400934:	d65f03c0 	ret

0000000000400938 <m5a_getid>:
  400938:	ff551110 	.word	0xff551110
  40093c:	d65f03c0 	ret

0000000000400940 <__libc_start_main>:
  400940:	a9ab7bfd 	stp	x29, x30, [sp, #-336]!
  400944:	90000287 	adrp	x7, 450000 <free_mem+0x48>
  400948:	910003fd 	mov	x29, sp
  40094c:	a90603e2 	stp	x2, x0, [sp, #96]
  400950:	f941b4e0 	ldr	x0, [x7, #872]
  400954:	a90153f3 	stp	x19, x20, [sp, #16]
  400958:	aa0303f3 	mov	x19, x3
  40095c:	a9025bf5 	stp	x21, x22, [sp, #32]
  400960:	aa0403f4 	mov	x20, x4
  400964:	aa0503f5 	mov	x21, x5
  400968:	a90363f7 	stp	x23, x24, [sp, #48]
  40096c:	f90023f9 	str	x25, [sp, #64]
  400970:	b9005fe1 	str	w1, [sp, #92]
  400974:	52800001 	mov	w1, #0x0                   	// #0
  400978:	b4000080 	cbz	x0, 400988 <__libc_start_main+0x48>
  40097c:	b9400000 	ldr	w0, [x0]
  400980:	7100001f 	cmp	w0, #0x0
  400984:	1a9f17e1 	cset	w1, eq  // eq = none
  400988:	f94033e5 	ldr	x5, [sp, #96]
  40098c:	90000743 	adrp	x3, 4e8000 <initial+0x70>
  400990:	b9405fe0 	ldr	w0, [sp, #92]
  400994:	f0000424 	adrp	x4, 487000 <_dl_main_map+0xb0>
  400998:	b0000422 	adrp	x2, 485000 <__FRAME_END__+0x103b0>
  40099c:	b905a881 	str	w1, [x4, #1448]
  4009a0:	8b20cca0 	add	x0, x5, w0, sxtw #3
  4009a4:	f9077446 	str	x6, [x2, #3816]
  4009a8:	91002000 	add	x0, x0, #0x8
  4009ac:	f9023460 	str	x0, [x3, #1128]
  4009b0:	f8408401 	ldr	x1, [x0], #8
  4009b4:	b5ffffe1 	cbnz	x1, 4009b0 <__libc_start_main+0x70>
  4009b8:	94006c88 	bl	41bbd8 <_dl_aux_init>
  4009bc:	90000741 	adrp	x1, 4e8000 <initial+0x70>
  4009c0:	90000280 	adrp	x0, 450000 <free_mem+0x48>
  4009c4:	f9475422 	ldr	x2, [x1, #3752]
  4009c8:	f941b800 	ldr	x0, [x0, #880]
  4009cc:	f100005f 	cmp	x2, #0x0
  4009d0:	fa400804 	ccmp	x0, #0x0, #0x4, eq  // eq = none
  4009d4:	540007a1 	b.ne	400ac8 <__libc_start_main+0x188>  // b.any
  4009d8:	94006fa6 	bl	41c870 <__libc_init_secure>
  4009dc:	90000740 	adrp	x0, 4e8000 <initial+0x70>
  4009e0:	f9423400 	ldr	x0, [x0, #1128]
  4009e4:	940069fd 	bl	41b1d8 <__tunables_init>
  4009e8:	d2800002 	mov	x2, #0x0                   	// #0
  4009ec:	9101c3e1 	add	x1, sp, #0x70
  4009f0:	52800080 	mov	w0, #0x4                   	// #4
  4009f4:	94006b85 	bl	41b808 <__tunable_get_val>
  4009f8:	f9403bf6 	ldr	x22, [sp, #112]
  4009fc:	b4000196 	cbz	x22, 400a2c <__libc_start_main+0xec>
  400a00:	90000298 	adrp	x24, 450000 <free_mem+0x48>
  400a04:	910bc318 	add	x24, x24, #0x2f0
  400a08:	d2800017 	mov	x23, #0x0                   	// #0
  400a0c:	d37ceee1 	lsl	x1, x23, #4
  400a10:	aa1603e0 	mov	x0, x22
  400a14:	f8786821 	ldr	x1, [x1, x24]
  400a18:	9400511a 	bl	414e80 <strcmp>
  400a1c:	34000fc0 	cbz	w0, 400c14 <__libc_start_main+0x2d4>
  400a20:	910006f7 	add	x23, x23, #0x1
  400a24:	f1001eff 	cmp	x23, #0x7
  400a28:	54ffff21 	b.ne	400a0c <__libc_start_main+0xcc>  // b.any
  400a2c:	90000740 	adrp	x0, 4e8000 <initial+0x70>
  400a30:	f9424401 	ldr	x1, [x0, #1160]
  400a34:	92750020 	and	x0, x1, #0x800
  400a38:	36580041 	tbz	w1, #11, 400a40 <__libc_start_main+0x100>
  400a3c:	d5380000 	mrs	x0, midr_el1
  400a40:	90000741 	adrp	x1, 4e8000 <initial+0x70>
  400a44:	91124022 	add	x2, x1, #0x490
  400a48:	f9024820 	str	x0, [x1, #1168]
  400a4c:	d53b00e0 	mrs	x0, dczid_el0
  400a50:	372000a0 	tbnz	w0, #4, 400a64 <__libc_start_main+0x124>
  400a54:	12000c00 	and	w0, w0, #0xf
  400a58:	52800081 	mov	w1, #0x4                   	// #4
  400a5c:	1ac02020 	lsl	w0, w1, w0
  400a60:	b9000840 	str	w0, [x2, #8]
  400a64:	90000740 	adrp	x0, 4e8000 <initial+0x70>
  400a68:	aa0003f8 	mov	x24, x0
  400a6c:	90000741 	adrp	x1, 4e8000 <initial+0x70>
  400a70:	90000282 	adrp	x2, 450000 <free_mem+0x48>
  400a74:	f9424400 	ldr	x0, [x0, #1160]
  400a78:	90000299 	adrp	x25, 450000 <free_mem+0x48>
  400a7c:	f941b056 	ldr	x22, [x2, #864]
  400a80:	53165800 	ubfx	w0, w0, #22, #1
  400a84:	39127020 	strb	w0, [x1, #1180]
  400a88:	14000006 	b	400aa0 <__libc_start_main+0x160>
  400a8c:	f9424700 	ldr	x0, [x24, #1160]
  400a90:	910062d6 	add	x22, x22, #0x18
  400a94:	f85f82c1 	ldur	x1, [x22, #-8]
  400a98:	d63f0020 	blr	x1
  400a9c:	f90002e0 	str	x0, [x23]
  400aa0:	f941bf20 	ldr	x0, [x25, #888]
  400aa4:	eb0002df 	cmp	x22, x0
  400aa8:	54000342 	b.cs	400b10 <__libc_start_main+0x1d0>  // b.hs, b.nlast
  400aac:	b9400ac0 	ldr	w0, [x22, #8]
  400ab0:	f94002d7 	ldr	x23, [x22]
  400ab4:	f110201f 	cmp	x0, #0x408
  400ab8:	54fffea0 	b.eq	400a8c <__libc_start_main+0x14c>  // b.none
  400abc:	90000280 	adrp	x0, 450000 <free_mem+0x48>
  400ac0:	910f6000 	add	x0, x0, #0x3d8
  400ac4:	9400249f 	bl	409d40 <__libc_fatal>
  400ac8:	79406c02 	ldrh	w2, [x0, #54]
  400acc:	7100e05f 	cmp	w2, #0x38
  400ad0:	54000120 	b.eq	400af4 <__libc_start_main+0x1b4>  // b.none
  400ad4:	90000283 	adrp	x3, 450000 <free_mem+0x48>
  400ad8:	90000281 	adrp	x1, 450000 <free_mem+0x48>
  400adc:	90000280 	adrp	x0, 450000 <free_mem+0x48>
  400ae0:	91112063 	add	x3, x3, #0x448
  400ae4:	910e4021 	add	x1, x1, #0x390
  400ae8:	528016c2 	mov	w2, #0xb6                  	// #182
  400aec:	910ea000 	add	x0, x0, #0x3a8
  400af0:	940001e4 	bl	401280 <__assert_fail>
  400af4:	f9401002 	ldr	x2, [x0, #32]
  400af8:	90000743 	adrp	x3, 4e8000 <initial+0x70>
  400afc:	79407004 	ldrh	w4, [x0, #56]
  400b00:	f9077064 	str	x4, [x3, #3808]
  400b04:	8b000040 	add	x0, x2, x0
  400b08:	f9075420 	str	x0, [x1, #3752]
  400b0c:	17ffffb3 	b	4009d8 <__libc_start_main+0x98>
  400b10:	940000a8 	bl	400db0 <__libc_setup_tls>
  400b14:	b0000420 	adrp	x0, 485000 <__FRAME_END__+0x103b0>
  400b18:	f0000421 	adrp	x1, 487000 <_dl_main_map+0xb0>
  400b1c:	b0000422 	adrp	x2, 485000 <__FRAME_END__+0x103b0>
  400b20:	f9473000 	ldr	x0, [x0, #3680]
  400b24:	b945a821 	ldr	w1, [x1, #1448]
  400b28:	f9400000 	ldr	x0, [x0]
  400b2c:	9278dc00 	and	x0, x0, #0xffffffffffffff00
  400b30:	f9046840 	str	x0, [x2, #2256]
  400b34:	340007a1 	cbz	w1, 400c28 <__libc_start_main+0x2e8>
  400b38:	90000280 	adrp	x0, 450000 <free_mem+0x48>
  400b3c:	f941c000 	ldr	x0, [x0, #896]
  400b40:	b4000040 	cbz	x0, 400b48 <__libc_start_main+0x208>
  400b44:	d503201f 	nop
  400b48:	b0000421 	adrp	x1, 485000 <__FRAME_END__+0x103b0>
  400b4c:	b0000420 	adrp	x0, 485000 <__FRAME_END__+0x103b0>
  400b50:	f9473021 	ldr	x1, [x1, #3680]
  400b54:	f9400421 	ldr	x1, [x1, #8]
  400b58:	f9046c01 	str	x1, [x0, #2264]
  400b5c:	b40000b5 	cbz	x21, 400b70 <__libc_start_main+0x230>
  400b60:	aa1503e0 	mov	x0, x21
  400b64:	d2800002 	mov	x2, #0x0                   	// #0
  400b68:	d2800001 	mov	x1, #0x0                   	// #0
  400b6c:	94001583 	bl	406178 <__cxa_atexit>
  400b70:	52800020 	mov	w0, #0x1                   	// #1
  400b74:	94006f57 	bl	41c8d0 <__libc_early_init>
  400b78:	90000742 	adrp	x2, 4e8000 <initial+0x70>
  400b7c:	b9405fe0 	ldr	w0, [sp, #92]
  400b80:	f94033e1 	ldr	x1, [sp, #96]
  400b84:	f9423442 	ldr	x2, [x2, #1128]
  400b88:	94006f54 	bl	41c8d8 <__libc_init_first>
  400b8c:	b40000b4 	cbz	x20, 400ba0 <__libc_start_main+0x260>
  400b90:	aa1403e0 	mov	x0, x20
  400b94:	d2800002 	mov	x2, #0x0                   	// #0
  400b98:	d2800001 	mov	x1, #0x0                   	// #0
  400b9c:	94001577 	bl	406178 <__cxa_atexit>
  400ba0:	b0000420 	adrp	x0, 485000 <__FRAME_END__+0x103b0>
  400ba4:	b94ef000 	ldr	w0, [x0, #3824]
  400ba8:	35000780 	cbnz	w0, 400c98 <__libc_start_main+0x358>
  400bac:	b40000d3 	cbz	x19, 400bc4 <__libc_start_main+0x284>
  400bb0:	90000742 	adrp	x2, 4e8000 <initial+0x70>
  400bb4:	b9405fe0 	ldr	w0, [sp, #92]
  400bb8:	f94033e1 	ldr	x1, [sp, #96]
  400bbc:	f9423442 	ldr	x2, [x2, #1128]
  400bc0:	d63f0260 	blr	x19
  400bc4:	d2800001 	mov	x1, #0x0                   	// #0
  400bc8:	d2800000 	mov	x0, #0x0                   	// #0
  400bcc:	940066b9 	bl	41a6b0 <_dl_debug_initialize>
  400bd0:	9101e3e0 	add	x0, sp, #0x78
  400bd4:	940011e7 	bl	405370 <_setjmp>
  400bd8:	35000440 	cbnz	w0, 400c60 <__libc_start_main+0x320>
  400bdc:	d53bd040 	mrs	x0, tpidr_el0
  400be0:	90000741 	adrp	x1, 4e8000 <initial+0x70>
  400be4:	d11c0000 	sub	x0, x0, #0x700
  400be8:	9101e3e3 	add	x3, sp, #0x78
  400bec:	f9423422 	ldr	x2, [x1, #1128]
  400bf0:	f9408004 	ldr	x4, [x0, #256]
  400bf4:	f9008003 	str	x3, [x0, #256]
  400bf8:	f9407c03 	ldr	x3, [x0, #248]
  400bfc:	a9130fe4 	stp	x4, x3, [sp, #304]
  400c00:	b9405fe0 	ldr	w0, [sp, #92]
  400c04:	f94033e1 	ldr	x1, [sp, #96]
  400c08:	f94037e3 	ldr	x3, [sp, #104]
  400c0c:	d63f0060 	blr	x3
  400c10:	940014cc 	bl	405f40 <exit>
  400c14:	8b37d318 	add	x24, x24, w23, sxtw #4
  400c18:	f9400700 	ldr	x0, [x24, #8]
  400c1c:	b100041f 	cmn	x0, #0x1
  400c20:	54fff101 	b.ne	400a40 <__libc_start_main+0x100>  // b.any
  400c24:	17ffff82 	b	400a2c <__libc_start_main+0xec>
  400c28:	94006ec6 	bl	41c740 <_dl_discover_osversion>
  400c2c:	37f80400 	tbnz	w0, #31, 400cac <__libc_start_main+0x36c>
  400c30:	90000741 	adrp	x1, 4e8000 <initial+0x70>
  400c34:	b94f0021 	ldr	w1, [x1, #3840]
  400c38:	35000341 	cbnz	w1, 400ca0 <__libc_start_main+0x360>
  400c3c:	90000741 	adrp	x1, 4e8000 <initial+0x70>
  400c40:	b90f0020 	str	w0, [x1, #3840]
  400c44:	5280dfe1 	mov	w1, #0x6ff                 	// #1791
  400c48:	72a00061 	movk	w1, #0x3, lsl #16
  400c4c:	6b01001f 	cmp	w0, w1
  400c50:	54fff74c 	b.gt	400b38 <__libc_start_main+0x1f8>
  400c54:	90000280 	adrp	x0, 450000 <free_mem+0x48>
  400c58:	91102000 	add	x0, x0, #0x408
  400c5c:	94002439 	bl	409d40 <__libc_fatal>
  400c60:	d503201f 	nop
  400c64:	90000281 	adrp	x1, 450000 <free_mem+0x48>
  400c68:	12800000 	mov	w0, #0xffffffff            	// #-1
  400c6c:	f941c421 	ldr	x1, [x1, #904]
  400c70:	94012654 	bl	44a5c0 <__aarch64_ldadd4_acq>
  400c74:	7100041f 	cmp	w0, #0x1
  400c78:	540000c0 	b.eq	400c90 <__libc_start_main+0x350>  // b.none
  400c7c:	d2800ba1 	mov	x1, #0x5d                  	// #93
  400c80:	d2800000 	mov	x0, #0x0                   	// #0
  400c84:	aa0103e8 	mov	x8, x1
  400c88:	d4000001 	svc	#0x0
  400c8c:	17fffffd 	b	400c80 <__libc_start_main+0x340>
  400c90:	52800000 	mov	w0, #0x0                   	// #0
  400c94:	940014ab 	bl	405f40 <exit>
  400c98:	9400003a 	bl	400d80 <__libc_check_standard_fds>
  400c9c:	17ffffc4 	b	400bac <__libc_start_main+0x26c>
  400ca0:	6b00003f 	cmp	w1, w0
  400ca4:	54fffd09 	b.ls	400c44 <__libc_start_main+0x304>  // b.plast
  400ca8:	17ffffe5 	b	400c3c <__libc_start_main+0x2fc>
  400cac:	90000280 	adrp	x0, 450000 <free_mem+0x48>
  400cb0:	91108000 	add	x0, x0, #0x420
  400cb4:	94002423 	bl	409d40 <__libc_fatal>

0000000000400cb8 <check_one_fd>:
  400cb8:	a9b57bfd 	stp	x29, x30, [sp, #-176]!
  400cbc:	910003fd 	mov	x29, sp
  400cc0:	a90153f3 	stp	x19, x20, [sp, #16]
  400cc4:	2a0103f4 	mov	w20, w1
  400cc8:	2a0003f3 	mov	w19, w0
  400ccc:	52800021 	mov	w1, #0x1                   	// #1
  400cd0:	9400608e 	bl	418f08 <__fcntl64_nocancel>
  400cd4:	3100041f 	cmn	w0, #0x1
  400cd8:	54000080 	b.eq	400ce8 <check_one_fd+0x30>  // b.none
  400cdc:	a94153f3 	ldp	x19, x20, [sp, #16]
  400ce0:	a8cb7bfd 	ldp	x29, x30, [sp], #176
  400ce4:	d65f03c0 	ret
  400ce8:	b0000420 	adrp	x0, 485000 <__FRAME_END__+0x103b0>
  400cec:	f947c000 	ldr	x0, [x0, #3968]
  400cf0:	d53bd041 	mrs	x1, tpidr_el0
  400cf4:	b8606820 	ldr	w0, [x1, x0]
  400cf8:	7100241f 	cmp	w0, #0x9
  400cfc:	54ffff01 	b.ne	400cdc <check_one_fd+0x24>  // b.any
  400d00:	f90013f5 	str	x21, [sp, #32]
  400d04:	7140229f 	cmp	w20, #0x8, lsl #12
  400d08:	54000301 	b.ne	400d68 <check_one_fd+0xb0>  // b.any
  400d0c:	90000280 	adrp	x0, 450000 <free_mem+0x48>
  400d10:	91130000 	add	x0, x0, #0x4c0
  400d14:	d2802075 	mov	x21, #0x103                 	// #259
  400d18:	2a1403e1 	mov	w1, w20
  400d1c:	52800002 	mov	w2, #0x0                   	// #0
  400d20:	94006092 	bl	418f68 <__open64_nocancel>
  400d24:	6b00027f 	cmp	w19, w0
  400d28:	540001a1 	b.ne	400d5c <check_one_fd+0xa4>  // b.any
  400d2c:	2a1303e1 	mov	w1, w19
  400d30:	9100c3e2 	add	x2, sp, #0x30
  400d34:	52800000 	mov	w0, #0x0                   	// #0
  400d38:	94005dd0 	bl	418478 <__fxstat>
  400d3c:	35000100 	cbnz	w0, 400d5c <check_one_fd+0xa4>
  400d40:	b94043e0 	ldr	w0, [sp, #64]
  400d44:	12140c00 	and	w0, w0, #0xf000
  400d48:	7140081f 	cmp	w0, #0x2, lsl #12
  400d4c:	54000081 	b.ne	400d5c <check_one_fd+0xa4>  // b.any
  400d50:	f9402be0 	ldr	x0, [sp, #80]
  400d54:	eb15001f 	cmp	x0, x21
  400d58:	54000100 	b.eq	400d78 <check_one_fd+0xc0>  // b.none
  400d5c:	d4207d00 	brk	#0x3e8
  400d60:	d4207d00 	brk	#0x3e8
  400d64:	17fffffe 	b	400d5c <check_one_fd+0xa4>
  400d68:	90000280 	adrp	x0, 450000 <free_mem+0x48>
  400d6c:	d28020f5 	mov	x21, #0x107                 	// #263
  400d70:	9112c000 	add	x0, x0, #0x4b0
  400d74:	17ffffe9 	b	400d18 <check_one_fd+0x60>
  400d78:	f94013f5 	ldr	x21, [sp, #32]
  400d7c:	17ffffd8 	b	400cdc <check_one_fd+0x24>

0000000000400d80 <__libc_check_standard_fds>:
  400d80:	a9bf7bfd 	stp	x29, x30, [sp, #-16]!
  400d84:	52900021 	mov	w1, #0x8001                	// #32769
  400d88:	52800000 	mov	w0, #0x0                   	// #0
  400d8c:	910003fd 	mov	x29, sp
  400d90:	97ffffca 	bl	400cb8 <check_one_fd>
  400d94:	52900001 	mov	w1, #0x8000                	// #32768
  400d98:	52800020 	mov	w0, #0x1                   	// #1
  400d9c:	97ffffc7 	bl	400cb8 <check_one_fd>
  400da0:	a8c17bfd 	ldp	x29, x30, [sp], #16
  400da4:	52900001 	mov	w1, #0x8000                	// #32768
  400da8:	52800040 	mov	w0, #0x2                   	// #2
  400dac:	17ffffc3 	b	400cb8 <check_one_fd>

0000000000400db0 <__libc_setup_tls>:
  400db0:	a9b97bfd 	stp	x29, x30, [sp, #-112]!
  400db4:	90000740 	adrp	x0, 4e8000 <initial+0x70>
  400db8:	f0000421 	adrp	x1, 487000 <_dl_main_map+0xb0>
  400dbc:	910003fd 	mov	x29, sp
  400dc0:	f9475400 	ldr	x0, [x0, #3752]
  400dc4:	a90153f3 	stp	x19, x20, [sp, #16]
  400dc8:	a9025bf5 	stp	x21, x22, [sp, #32]
  400dcc:	a90363f7 	stp	x23, x24, [sp, #48]
  400dd0:	a9046bf9 	stp	x25, x26, [sp, #64]
  400dd4:	a90573fb 	stp	x27, x28, [sp, #80]
  400dd8:	6d0627e8 	stp	d8, d9, [sp, #96]
  400ddc:	f9426c35 	ldr	x21, [x1, #1240]
  400de0:	b4000c80 	cbz	x0, 400f70 <__libc_setup_tls+0x1c0>
  400de4:	90000741 	adrp	x1, 4e8000 <initial+0x70>
  400de8:	f9477021 	ldr	x1, [x1, #3808]
  400dec:	d37df022 	lsl	x2, x1, #3
  400df0:	cb010042 	sub	x2, x2, x1
  400df4:	8b020c02 	add	x2, x0, x2, lsl #3
  400df8:	eb02001f 	cmp	x0, x2
  400dfc:	540000a3 	b.cc	400e10 <__libc_setup_tls+0x60>  // b.lo, b.ul, b.last
  400e00:	1400005c 	b	400f70 <__libc_setup_tls+0x1c0>
  400e04:	9100e000 	add	x0, x0, #0x38
  400e08:	eb02001f 	cmp	x0, x2
  400e0c:	54000b22 	b.cs	400f70 <__libc_setup_tls+0x1c0>  // b.hs, b.nlast
  400e10:	b9400001 	ldr	w1, [x0]
  400e14:	71001c3f 	cmp	w1, #0x7
  400e18:	54ffff61 	b.ne	400e04 <__libc_setup_tls+0x54>  // b.any
  400e1c:	a942dc13 	ldp	x19, x23, [x0, #40]
  400e20:	f94002ba 	ldr	x26, [x21]
  400e24:	f9400801 	ldr	x1, [x0, #16]
  400e28:	f10042ff 	cmp	x23, #0x10
  400e2c:	8b01035a 	add	x26, x26, x1
  400e30:	fd401008 	ldr	d8, [x0, #32]
  400e34:	54000ba8 	b.hi	400fa8 <__libc_setup_tls+0x1f8>  // b.pmore
  400e38:	d2800000 	mov	x0, #0x0                   	// #0
  400e3c:	94006653 	bl	41a788 <_dl_tls_static_surplus_init>
  400e40:	91004260 	add	x0, x19, #0x10
  400e44:	b4000c17 	cbz	x23, 400fc4 <__libc_setup_tls+0x214>
  400e48:	d28001f9 	mov	x25, #0xf                   	// #15
  400e4c:	928001f8 	mov	x24, #0xfffffffffffffff0    	// #-16
  400e50:	d280021b 	mov	x27, #0x10                  	// #16
  400e54:	91003ef6 	add	x22, x23, #0xf
  400e58:	aa1703fc 	mov	x28, x23
  400e5c:	9ad70ad6 	udiv	x22, x22, x23
  400e60:	9b177ed6 	mul	x22, x22, x23
  400e64:	9e6702c9 	fmov	d9, x22
  400e68:	90000744 	adrp	x4, 4e8000 <initial+0x70>
  400e6c:	8b160000 	add	x0, x0, x22
  400e70:	f946f881 	ldr	x1, [x4, #3568]
  400e74:	911c0021 	add	x1, x1, #0x700
  400e78:	8b000020 	add	x0, x1, x0
  400e7c:	940060c9 	bl	4191a0 <__sbrk>
  400e80:	911c0014 	add	x20, x0, #0x700
  400e84:	90000741 	adrp	x1, 4e8000 <initial+0x70>
  400e88:	8b190294 	add	x20, x20, x25
  400e8c:	91274023 	add	x3, x1, #0x9d0
  400e90:	d28007c2 	mov	x2, #0x3e                  	// #62
  400e94:	8a180294 	and	x20, x20, x24
  400e98:	f904e822 	str	x2, [x1, #2512]
  400e9c:	9e660102 	fmov	x2, d8
  400ea0:	8b160285 	add	x5, x20, x22
  400ea4:	a9027c65 	stp	x5, xzr, [x3, #32]
  400ea8:	aa0503e0 	mov	x0, x5
  400eac:	aa1a03e1 	mov	x1, x26
  400eb0:	fd023ea9 	str	d9, [x21, #1144]
  400eb4:	97fffcdb 	bl	400220 <.plt+0x10>
  400eb8:	90000740 	adrp	x0, 4e8000 <initial+0x70>
  400ebc:	91278000 	add	x0, x0, #0x9e0
  400ec0:	f9000280 	str	x0, [x20]
  400ec4:	d51bd054 	msr	tpidr_el0, x20
  400ec8:	8b170260 	add	x0, x19, x23
  400ecc:	f10002ff 	cmp	x23, #0x0
  400ed0:	d1000400 	sub	x0, x0, #0x1
  400ed4:	f90232b3 	str	x19, [x21, #1120]
  400ed8:	9a931013 	csel	x19, x0, x19, ne  // ne = any
  400edc:	90000744 	adrp	x4, 4e8000 <initial+0x70>
  400ee0:	f0000723 	adrp	x3, 4e7000 <A+0x1f5e0>
  400ee4:	91288062 	add	x2, x3, #0xa20
  400ee8:	f946f880 	ldr	x0, [x4, #3568]
  400eec:	90000741 	adrp	x1, 4e8000 <initial+0x70>
  400ef0:	9adc0a73 	udiv	x19, x19, x28
  400ef4:	90000748 	adrp	x8, 4e8000 <initial+0x70>
  400ef8:	91003c00 	add	x0, x0, #0xf
  400efc:	90000747 	adrp	x7, 4e8000 <initial+0x70>
  400f00:	90000746 	adrp	x6, 4e8000 <initial+0x70>
  400f04:	90000745 	adrp	x5, 4e8000 <initial+0x70>
  400f08:	f904e11b 	str	x27, [x8, #2496]
  400f0c:	90000744 	adrp	x4, 4e8000 <initial+0x70>
  400f10:	9b1c5a73 	madd	x19, x19, x28, x22
  400f14:	f9001455 	str	x21, [x2, #40]
  400f18:	f904d833 	str	x19, [x1, #2480]
  400f1c:	d2800021 	mov	x1, #0x1                   	// #1
  400f20:	8b130000 	add	x0, x0, x19
  400f24:	f9022aba 	str	x26, [x21, #1104]
  400f28:	fd022ea8 	str	d8, [x21, #1112]
  400f2c:	927cec00 	and	x0, x0, #0xfffffffffffffff0
  400f30:	f90236b7 	str	x23, [x21, #1128]
  400f34:	a94153f3 	ldp	x19, x20, [sp, #16]
  400f38:	f906ecc2 	str	x2, [x6, #3544]
  400f3c:	a94363f7 	ldp	x23, x24, [sp, #48]
  400f40:	d2800806 	mov	x6, #0x40                  	// #64
  400f44:	a9446bf9 	ldp	x25, x26, [sp, #64]
  400f48:	f9051066 	str	x6, [x3, #2592]
  400f4c:	a94573fb 	ldp	x27, x28, [sp, #80]
  400f50:	f906e8e0 	str	x0, [x7, #3536]
  400f54:	6d4627e8 	ldp	d8, d9, [sp, #96]
  400f58:	f90242a1 	str	x1, [x21, #1152]
  400f5c:	f904e4a1 	str	x1, [x5, #2504]
  400f60:	f906fc81 	str	x1, [x4, #3576]
  400f64:	a9425bf5 	ldp	x21, x22, [sp, #32]
  400f68:	a8c77bfd 	ldp	x29, x30, [sp], #112
  400f6c:	d65f03c0 	ret
  400f70:	d2800000 	mov	x0, #0x0                   	// #0
  400f74:	94006605 	bl	41a788 <_dl_tls_static_surplus_init>
  400f78:	d2800200 	mov	x0, #0x10                  	// #16
  400f7c:	d28001f9 	mov	x25, #0xf                   	// #15
  400f80:	928001f8 	mov	x24, #0xfffffffffffffff0    	// #-16
  400f84:	d2800017 	mov	x23, #0x0                   	// #0
  400f88:	aa0003f6 	mov	x22, x0
  400f8c:	9e670009 	fmov	d9, x0
  400f90:	aa0003fb 	mov	x27, x0
  400f94:	d280001a 	mov	x26, #0x0                   	// #0
  400f98:	9e6703e8 	fmov	d8, xzr
  400f9c:	d2800013 	mov	x19, #0x0                   	// #0
  400fa0:	d280003c 	mov	x28, #0x1                   	// #1
  400fa4:	17ffffb1 	b	400e68 <__libc_setup_tls+0xb8>
  400fa8:	d2800000 	mov	x0, #0x0                   	// #0
  400fac:	940065f7 	bl	41a788 <_dl_tls_static_surplus_init>
  400fb0:	cb1703f8 	neg	x24, x23
  400fb4:	d10006f9 	sub	x25, x23, #0x1
  400fb8:	8b170260 	add	x0, x19, x23
  400fbc:	aa1703fb 	mov	x27, x23
  400fc0:	17ffffa5 	b	400e54 <__libc_setup_tls+0xa4>
  400fc4:	d2800216 	mov	x22, #0x10                  	// #16
  400fc8:	d28001f9 	mov	x25, #0xf                   	// #15
  400fcc:	9e6702c9 	fmov	d9, x22
  400fd0:	aa1603fb 	mov	x27, x22
  400fd4:	928001f8 	mov	x24, #0xfffffffffffffff0    	// #-16
  400fd8:	d280003c 	mov	x28, #0x1                   	// #1
  400fdc:	17ffffa3 	b	400e68 <__libc_setup_tls+0xb8>

0000000000400fe0 <__tls_get_addr>:
  400fe0:	d53bd041 	mrs	x1, tpidr_el0
  400fe4:	f9400400 	ldr	x0, [x0, #8]
  400fe8:	f9400021 	ldr	x1, [x1]
  400fec:	f9400821 	ldr	x1, [x1, #16]
  400ff0:	8b000020 	add	x0, x1, x0
  400ff4:	d65f03c0 	ret

0000000000400ff8 <__libc_csu_init>:
  400ff8:	a9bc7bfd 	stp	x29, x30, [sp, #-64]!
  400ffc:	910003fd 	mov	x29, sp
  401000:	a90363f7 	stp	x23, x24, [sp, #48]
  401004:	90000437 	adrp	x23, 485000 <__FRAME_END__+0x103b0>
  401008:	90000438 	adrp	x24, 485000 <__FRAME_END__+0x103b0>
  40100c:	912302f7 	add	x23, x23, #0x8c0
  401010:	91230318 	add	x24, x24, #0x8c0
  401014:	cb1802f7 	sub	x23, x23, x24
  401018:	a90153f3 	stp	x19, x20, [sp, #16]
  40101c:	2a0003f4 	mov	w20, w0
  401020:	a9025bf5 	stp	x21, x22, [sp, #32]
  401024:	9343fef7 	asr	x23, x23, #3
  401028:	aa0103f5 	mov	x21, x1
  40102c:	aa0203f6 	mov	x22, x2
  401030:	b4000157 	cbz	x23, 401058 <__libc_csu_init+0x60>
  401034:	d2800013 	mov	x19, #0x0                   	// #0
  401038:	f8737b03 	ldr	x3, [x24, x19, lsl #3]
  40103c:	aa1603e2 	mov	x2, x22
  401040:	91000673 	add	x19, x19, #0x1
  401044:	aa1503e1 	mov	x1, x21
  401048:	2a1403e0 	mov	w0, w20
  40104c:	d63f0060 	blr	x3
  401050:	eb1302ff 	cmp	x23, x19
  401054:	54ffff21 	b.ne	401038 <__libc_csu_init+0x40>  // b.any
  401058:	90000437 	adrp	x23, 485000 <__FRAME_END__+0x103b0>
  40105c:	90000438 	adrp	x24, 485000 <__FRAME_END__+0x103b0>
  401060:	912322f7 	add	x23, x23, #0x8c8
  401064:	91230318 	add	x24, x24, #0x8c0
  401068:	cb1802f7 	sub	x23, x23, x24
  40106c:	97fffc63 	bl	4001f8 <_init>
  401070:	9343fef7 	asr	x23, x23, #3
  401074:	b4000177 	cbz	x23, 4010a0 <__libc_csu_init+0xa8>
  401078:	d2800013 	mov	x19, #0x0                   	// #0
  40107c:	d503201f 	nop
  401080:	f8737b03 	ldr	x3, [x24, x19, lsl #3]
  401084:	aa1603e2 	mov	x2, x22
  401088:	91000673 	add	x19, x19, #0x1
  40108c:	aa1503e1 	mov	x1, x21
  401090:	2a1403e0 	mov	w0, w20
  401094:	d63f0060 	blr	x3
  401098:	eb1302ff 	cmp	x23, x19
  40109c:	54ffff21 	b.ne	401080 <__libc_csu_init+0x88>  // b.any
  4010a0:	a94153f3 	ldp	x19, x20, [sp, #16]
  4010a4:	a9425bf5 	ldp	x21, x22, [sp, #32]
  4010a8:	a94363f7 	ldp	x23, x24, [sp, #48]
  4010ac:	a8c47bfd 	ldp	x29, x30, [sp], #64
  4010b0:	d65f03c0 	ret

00000000004010b4 <.annobin___libc_csu_fini.start>:
  4010b4:	d503201f 	nop

00000000004010b8 <__libc_csu_fini>:
  4010b8:	a9be7bfd 	stp	x29, x30, [sp, #-32]!
  4010bc:	90000420 	adrp	x0, 485000 <__FRAME_END__+0x103b0>
  4010c0:	91234000 	add	x0, x0, #0x8d0
  4010c4:	910003fd 	mov	x29, sp
  4010c8:	a90153f3 	stp	x19, x20, [sp, #16]
  4010cc:	90000434 	adrp	x20, 485000 <__FRAME_END__+0x103b0>
  4010d0:	91232294 	add	x20, x20, #0x8c8
  4010d4:	cb140000 	sub	x0, x0, x20
  4010d8:	9343fc00 	asr	x0, x0, #3
  4010dc:	b4000100 	cbz	x0, 4010fc <__libc_csu_fini+0x44>
  4010e0:	d1000413 	sub	x19, x0, #0x1
  4010e4:	d503201f 	nop
  4010e8:	f8737a80 	ldr	x0, [x20, x19, lsl #3]
  4010ec:	d1000673 	sub	x19, x19, #0x1
  4010f0:	d63f0000 	blr	x0
  4010f4:	b100067f 	cmn	x19, #0x1
  4010f8:	54ffff81 	b.ne	4010e8 <__libc_csu_fini+0x30>  // b.any
  4010fc:	a94153f3 	ldp	x19, x20, [sp, #16]
  401100:	a8c27bfd 	ldp	x29, x30, [sp], #32
  401104:	14013c34 	b	4501d4 <_fini>

0000000000401108 <__assert_fail_base>:
  401108:	d101c3ff 	sub	sp, sp, #0x70
  40110c:	f0000266 	adrp	x6, 450000 <free_mem+0x48>
  401110:	90000425 	adrp	x5, 485000 <__FRAME_END__+0x103b0>
  401114:	912340a5 	add	x5, x5, #0x8d0
  401118:	a9017bfd 	stp	x29, x30, [sp, #16]
  40111c:	910043fd 	add	x29, sp, #0x10
  401120:	a90253f3 	stp	x19, x20, [sp, #32]
  401124:	aa0003f4 	mov	x20, x0
  401128:	aa0403f3 	mov	x19, x4
  40112c:	f94268c0 	ldr	x0, [x6, #1232]
  401130:	f94000a6 	ldr	x6, [x5]
  401134:	f90037e6 	str	x6, [sp, #104]
  401138:	d2800006 	mov	x6, #0x0                   	// #0
  40113c:	f9001bf5 	str	x21, [sp, #48]
  401140:	aa0103f5 	mov	x21, x1
  401144:	b4000100 	cbz	x0, 401164 <__assert_fail_base+0x5c>
  401148:	d2800001 	mov	x1, #0x0                   	// #0
  40114c:	52800020 	mov	w0, #0x1                   	// #1
  401150:	f90023e2 	str	x2, [sp, #64]
  401154:	b9004fe3 	str	w3, [sp, #76]
  401158:	d503201f 	nop
  40115c:	b9404fe3 	ldr	w3, [sp, #76]
  401160:	f94023e2 	ldr	x2, [sp, #64]
  401164:	b0000421 	adrp	x1, 486000 <.got.plt+0x18>
  401168:	f00002e0 	adrp	x0, 460000 <translit_from_idx+0x1030>
  40116c:	f0000267 	adrp	x7, 450000 <free_mem+0x48>
  401170:	f9479c21 	ldr	x1, [x1, #3896]
  401174:	91396000 	add	x0, x0, #0xe58
  401178:	911360e7 	add	x7, x7, #0x4d8
  40117c:	39400024 	ldrb	w4, [x1]
  401180:	7100009f 	cmp	w4, #0x0
  401184:	9a8010e8 	csel	x8, x7, x0, ne  // ne = any
  401188:	b4000753 	cbz	x19, 401270 <__assert_fail_base+0x168>
  40118c:	910173e0 	add	x0, sp, #0x5c
  401190:	a90003f5 	stp	x21, x0, [sp]
  401194:	2a0303e5 	mov	w5, w3
  401198:	aa0203e4 	mov	x4, x2
  40119c:	aa1303e6 	mov	x6, x19
  4011a0:	aa0103e2 	mov	x2, x1
  4011a4:	aa0803e3 	mov	x3, x8
  4011a8:	aa1403e1 	mov	x1, x20
  4011ac:	910183e0 	add	x0, sp, #0x60
  4011b0:	94001708 	bl	406dd0 <___asprintf>
  4011b4:	37f80520 	tbnz	w0, #31, 401258 <__assert_fail_base+0x150>
  4011b8:	f94033e2 	ldr	x2, [sp, #96]
  4011bc:	f0000321 	adrp	x1, 468000 <_itowa_lower_digits+0x340>
  4011c0:	d2800000 	mov	x0, #0x0                   	// #0
  4011c4:	913e2021 	add	x1, x1, #0xf88
  4011c8:	940017a6 	bl	407060 <__fxprintf>
  4011cc:	b0000420 	adrp	x0, 486000 <.got.plt+0x18>
  4011d0:	f942ec00 	ldr	x0, [x0, #1496]
  4011d4:	94001909 	bl	4075f8 <_IO_fflush>
  4011d8:	b0000420 	adrp	x0, 486000 <.got.plt+0x18>
  4011dc:	b9405fe1 	ldr	w1, [sp, #92]
  4011e0:	d2800005 	mov	x5, #0x0                   	// #0
  4011e4:	12800004 	mov	w4, #0xffffffff            	// #-1
  4011e8:	f947a400 	ldr	x0, [x0, #3912]
  4011ec:	52800443 	mov	w3, #0x22                  	// #34
  4011f0:	52800062 	mov	w2, #0x3                   	// #3
  4011f4:	0b000021 	add	w1, w1, w0
  4011f8:	4b0003e6 	neg	w6, w0
  4011fc:	11001021 	add	w1, w1, #0x4
  401200:	d2800000 	mov	x0, #0x0                   	// #0
  401204:	0a060021 	and	w1, w1, w6
  401208:	b9005fe1 	str	w1, [sp, #92]
  40120c:	93407c21 	sxtw	x1, w1
  401210:	9400603a 	bl	4192f8 <__mmap64>
  401214:	aa0003f3 	mov	x19, x0
  401218:	b100041f 	cmn	x0, #0x1
  40121c:	54000180 	b.eq	40124c <__assert_fail_base+0x144>  // b.none
  401220:	b9405fe2 	ldr	w2, [sp, #92]
  401224:	f94033e1 	ldr	x1, [sp, #96]
  401228:	b8004402 	str	w2, [x0], #4
  40122c:	94004f55 	bl	414f80 <strcpy>
  401230:	d0000721 	adrp	x1, 4e7000 <A+0x1f5e0>
  401234:	aa1303e0 	mov	x0, x19
  401238:	913dc021 	add	x1, x1, #0xf70
  40123c:	940124ed 	bl	44a5f0 <__aarch64_swp8_acq>
  401240:	b4000060 	cbz	x0, 40124c <__assert_fail_base+0x144>
  401244:	b9400001 	ldr	w1, [x0]
  401248:	94006046 	bl	419360 <__munmap>
  40124c:	f94033e0 	ldr	x0, [sp, #96]
  401250:	940049e8 	bl	4139f0 <__free>
  401254:	97fffbfb 	bl	400240 <abort>
  401258:	f0000261 	adrp	x1, 450000 <free_mem+0x48>
  40125c:	91144021 	add	x1, x1, #0x510
  401260:	d2800242 	mov	x2, #0x12                  	// #18
  401264:	52800040 	mov	w0, #0x2                   	// #2
  401268:	94005d16 	bl	4186c0 <__libc_write>
  40126c:	97fffbf5 	bl	400240 <abort>
  401270:	aa0003f3 	mov	x19, x0
  401274:	aa0003e7 	mov	x7, x0
  401278:	17ffffc5 	b	40118c <__assert_fail_base+0x84>

000000000040127c <.annobin___assert_fail.start>:
  40127c:	d503201f 	nop

0000000000401280 <__assert_fail>:
  401280:	a9bc7bfd 	stp	x29, x30, [sp, #-64]!
  401284:	910003fd 	mov	x29, sp
  401288:	a90153f3 	stp	x19, x20, [sp, #16]
  40128c:	aa0003f3 	mov	x19, x0
  401290:	aa0103f4 	mov	x20, x1
  401294:	f00002e0 	adrp	x0, 460000 <translit_from_idx+0x1030>
  401298:	f0000261 	adrp	x1, 450000 <free_mem+0x48>
  40129c:	91164000 	add	x0, x0, #0x590
  4012a0:	91138021 	add	x1, x1, #0x4e0
  4012a4:	f90013f5 	str	x21, [sp, #32]
  4012a8:	2a0203f5 	mov	w21, w2
  4012ac:	528000a2 	mov	w2, #0x5                   	// #5
  4012b0:	f9001fe3 	str	x3, [sp, #56]
  4012b4:	94000007 	bl	4012d0 <__dcgettext>
  4012b8:	f9401fe3 	ldr	x3, [sp, #56]
  4012bc:	aa1403e2 	mov	x2, x20
  4012c0:	aa1303e1 	mov	x1, x19
  4012c4:	aa0303e4 	mov	x4, x3
  4012c8:	2a1503e3 	mov	w3, w21
  4012cc:	97ffff8f 	bl	401108 <__assert_fail_base>

00000000004012d0 <__dcgettext>:
  4012d0:	2a0203e5 	mov	w5, w2
  4012d4:	d2800004 	mov	x4, #0x0                   	// #0
  4012d8:	52800003 	mov	w3, #0x0                   	// #0
  4012dc:	d2800002 	mov	x2, #0x0                   	// #0
  4012e0:	140002fa 	b	401ec8 <__dcigettext>

00000000004012e4 <.annobin___dcgettext.end>:
  4012e4:	d503201f 	nop

00000000004012e8 <plural_eval>:
  4012e8:	a9bd7bfd 	stp	x29, x30, [sp, #-48]!
  4012ec:	910003fd 	mov	x29, sp
  4012f0:	a90153f3 	stp	x19, x20, [sp, #16]
  4012f4:	aa0003f3 	mov	x19, x0
  4012f8:	f90013f5 	str	x21, [sp, #32]
  4012fc:	aa0103f5 	mov	x21, x1
  401300:	b9400260 	ldr	w0, [x19]
  401304:	7100041f 	cmp	w0, #0x1
  401308:	54000220 	b.eq	40134c <plural_eval+0x64>  // b.none
  40130c:	5400034d 	b.le	401374 <plural_eval+0x8c>
  401310:	aa1503e1 	mov	x1, x21
  401314:	7100081f 	cmp	w0, #0x2
  401318:	54000460 	b.eq	4013a4 <plural_eval+0xbc>  // b.none
  40131c:	71000c1f 	cmp	w0, #0x3
  401320:	54000361 	b.ne	40138c <plural_eval+0xa4>  // b.any
  401324:	f9400660 	ldr	x0, [x19, #8]
  401328:	97fffff0 	bl	4012e8 <plural_eval>
  40132c:	f100001f 	cmp	x0, #0x0
  401330:	1a9f17e0 	cset	w0, eq  // eq = none
  401334:	11000400 	add	w0, w0, #0x1
  401338:	8b20ce73 	add	x19, x19, w0, sxtw #3
  40133c:	f9400673 	ldr	x19, [x19, #8]
  401340:	b9400260 	ldr	w0, [x19]
  401344:	7100041f 	cmp	w0, #0x1
  401348:	54fffe21 	b.ne	40130c <plural_eval+0x24>  // b.any
  40134c:	f9400660 	ldr	x0, [x19, #8]
  401350:	aa1503e1 	mov	x1, x21
  401354:	97ffffe5 	bl	4012e8 <plural_eval>
  401358:	f100001f 	cmp	x0, #0x0
  40135c:	9a9f17f4 	cset	x20, eq  // eq = none
  401360:	aa1403e0 	mov	x0, x20
  401364:	a94153f3 	ldp	x19, x20, [sp, #16]
  401368:	f94013f5 	ldr	x21, [sp, #32]
  40136c:	a8c37bfd 	ldp	x29, x30, [sp], #48
  401370:	d65f03c0 	ret
  401374:	350000c0 	cbnz	w0, 40138c <plural_eval+0xa4>
  401378:	b9400660 	ldr	w0, [x19, #4]
  40137c:	aa1503f4 	mov	x20, x21
  401380:	34ffff00 	cbz	w0, 401360 <plural_eval+0x78>
  401384:	7100041f 	cmp	w0, #0x1
  401388:	54000420 	b.eq	40140c <plural_eval+0x124>  // b.none
  40138c:	d2800014 	mov	x20, #0x0                   	// #0
  401390:	aa1403e0 	mov	x0, x20
  401394:	a94153f3 	ldp	x19, x20, [sp, #16]
  401398:	f94013f5 	ldr	x21, [sp, #32]
  40139c:	a8c37bfd 	ldp	x29, x30, [sp], #48
  4013a0:	d65f03c0 	ret
  4013a4:	f9400660 	ldr	x0, [x19, #8]
  4013a8:	97ffffd0 	bl	4012e8 <plural_eval>
  4013ac:	aa0003f4 	mov	x20, x0
  4013b0:	b9400660 	ldr	w0, [x19, #4]
  4013b4:	71003c1f 	cmp	w0, #0xf
  4013b8:	540002e0 	b.eq	401414 <plural_eval+0x12c>  // b.none
  4013bc:	7100381f 	cmp	w0, #0xe
  4013c0:	54000760 	b.eq	4014ac <plural_eval+0x1c4>  // b.none
  4013c4:	f9400a60 	ldr	x0, [x19, #16]
  4013c8:	aa1503e1 	mov	x1, x21
  4013cc:	97ffffc7 	bl	4012e8 <plural_eval>
  4013d0:	aa0003f5 	mov	x21, x0
  4013d4:	b9400660 	ldr	w0, [x19, #4]
  4013d8:	7100201f 	cmp	w0, #0x8
  4013dc:	54000960 	b.eq	401508 <plural_eval+0x220>  // b.none
  4013e0:	54000348 	b.hi	401448 <plural_eval+0x160>  // b.pmore
  4013e4:	7100141f 	cmp	w0, #0x5
  4013e8:	54000880 	b.eq	4014f8 <plural_eval+0x210>  // b.none
  4013ec:	540001a8 	b.hi	401420 <plural_eval+0x138>  // b.pmore
  4013f0:	71000c1f 	cmp	w0, #0x3
  4013f4:	540007e0 	b.eq	4014f0 <plural_eval+0x208>  // b.none
  4013f8:	7100101f 	cmp	w0, #0x4
  4013fc:	54fffc81 	b.ne	40138c <plural_eval+0xa4>  // b.any
  401400:	b4000655 	cbz	x21, 4014c8 <plural_eval+0x1e0>
  401404:	9ad50a94 	udiv	x20, x20, x21
  401408:	17ffffd6 	b	401360 <plural_eval+0x78>
  40140c:	f9400674 	ldr	x20, [x19, #8]
  401410:	17ffffd4 	b	401360 <plural_eval+0x78>
  401414:	b40004f4 	cbz	x20, 4014b0 <plural_eval+0x1c8>
  401418:	d2800034 	mov	x20, #0x1                   	// #1
  40141c:	17ffffd1 	b	401360 <plural_eval+0x78>
  401420:	7100181f 	cmp	w0, #0x6
  401424:	540007e0 	b.eq	401520 <plural_eval+0x238>  // b.none
  401428:	cb150294 	sub	x20, x20, x21
  40142c:	71001c1f 	cmp	w0, #0x7
  401430:	54fffae1 	b.ne	40138c <plural_eval+0xa4>  // b.any
  401434:	aa1403e0 	mov	x0, x20
  401438:	a94153f3 	ldp	x19, x20, [sp, #16]
  40143c:	f94013f5 	ldr	x21, [sp, #32]
  401440:	a8c37bfd 	ldp	x29, x30, [sp], #48
  401444:	d65f03c0 	ret
  401448:	71002c1f 	cmp	w0, #0xb
  40144c:	54000460 	b.eq	4014d8 <plural_eval+0x1f0>  // b.none
  401450:	54000188 	b.hi	401480 <plural_eval+0x198>  // b.pmore
  401454:	7100241f 	cmp	w0, #0x9
  401458:	54000460 	b.eq	4014e4 <plural_eval+0x1fc>  // b.none
  40145c:	eb15029f 	cmp	x20, x21
  401460:	9a9f87f4 	cset	x20, ls  // ls = plast
  401464:	7100281f 	cmp	w0, #0xa
  401468:	54fff921 	b.ne	40138c <plural_eval+0xa4>  // b.any
  40146c:	aa1403e0 	mov	x0, x20
  401470:	a94153f3 	ldp	x19, x20, [sp, #16]
  401474:	f94013f5 	ldr	x21, [sp, #32]
  401478:	a8c37bfd 	ldp	x29, x30, [sp], #48
  40147c:	d65f03c0 	ret
  401480:	7100301f 	cmp	w0, #0xc
  401484:	54000480 	b.eq	401514 <plural_eval+0x22c>  // b.none
  401488:	eb15029f 	cmp	x20, x21
  40148c:	9a9f07f4 	cset	x20, ne  // ne = any
  401490:	7100341f 	cmp	w0, #0xd
  401494:	54fff7c1 	b.ne	40138c <plural_eval+0xa4>  // b.any
  401498:	aa1403e0 	mov	x0, x20
  40149c:	a94153f3 	ldp	x19, x20, [sp, #16]
  4014a0:	f94013f5 	ldr	x21, [sp, #32]
  4014a4:	a8c37bfd 	ldp	x29, x30, [sp], #48
  4014a8:	d65f03c0 	ret
  4014ac:	b4fff5b4 	cbz	x20, 401360 <plural_eval+0x78>
  4014b0:	f9400a60 	ldr	x0, [x19, #16]
  4014b4:	aa1503e1 	mov	x1, x21
  4014b8:	97ffff8c 	bl	4012e8 <plural_eval>
  4014bc:	f100001f 	cmp	x0, #0x0
  4014c0:	9a9f07f4 	cset	x20, ne  // ne = any
  4014c4:	17ffffa7 	b	401360 <plural_eval+0x78>
  4014c8:	52800100 	mov	w0, #0x8                   	// #8
  4014cc:	94000fd7 	bl	405428 <raise>
  4014d0:	9ad50a94 	udiv	x20, x20, x21
  4014d4:	17ffffa3 	b	401360 <plural_eval+0x78>
  4014d8:	eb15029f 	cmp	x20, x21
  4014dc:	9a9f37f4 	cset	x20, cs  // cs = hs, nlast
  4014e0:	17ffffa0 	b	401360 <plural_eval+0x78>
  4014e4:	eb15029f 	cmp	x20, x21
  4014e8:	9a9f97f4 	cset	x20, hi  // hi = pmore
  4014ec:	17ffff9d 	b	401360 <plural_eval+0x78>
  4014f0:	9b157e94 	mul	x20, x20, x21
  4014f4:	17ffff9b 	b	401360 <plural_eval+0x78>
  4014f8:	b4000195 	cbz	x21, 401528 <plural_eval+0x240>
  4014fc:	9ad50a80 	udiv	x0, x20, x21
  401500:	9b15d014 	msub	x20, x0, x21, x20
  401504:	17ffff97 	b	401360 <plural_eval+0x78>
  401508:	eb15029f 	cmp	x20, x21
  40150c:	9a9f27f4 	cset	x20, cc  // cc = lo, ul, last
  401510:	17ffff94 	b	401360 <plural_eval+0x78>
  401514:	eb15029f 	cmp	x20, x21
  401518:	9a9f17f4 	cset	x20, eq  // eq = none
  40151c:	17ffff91 	b	401360 <plural_eval+0x78>
  401520:	8b150294 	add	x20, x20, x21
  401524:	17ffff8f 	b	401360 <plural_eval+0x78>
  401528:	52800100 	mov	w0, #0x8                   	// #8
  40152c:	94000fbf 	bl	405428 <raise>
  401530:	17fffff3 	b	4014fc <plural_eval+0x214>

0000000000401534 <.annobin_plural_eval.end>:
  401534:	d503201f 	nop

0000000000401538 <transcmp>:
  401538:	a9be7bfd 	stp	x29, x30, [sp, #-32]!
  40153c:	910003fd 	mov	x29, sp
  401540:	a90153f3 	stp	x19, x20, [sp, #16]
  401544:	aa0003f4 	mov	x20, x0
  401548:	aa0103f3 	mov	x19, x1
  40154c:	f9401000 	ldr	x0, [x0, #32]
  401550:	b40002e0 	cbz	x0, 4015ac <transcmp+0x74>
  401554:	9100e280 	add	x0, x20, #0x38
  401558:	f9401261 	ldr	x1, [x19, #32]
  40155c:	b4000241 	cbz	x1, 4015a4 <transcmp+0x6c>
  401560:	9100e261 	add	x1, x19, #0x38
  401564:	94004e47 	bl	414e80 <strcmp>
  401568:	35000180 	cbnz	w0, 401598 <transcmp+0x60>
  40156c:	f9400261 	ldr	x1, [x19]
  401570:	f9400280 	ldr	x0, [x20]
  401574:	94004e43 	bl	414e80 <strcmp>
  401578:	35000100 	cbnz	w0, 401598 <transcmp+0x60>
  40157c:	f9400a61 	ldr	x1, [x19, #16]
  401580:	f9400a80 	ldr	x0, [x20, #16]
  401584:	94004e3f 	bl	414e80 <strcmp>
  401588:	35000080 	cbnz	w0, 401598 <transcmp+0x60>
  40158c:	b9400a61 	ldr	w1, [x19, #8]
  401590:	b9400a80 	ldr	w0, [x20, #8]
  401594:	4b010000 	sub	w0, w0, w1
  401598:	a94153f3 	ldp	x19, x20, [sp, #16]
  40159c:	a8c27bfd 	ldp	x29, x30, [sp], #32
  4015a0:	d65f03c0 	ret
  4015a4:	f9401e61 	ldr	x1, [x19, #56]
  4015a8:	17ffffef 	b	401564 <transcmp+0x2c>
  4015ac:	f9401e80 	ldr	x0, [x20, #56]
  4015b0:	17ffffea 	b	401558 <transcmp+0x20>

00000000004015b4 <.annobin_plural_lookup.isra.2.start>:
  4015b4:	d503201f 	nop

00000000004015b8 <plural_lookup.isra.2>:
  4015b8:	a9bd7bfd 	stp	x29, x30, [sp, #-48]!
  4015bc:	910003fd 	mov	x29, sp
  4015c0:	a9025bf5 	stp	x21, x22, [sp, #32]
  4015c4:	aa0003f6 	mov	x22, x0
  4015c8:	aa0203f5 	mov	x21, x2
  4015cc:	f9405c00 	ldr	x0, [x0, #184]
  4015d0:	a90153f3 	stp	x19, x20, [sp, #16]
  4015d4:	aa0303f4 	mov	x20, x3
  4015d8:	97ffff44 	bl	4012e8 <plural_eval>
  4015dc:	aa0003f3 	mov	x19, x0
  4015e0:	f94062c0 	ldr	x0, [x22, #192]
  4015e4:	eb00027f 	cmp	x19, x0
  4015e8:	540001a2 	b.cs	40161c <plural_lookup.isra.2+0x64>  // b.hs, b.nlast
  4015ec:	8b1402b4 	add	x20, x21, x20
  4015f0:	aa1503e2 	mov	x2, x21
  4015f4:	d503201f 	nop
  4015f8:	d1000673 	sub	x19, x19, #0x1
  4015fc:	aa0203e0 	mov	x0, x2
  401600:	52800001 	mov	w1, #0x0                   	// #0
  401604:	b100067f 	cmn	x19, #0x1
  401608:	54000140 	b.eq	401630 <plural_lookup.isra.2+0x78>  // b.none
  40160c:	94005361 	bl	416390 <__rawmemchr>
  401610:	91000402 	add	x2, x0, #0x1
  401614:	eb14005f 	cmp	x2, x20
  401618:	54ffff03 	b.cc	4015f8 <plural_lookup.isra.2+0x40>  // b.lo, b.ul, b.last
  40161c:	aa1503e0 	mov	x0, x21
  401620:	a94153f3 	ldp	x19, x20, [sp, #16]
  401624:	a9425bf5 	ldp	x21, x22, [sp, #32]
  401628:	a8c37bfd 	ldp	x29, x30, [sp], #48
  40162c:	d65f03c0 	ret
  401630:	aa0203f5 	mov	x21, x2
  401634:	17fffffa 	b	40161c <plural_lookup.isra.2+0x64>

0000000000401638 <_nl_find_msg>:
  401638:	a9b27bfd 	stp	x29, x30, [sp, #-224]!
  40163c:	910003fd 	mov	x29, sp
  401640:	a90153f3 	stp	x19, x20, [sp, #16]
  401644:	90000434 	adrp	x20, 485000 <__FRAME_END__+0x103b0>
  401648:	91234285 	add	x5, x20, #0x8d0
  40164c:	fd0033e8 	str	d8, [sp, #96]
  401650:	9e670048 	fmov	d8, x2
  401654:	f94000a2 	ldr	x2, [x5]
  401658:	f9006fa2 	str	x2, [x29, #216]
  40165c:	d2800002 	mov	x2, #0x0                   	// #0
  401660:	a9025bf5 	stp	x21, x22, [sp, #32]
  401664:	b9400802 	ldr	w2, [x0, #8]
  401668:	a90363f7 	stp	x23, x24, [sp, #48]
  40166c:	7100005f 	cmp	w2, #0x0
  401670:	a9046bf9 	stp	x25, x26, [sp, #64]
  401674:	a90573fb 	stp	x27, x28, [sp, #80]
  401678:	a90813a1 	stp	x1, x4, [x29, #128]
  40167c:	b90093a3 	str	w3, [x29, #144]
  401680:	a90983a5 	stp	x5, x0, [x29, #152]
  401684:	5400108d 	b.le	401894 <_nl_find_msg+0x25c>
  401688:	f94053a0 	ldr	x0, [x29, #160]
  40168c:	f940081b 	ldr	x27, [x0, #16]
  401690:	b4000d5b 	cbz	x27, 401838 <_nl_find_msg+0x200>
  401694:	f9403360 	ldr	x0, [x27, #96]
  401698:	b9402b73 	ldr	w19, [x27, #40]
  40169c:	b40009a0 	cbz	x0, 4017d0 <_nl_find_msg+0x198>
  4016a0:	9e660100 	fmov	x0, d8
  4016a4:	94004f17 	bl	415300 <__strlen>
  4016a8:	aa0003f8 	mov	x24, x0
  4016ac:	9e660100 	fmov	x0, d8
  4016b0:	94000f1e 	bl	405328 <__hash_string>
  4016b4:	b9406b74 	ldr	w20, [x27, #104]
  4016b8:	b9405b62 	ldr	w2, [x27, #88]
  4016bc:	b900abb8 	str	w24, [x29, #168]
  4016c0:	92407f18 	and	x24, x24, #0xffffffff
  4016c4:	51000841 	sub	w1, w2, #0x2
  4016c8:	f9403375 	ldr	x21, [x27, #96]
  4016cc:	1ac10803 	udiv	w3, w0, w1
  4016d0:	1ac2081c 	udiv	w28, w0, w2
  4016d4:	1b018063 	msub	w3, w3, w1, w0
  4016d8:	1100047a 	add	w26, w3, #0x1
  4016dc:	1b02839c 	msub	w28, w28, w2, w0
  4016e0:	4b1a0059 	sub	w25, w2, w26
  4016e4:	4b020357 	sub	w23, w26, w2
  4016e8:	14000016 	b	401740 <_nl_find_msg+0x108>
  4016ec:	b9401b68 	ldr	w8, [x27, #24]
  4016f0:	d37df2c0 	lsl	x0, x22, #3
  4016f4:	f9401b61 	ldr	x1, [x27, #48]
  4016f8:	8b000029 	add	x9, x1, x0
  4016fc:	b8606820 	ldr	w0, [x1, x0]
  401700:	34000be8 	cbz	w8, 40187c <_nl_find_msg+0x244>
  401704:	b940aba1 	ldr	w1, [x29, #168]
  401708:	5ac00800 	rev	w0, w0
  40170c:	6b00003f 	cmp	w1, w0
  401710:	54000108 	b.hi	401730 <_nl_find_msg+0xf8>  // b.pmore
  401714:	b9400520 	ldr	w0, [x9, #4]
  401718:	f9400361 	ldr	x1, [x27]
  40171c:	5ac00800 	rev	w0, w0
  401720:	8b000021 	add	x1, x1, x0
  401724:	9e660100 	fmov	x0, d8
  401728:	94004dd6 	bl	414e80 <strcmp>
  40172c:	34000300 	cbz	w0, 40178c <_nl_find_msg+0x154>
  401730:	6b1c033f 	cmp	w25, w28
  401734:	0b170380 	add	w0, w28, w23
  401738:	0b1a039c 	add	w28, w28, w26
  40173c:	1a80839c 	csel	w28, w28, w0, hi  // hi = pmore
  401740:	b87c5aa1 	ldr	w1, [x21, w28, uxtw #2]
  401744:	7100029f 	cmp	w20, #0x0
  401748:	5ac00820 	rev	w0, w1
  40174c:	1a811001 	csel	w1, w0, w1, ne  // ne = any
  401750:	34000741 	cbz	w1, 401838 <_nl_find_msg+0x200>
  401754:	51000436 	sub	w22, w1, #0x1
  401758:	6b16027f 	cmp	w19, w22
  40175c:	54fffc88 	b.hi	4016ec <_nl_find_msg+0xb4>  // b.pmore
  401760:	4b1302c0 	sub	w0, w22, w19
  401764:	f9402761 	ldr	x1, [x27, #72]
  401768:	d37cec00 	lsl	x0, x0, #4
  40176c:	8b000028 	add	x8, x1, x0
  401770:	f8606820 	ldr	x0, [x1, x0]
  401774:	eb18001f 	cmp	x0, x24
  401778:	54fffdc9 	b.ls	401730 <_nl_find_msg+0xf8>  // b.plast
  40177c:	9e660100 	fmov	x0, d8
  401780:	f9400501 	ldr	x1, [x8, #8]
  401784:	94004dbf 	bl	414e80 <strcmp>
  401788:	35fffd40 	cbnz	w0, 401730 <_nl_find_msg+0xf8>
  40178c:	aa1603fa 	mov	x26, x22
  401790:	2a1303f4 	mov	w20, w19
  401794:	eb14035f 	cmp	x26, x20
  401798:	54000823 	b.cc	40189c <_nl_find_msg+0x264>  // b.lo, b.ul, b.last
  40179c:	cb14035c 	sub	x28, x26, x20
  4017a0:	f9402b60 	ldr	x0, [x27, #80]
  4017a4:	d37cef9c 	lsl	x28, x28, #4
  4017a8:	8b1c0001 	add	x1, x0, x28
  4017ac:	f87c6800 	ldr	x0, [x0, x28]
  4017b0:	f90057a0 	str	x0, [x29, #168]
  4017b4:	f9400436 	ldr	x22, [x1, #8]
  4017b8:	b94093a0 	ldr	w0, [x29, #144]
  4017bc:	350008c0 	cbnz	w0, 4018d4 <_nl_find_msg+0x29c>
  4017c0:	f94047a0 	ldr	x0, [x29, #136]
  4017c4:	f94057a1 	ldr	x1, [x29, #168]
  4017c8:	f9000001 	str	x1, [x0]
  4017cc:	1400001c 	b	40183c <_nl_find_msg+0x204>
  4017d0:	2a1303f4 	mov	w20, w19
  4017d4:	d280001c 	mov	x28, #0x0                   	// #0
  4017d8:	aa1403f7 	mov	x23, x20
  4017dc:	14000003 	b	4017e8 <_nl_find_msg+0x1b0>
  4017e0:	54fffda0 	b.eq	401794 <_nl_find_msg+0x15c>  // b.none
  4017e4:	9100075c 	add	x28, x26, #0x1
  4017e8:	eb1c02ff 	cmp	x23, x28
  4017ec:	54000269 	b.ls	401838 <_nl_find_msg+0x200>  // b.plast
  4017f0:	b9401b78 	ldr	w24, [x27, #24]
  4017f4:	f9400379 	ldr	x25, [x27]
  4017f8:	f9401b76 	ldr	x22, [x27, #48]
  4017fc:	8b170386 	add	x6, x28, x23
  401800:	9e660100 	fmov	x0, d8
  401804:	7100031f 	cmp	w24, #0x0
  401808:	d341fcda 	lsr	x26, x6, #1
  40180c:	8b1a0ec1 	add	x1, x22, x26, lsl #3
  401810:	b9400421 	ldr	w1, [x1, #4]
  401814:	5ac00824 	rev	w4, w1
  401818:	1a840021 	csel	w1, w1, w4, eq  // eq = none
  40181c:	8b010321 	add	x1, x25, x1
  401820:	94004d98 	bl	414e80 <strcmp>
  401824:	7100001f 	cmp	w0, #0x0
  401828:	54fffdca 	b.ge	4017e0 <_nl_find_msg+0x1a8>  // b.tcont
  40182c:	aa1a03f7 	mov	x23, x26
  401830:	eb1a039f 	cmp	x28, x26
  401834:	54fffe43 	b.cc	4017fc <_nl_find_msg+0x1c4>  // b.lo, b.ul, b.last
  401838:	d2800016 	mov	x22, #0x0                   	// #0
  40183c:	f9404fa1 	ldr	x1, [x29, #152]
  401840:	aa1603e0 	mov	x0, x22
  401844:	f9406fa2 	ldr	x2, [x29, #216]
  401848:	f9400023 	ldr	x3, [x1]
  40184c:	eb030042 	subs	x2, x2, x3
  401850:	d2800003 	mov	x3, #0x0                   	// #0
  401854:	54003301 	b.ne	401eb4 <_nl_find_msg+0x87c>  // b.any
  401858:	910003bf 	mov	sp, x29
  40185c:	a94153f3 	ldp	x19, x20, [sp, #16]
  401860:	a9425bf5 	ldp	x21, x22, [sp, #32]
  401864:	a94363f7 	ldp	x23, x24, [sp, #48]
  401868:	a9446bf9 	ldp	x25, x26, [sp, #64]
  40186c:	a94573fb 	ldp	x27, x28, [sp, #80]
  401870:	fd4033e8 	ldr	d8, [sp, #96]
  401874:	a8ce7bfd 	ldp	x29, x30, [sp], #224
  401878:	d65f03c0 	ret
  40187c:	b940aba1 	ldr	w1, [x29, #168]
  401880:	6b00003f 	cmp	w1, w0
  401884:	54fff568 	b.hi	401730 <_nl_find_msg+0xf8>  // b.pmore
  401888:	b9400520 	ldr	w0, [x9, #4]
  40188c:	f9400361 	ldr	x1, [x27]
  401890:	17ffffa4 	b	401720 <_nl_find_msg+0xe8>
  401894:	94000403 	bl	4028a0 <_nl_load_domain>
  401898:	17ffff7c 	b	401688 <_nl_find_msg+0x50>
  40189c:	f9401f61 	ldr	x1, [x27, #56]
  4018a0:	d37df340 	lsl	x0, x26, #3
  4018a4:	b9401b62 	ldr	w2, [x27, #24]
  4018a8:	8b000023 	add	x3, x1, x0
  4018ac:	b8606839 	ldr	w25, [x1, x0]
  4018b0:	f9400376 	ldr	x22, [x27]
  4018b4:	b9400460 	ldr	w0, [x3, #4]
  4018b8:	340007e2 	cbz	w2, 4019b4 <_nl_find_msg+0x37c>
  4018bc:	5ac00800 	rev	w0, w0
  4018c0:	5ac00b39 	rev	w25, w25
  4018c4:	8b0002d6 	add	x22, x22, x0
  4018c8:	11000720 	add	w0, w25, #0x1
  4018cc:	f90057a0 	str	x0, [x29, #168]
  4018d0:	17ffffba 	b	4017b8 <_nl_find_msg+0x180>
  4018d4:	f94043a0 	ldr	x0, [x29, #128]
  4018d8:	b4000540 	cbz	x0, 401980 <_nl_find_msg+0x348>
  4018dc:	f9400817 	ldr	x23, [x0, #16]
  4018e0:	b4000517 	cbz	x23, 401980 <_nl_find_msg+0x348>
  4018e4:	f0000260 	adrp	x0, 450000 <free_mem+0x48>
  4018e8:	f9429400 	ldr	x0, [x0, #1320]
  4018ec:	b4000060 	cbz	x0, 4018f8 <_nl_find_msg+0x2c0>
  4018f0:	91020360 	add	x0, x27, #0x80
  4018f4:	d503201f 	nop
  4018f8:	f9403f79 	ldr	x25, [x27, #120]
  4018fc:	b4000659 	cbz	x25, 4019c4 <_nl_find_msg+0x38c>
  401900:	8b190720 	add	x0, x25, x25, lsl #1
  401904:	f9403b7c 	ldr	x28, [x27, #112]
  401908:	d37df000 	lsl	x0, x0, #3
  40190c:	d1006000 	sub	x0, x0, #0x18
  401910:	8b00039c 	add	x28, x28, x0
  401914:	14000003 	b	401920 <_nl_find_msg+0x2e8>
  401918:	d100639c 	sub	x28, x28, #0x18
  40191c:	b4000559 	cbz	x25, 4019c4 <_nl_find_msg+0x38c>
  401920:	f9400380 	ldr	x0, [x28]
  401924:	d1000739 	sub	x25, x25, #0x1
  401928:	aa1c03f8 	mov	x24, x28
  40192c:	aa1703e1 	mov	x1, x23
  401930:	94004d54 	bl	414e80 <strcmp>
  401934:	35ffff20 	cbnz	w0, 401918 <_nl_find_msg+0x2e0>
  401938:	f0000260 	adrp	x0, 450000 <free_mem+0x48>
  40193c:	f9429c00 	ldr	x0, [x0, #1336]
  401940:	b4000060 	cbz	x0, 40194c <_nl_find_msg+0x314>
  401944:	91020360 	add	x0, x27, #0x80
  401948:	d503201f 	nop
  40194c:	f9400700 	ldr	x0, [x24, #8]
  401950:	b100041f 	cmn	x0, #0x1
  401954:	54fff360 	b.eq	4017c0 <_nl_find_msg+0x188>  // b.none
  401958:	f9400b00 	ldr	x0, [x24, #16]
  40195c:	b4001e80 	cbz	x0, 401d2c <_nl_find_msg+0x6f4>
  401960:	b100041f 	cmn	x0, #0x1
  401964:	54001e00 	b.eq	401d24 <_nl_find_msg+0x6ec>  // b.none
  401968:	f87a7800 	ldr	x0, [x0, x26, lsl #3]
  40196c:	b40009a0 	cbz	x0, 401aa0 <_nl_find_msg+0x468>
  401970:	aa0003f6 	mov	x22, x0
  401974:	f84086c0 	ldr	x0, [x22], #8
  401978:	f90057a0 	str	x0, [x29, #168]
  40197c:	17ffff91 	b	4017c0 <_nl_find_msg+0x188>
  401980:	d000073c 	adrp	x28, 4e7000 <A+0x1f5e0>
  401984:	9138c39c 	add	x28, x28, #0xe30
  401988:	b9401380 	ldr	w0, [x28, #16]
  40198c:	340005c0 	cbz	w0, 401a44 <_nl_find_msg+0x40c>
  401990:	f9400f97 	ldr	x23, [x28, #24]
  401994:	b5fffa97 	cbnz	x23, 4018e4 <_nl_find_msg+0x2ac>
  401998:	90000420 	adrp	x0, 485000 <__FRAME_END__+0x103b0>
  40199c:	f947bc00 	ldr	x0, [x0, #3960]
  4019a0:	d53bd041 	mrs	x1, tpidr_el0
  4019a4:	f8606820 	ldr	x0, [x1, x0]
  4019a8:	f9400000 	ldr	x0, [x0]
  4019ac:	f9405817 	ldr	x23, [x0, #176]
  4019b0:	17ffffcd 	b	4018e4 <_nl_find_msg+0x2ac>
  4019b4:	8b2042d6 	add	x22, x22, w0, uxtw
  4019b8:	11000720 	add	w0, w25, #0x1
  4019bc:	f90057a0 	str	x0, [x29, #168]
  4019c0:	17ffff7e 	b	4017b8 <_nl_find_msg+0x180>
  4019c4:	f0000260 	adrp	x0, 450000 <free_mem+0x48>
  4019c8:	f9429c00 	ldr	x0, [x0, #1336]
  4019cc:	aa0003f9 	mov	x25, x0
  4019d0:	b4000060 	cbz	x0, 4019dc <_nl_find_msg+0x3a4>
  4019d4:	91020360 	add	x0, x27, #0x80
  4019d8:	d503201f 	nop
  4019dc:	f0000260 	adrp	x0, 450000 <free_mem+0x48>
  4019e0:	f9429800 	ldr	x0, [x0, #1328]
  4019e4:	b4000060 	cbz	x0, 4019f0 <_nl_find_msg+0x3b8>
  4019e8:	91020360 	add	x0, x27, #0x80
  4019ec:	d503201f 	nop
  4019f0:	a9475360 	ldp	x0, x20, [x27, #112]
  4019f4:	aa0003f5 	mov	x21, x0
  4019f8:	b4000c94 	cbz	x20, 401b88 <_nl_find_msg+0x550>
  4019fc:	8b140682 	add	x2, x20, x20, lsl #1
  401a00:	aa1403e3 	mov	x3, x20
  401a04:	8b020c02 	add	x2, x0, x2, lsl #3
  401a08:	d100605c 	sub	x28, x2, #0x18
  401a0c:	14000004 	b	401a1c <_nl_find_msg+0x3e4>
  401a10:	f9404ba3 	ldr	x3, [x29, #144]
  401a14:	d100639c 	sub	x28, x28, #0x18
  401a18:	b4000b83 	cbz	x3, 401b88 <_nl_find_msg+0x550>
  401a1c:	f9400380 	ldr	x0, [x28]
  401a20:	d1000463 	sub	x3, x3, #0x1
  401a24:	aa1c03f8 	mov	x24, x28
  401a28:	aa1703e1 	mov	x1, x23
  401a2c:	f9003fa3 	str	x3, [x29, #120]
  401a30:	f9004ba3 	str	x3, [x29, #144]
  401a34:	94004d13 	bl	414e80 <strcmp>
  401a38:	35fffec0 	cbnz	w0, 401a10 <_nl_find_msg+0x3d8>
  401a3c:	b5fff859 	cbnz	x25, 401944 <_nl_find_msg+0x30c>
  401a40:	17ffffc3 	b	40194c <_nl_find_msg+0x314>
  401a44:	f0000260 	adrp	x0, 450000 <free_mem+0x48>
  401a48:	91150000 	add	x0, x0, #0x540
  401a4c:	9400106b 	bl	405bf8 <getenv>
  401a50:	aa0003f8 	mov	x24, x0
  401a54:	b4000060 	cbz	x0, 401a60 <_nl_find_msg+0x428>
  401a58:	39400001 	ldrb	w1, [x0]
  401a5c:	350000c1 	cbnz	w1, 401a74 <_nl_find_msg+0x43c>
  401a60:	f9400f97 	ldr	x23, [x28, #24]
  401a64:	52800020 	mov	w0, #0x1                   	// #1
  401a68:	b9001380 	str	w0, [x28, #16]
  401a6c:	b5fff3d7 	cbnz	x23, 4018e4 <_nl_find_msg+0x2ac>
  401a70:	17ffffca 	b	401998 <_nl_find_msg+0x360>
  401a74:	94004e23 	bl	415300 <__strlen>
  401a78:	91000419 	add	x25, x0, #0x1
  401a7c:	aa1903e0 	mov	x0, x25
  401a80:	94004648 	bl	4133a0 <__libc_malloc>
  401a84:	aa0003f7 	mov	x23, x0
  401a88:	b4000080 	cbz	x0, 401a98 <_nl_find_msg+0x460>
  401a8c:	aa1903e2 	mov	x2, x25
  401a90:	aa1803e1 	mov	x1, x24
  401a94:	97fff9e3 	bl	400220 <.plt+0x10>
  401a98:	f9000f97 	str	x23, [x28, #24]
  401a9c:	17fffff2 	b	401a64 <_nl_find_msg+0x42c>
  401aa0:	d000073c 	adrp	x28, 4e7000 <A+0x1f5e0>
  401aa4:	9138c39c 	add	x28, x28, #0xe30
  401aa8:	91008393 	add	x19, x28, #0x20
  401aac:	52800021 	mov	w1, #0x1                   	// #1
  401ab0:	aa1303e2 	mov	x2, x19
  401ab4:	9401227b 	bl	44a4a0 <__aarch64_cas4_acq>
  401ab8:	35001bc0 	cbnz	w0, 401e30 <_nl_find_msg+0x7f8>
  401abc:	a9428780 	ldp	x0, x1, [x28, #40]
  401ac0:	52800017 	mov	w23, #0x0                   	// #0
  401ac4:	d281fe15 	mov	x21, #0xff0                 	// #4080
  401ac8:	91002000 	add	x0, x0, #0x8
  401acc:	a90b03b6 	stp	x22, x0, [x29, #176]
  401ad0:	f1001c3f 	cmp	x1, #0x7
  401ad4:	54000209 	b.ls	401b14 <_nl_find_msg+0x4dc>  // b.plast
  401ad8:	d1002024 	sub	x4, x1, #0x8
  401adc:	910303a5 	add	x5, x29, #0xc0
  401ae0:	a94a8ba1 	ldp	x1, x2, [x29, #168]
  401ae4:	9102e3a3 	add	x3, x29, #0xb8
  401ae8:	f9400700 	ldr	x0, [x24, #8]
  401aec:	f9405fa7 	ldr	x7, [x29, #184]
  401af0:	8b010042 	add	x2, x2, x1
  401af4:	9102c3a1 	add	x1, x29, #0xb0
  401af8:	8b0400e4 	add	x4, x7, x4
  401afc:	94006c8d 	bl	41cd30 <__gconv>
  401b00:	721d781f 	tst	w0, #0xfffffffb
  401b04:	54001580 	b.eq	401db4 <_nl_find_msg+0x77c>  // b.none
  401b08:	7100141f 	cmp	w0, #0x5
  401b0c:	54001801 	b.ne	401e0c <_nl_find_msg+0x7d4>  // b.any
  401b10:	f9005bb6 	str	x22, [x29, #176]
  401b14:	34000277 	cbz	w23, 401b60 <_nl_find_msg+0x528>
  401b18:	110006f7 	add	w23, w23, #0x1
  401b1c:	f940079b 	ldr	x27, [x28, #8]
  401b20:	53185ee1 	lsl	w1, w23, #8
  401b24:	4b170021 	sub	w1, w1, w23
  401b28:	aa1b03e0 	mov	x0, x27
  401b2c:	531c6c21 	lsl	w1, w1, #4
  401b30:	93407c33 	sxtw	x19, w1
  401b34:	f9001b93 	str	x19, [x28, #48]
  401b38:	aa1303e1 	mov	x1, x19
  401b3c:	9400483f 	bl	413c38 <__libc_realloc>
  401b40:	b4000cc0 	cbz	x0, 401cd8 <_nl_find_msg+0x6a0>
  401b44:	d1002261 	sub	x1, x19, #0x8
  401b48:	f9000780 	str	x0, [x28, #8]
  401b4c:	91002002 	add	x2, x0, #0x8
  401b50:	91004000 	add	x0, x0, #0x10
  401b54:	a9028782 	stp	x2, x1, [x28, #40]
  401b58:	f9005fa0 	str	x0, [x29, #184]
  401b5c:	17ffffdd 	b	401ad0 <_nl_find_msg+0x498>
  401b60:	d281fe00 	mov	x0, #0xff0                 	// #4080
  401b64:	f9001b95 	str	x21, [x28, #48]
  401b68:	9400460e 	bl	4133a0 <__libc_malloc>
  401b6c:	b4000be0 	cbz	x0, 401ce8 <_nl_find_msg+0x6b0>
  401b70:	f9400782 	ldr	x2, [x28, #8]
  401b74:	d281fd01 	mov	x1, #0xfe8                 	// #4072
  401b78:	52800037 	mov	w23, #0x1                   	// #1
  401b7c:	f9000002 	str	x2, [x0]
  401b80:	f9000780 	str	x0, [x28, #8]
  401b84:	17fffff2 	b	401b4c <_nl_find_msg+0x514>
  401b88:	9100069c 	add	x28, x20, #0x1
  401b8c:	aa1503e0 	mov	x0, x21
  401b90:	8b1c079c 	add	x28, x28, x28, lsl #1
  401b94:	d37df398 	lsl	x24, x28, #3
  401b98:	b4000fd5 	cbz	x21, 401d90 <_nl_find_msg+0x758>
  401b9c:	aa1803e1 	mov	x1, x24
  401ba0:	94004826 	bl	413c38 <__libc_realloc>
  401ba4:	aa0003fc 	mov	x28, x0
  401ba8:	b4000fdc 	cbz	x28, 401da0 <_nl_find_msg+0x768>
  401bac:	f9003b7c 	str	x28, [x27, #112]
  401bb0:	aa1703e0 	mov	x0, x23
  401bb4:	94004db9 	bl	415298 <__strdup>
  401bb8:	aa0003f7 	mov	x23, x0
  401bbc:	b4000f20 	cbz	x0, 401da0 <_nl_find_msg+0x768>
  401bc0:	d1006303 	sub	x3, x24, #0x18
  401bc4:	92800004 	mov	x4, #0xffffffffffffffff    	// #-1
  401bc8:	8b030398 	add	x24, x28, x3
  401bcc:	f00002e2 	adrp	x2, 460000 <translit_from_idx+0x1030>
  401bd0:	f94043a1 	ldr	x1, [x29, #128]
  401bd4:	f8236b80 	str	x0, [x28, x3]
  401bd8:	f94053a0 	ldr	x0, [x29, #160]
  401bdc:	f9000704 	str	x4, [x24, #8]
  401be0:	91396042 	add	x2, x2, #0xe58
  401be4:	52800003 	mov	w3, #0x0                   	// #0
  401be8:	9102e3a4 	add	x4, x29, #0xb8
  401bec:	97fffe93 	bl	401638 <_nl_find_msg>
  401bf0:	aa0003e1 	mov	x1, x0
  401bf4:	b100041f 	cmn	x0, #0x1
  401bf8:	54001400 	b.eq	401e78 <_nl_find_msg+0x840>  // b.none
  401bfc:	b4000620 	cbz	x0, 401cc0 <_nl_find_msg+0x688>
  401c00:	f0000261 	adrp	x1, 450000 <free_mem+0x48>
  401c04:	91154021 	add	x1, x1, #0x550
  401c08:	94004fb2 	bl	415ad0 <strstr>
  401c0c:	b40005a0 	cbz	x0, 401cc0 <_nl_find_msg+0x688>
  401c10:	91002015 	add	x21, x0, #0x8
  401c14:	f0000261 	adrp	x1, 450000 <free_mem+0x48>
  401c18:	91158021 	add	x1, x1, #0x560
  401c1c:	aa1503e0 	mov	x0, x21
  401c20:	94004d46 	bl	415138 <strcspn>
  401c24:	91004001 	add	x1, x0, #0x10
  401c28:	927cec21 	and	x1, x1, #0xfffffffffffffff0
  401c2c:	910003e2 	mov	x2, sp
  401c30:	9274cc23 	and	x3, x1, #0xfffffffffffff000
  401c34:	cb2363e3 	sub	x3, sp, x3
  401c38:	eb03005f 	cmp	x2, x3
  401c3c:	540000c0 	b.eq	401c54 <_nl_find_msg+0x61c>  // b.none
  401c40:	d14007ff 	sub	sp, sp, #0x1, lsl #12
  401c44:	910003e2 	mov	x2, sp
  401c48:	eb03005f 	cmp	x2, x3
  401c4c:	f907ffff 	str	xzr, [sp, #4088]
  401c50:	54ffff81 	b.ne	401c40 <_nl_find_msg+0x608>  // b.any
  401c54:	f2402c23 	ands	x3, x1, #0xfff
  401c58:	54000080 	b.eq	401c68 <_nl_find_msg+0x630>  // b.none
  401c5c:	cb2363ff 	sub	sp, sp, x3
  401c60:	d1002063 	sub	x3, x3, #0x8
  401c64:	f8236bff 	str	xzr, [sp, x3]
  401c68:	b4000041 	cbz	x1, 401c70 <_nl_find_msg+0x638>
  401c6c:	f90003ff 	str	xzr, [sp]
  401c70:	910003f4 	mov	x20, sp
  401c74:	aa0003e2 	mov	x2, x0
  401c78:	aa1503e1 	mov	x1, x21
  401c7c:	aa1403e0 	mov	x0, x20
  401c80:	940050e8 	bl	416020 <__mempcpy>
  401c84:	3900001f 	strb	wzr, [x0]
  401c88:	aa1403e1 	mov	x1, x20
  401c8c:	aa1703e2 	mov	x2, x23
  401c90:	910303a0 	add	x0, x29, #0xc0
  401c94:	94008bdb 	bl	424c00 <__gconv_create_spec>
  401c98:	52800023 	mov	w3, #0x1                   	// #1
  401c9c:	91002301 	add	x1, x24, #0x8
  401ca0:	52800022 	mov	w2, #0x1                   	// #1
  401ca4:	910303a0 	add	x0, x29, #0xc0
  401ca8:	390343a3 	strb	w3, [x29, #208]
  401cac:	94006b39 	bl	41c990 <__gconv_open>
  401cb0:	2a0003f5 	mov	w21, w0
  401cb4:	910303a0 	add	x0, x29, #0xc0
  401cb8:	94008c80 	bl	424eb8 <__gconv_destroy_spec>
  401cbc:	35000cf5 	cbnz	w21, 401e58 <_nl_find_msg+0x820>
  401cc0:	f9403f60 	ldr	x0, [x27, #120]
  401cc4:	f9000b1f 	str	xzr, [x24, #16]
  401cc8:	91000400 	add	x0, x0, #0x1
  401ccc:	f9003f60 	str	x0, [x27, #120]
  401cd0:	b5ffe3b9 	cbnz	x25, 401944 <_nl_find_msg+0x30c>
  401cd4:	17ffff1e 	b	40194c <_nl_find_msg+0x314>
  401cd8:	f9400361 	ldr	x1, [x27]
  401cdc:	aa1b03e0 	mov	x0, x27
  401ce0:	f9000781 	str	x1, [x28, #8]
  401ce4:	94004743 	bl	4139f0 <__free>
  401ce8:	a902ff9f 	stp	xzr, xzr, [x28, #40]
  401cec:	91008393 	add	x19, x28, #0x20
  401cf0:	aa1303e1 	mov	x1, x19
  401cf4:	52800000 	mov	w0, #0x0                   	// #0
  401cf8:	92800016 	mov	x22, #0xffffffffffffffff    	// #-1
  401cfc:	94012255 	bl	44a650 <__aarch64_swp4_rel>
  401d00:	7100041f 	cmp	w0, #0x1
  401d04:	54ffd9cd 	b.le	40183c <_nl_find_msg+0x204>
  401d08:	aa1303e0 	mov	x0, x19
  401d0c:	d2801021 	mov	x1, #0x81                  	// #129
  401d10:	d2800022 	mov	x2, #0x1                   	// #1
  401d14:	d2800003 	mov	x3, #0x0                   	// #0
  401d18:	d2800c48 	mov	x8, #0x62                  	// #98
  401d1c:	d4000001 	svc	#0x0
  401d20:	17fffec7 	b	40183c <_nl_find_msg+0x204>
  401d24:	92800016 	mov	x22, #0xffffffffffffffff    	// #-1
  401d28:	17fffec5 	b	40183c <_nl_find_msg+0x204>
  401d2c:	d000073c 	adrp	x28, 4e7000 <A+0x1f5e0>
  401d30:	9138c39c 	add	x28, x28, #0xe30
  401d34:	91008395 	add	x21, x28, #0x20
  401d38:	52800021 	mov	w1, #0x1                   	// #1
  401d3c:	aa1503e2 	mov	x2, x21
  401d40:	940121d8 	bl	44a4a0 <__aarch64_cas4_acq>
  401d44:	350009e0 	cbnz	w0, 401e80 <_nl_find_msg+0x848>
  401d48:	f9400b00 	ldr	x0, [x24, #16]
  401d4c:	b4000780 	cbz	x0, 401e3c <_nl_find_msg+0x804>
  401d50:	9100839c 	add	x28, x28, #0x20
  401d54:	52800000 	mov	w0, #0x0                   	// #0
  401d58:	aa1c03e1 	mov	x1, x28
  401d5c:	9401223d 	bl	44a650 <__aarch64_swp4_rel>
  401d60:	7100041f 	cmp	w0, #0x1
  401d64:	5400006c 	b.gt	401d70 <_nl_find_msg+0x738>
  401d68:	f9400b00 	ldr	x0, [x24, #16]
  401d6c:	17fffefd 	b	401960 <_nl_find_msg+0x328>
  401d70:	aa1c03e0 	mov	x0, x28
  401d74:	d2801021 	mov	x1, #0x81                  	// #129
  401d78:	d2800022 	mov	x2, #0x1                   	// #1
  401d7c:	d2800003 	mov	x3, #0x0                   	// #0
  401d80:	d2800c48 	mov	x8, #0x62                  	// #98
  401d84:	d4000001 	svc	#0x0
  401d88:	f9400b00 	ldr	x0, [x24, #16]
  401d8c:	17fffef5 	b	401960 <_nl_find_msg+0x328>
  401d90:	aa1803e0 	mov	x0, x24
  401d94:	94004583 	bl	4133a0 <__libc_malloc>
  401d98:	aa0003fc 	mov	x28, x0
  401d9c:	17ffff83 	b	401ba8 <_nl_find_msg+0x570>
  401da0:	b4fffc39 	cbz	x25, 401d24 <_nl_find_msg+0x6ec>
  401da4:	91020360 	add	x0, x27, #0x80
  401da8:	92800016 	mov	x22, #0xffffffffffffffff    	// #-1
  401dac:	d503201f 	nop
  401db0:	17fffea3 	b	40183c <_nl_find_msg+0x204>
  401db4:	a9428383 	ldp	x3, x0, [x28, #40]
  401db8:	91008393 	add	x19, x28, #0x20
  401dbc:	f9405fa1 	ldr	x1, [x29, #184]
  401dc0:	d37df355 	lsl	x21, x26, #3
  401dc4:	f9400b04 	ldr	x4, [x24, #16]
  401dc8:	cb030022 	sub	x2, x1, x3
  401dcc:	cb020000 	sub	x0, x0, x2
  401dd0:	d1002042 	sub	x2, x2, #0x8
  401dd4:	92400805 	and	x5, x0, #0x7
  401dd8:	f9000062 	str	x2, [x3]
  401ddc:	8b050021 	add	x1, x1, x5
  401de0:	927df000 	and	x0, x0, #0xfffffffffffffff8
  401de4:	f83a7883 	str	x3, [x4, x26, lsl #3]
  401de8:	a9028381 	stp	x1, x0, [x28, #40]
  401dec:	aa1303e1 	mov	x1, x19
  401df0:	52800000 	mov	w0, #0x0                   	// #0
  401df4:	94012217 	bl	44a650 <__aarch64_swp4_rel>
  401df8:	7100041f 	cmp	w0, #0x1
  401dfc:	540004ec 	b.gt	401e98 <_nl_find_msg+0x860>
  401e00:	f9400b00 	ldr	x0, [x24, #16]
  401e04:	f8756800 	ldr	x0, [x0, x21]
  401e08:	17fffeda 	b	401970 <_nl_find_msg+0x338>
  401e0c:	9100839c 	add	x28, x28, #0x20
  401e10:	52800000 	mov	w0, #0x0                   	// #0
  401e14:	aa1c03e1 	mov	x1, x28
  401e18:	d2800016 	mov	x22, #0x0                   	// #0
  401e1c:	9401220d 	bl	44a650 <__aarch64_swp4_rel>
  401e20:	7100041f 	cmp	w0, #0x1
  401e24:	54ffd0cd 	b.le	40183c <_nl_find_msg+0x204>
  401e28:	aa1c03e0 	mov	x0, x28
  401e2c:	17ffffb8 	b	401d0c <_nl_find_msg+0x6d4>
  401e30:	aa1303e0 	mov	x0, x19
  401e34:	94003353 	bl	40eb80 <__lll_lock_wait_private>
  401e38:	17ffff21 	b	401abc <_nl_find_msg+0x484>
  401e3c:	b9404360 	ldr	w0, [x27, #64]
  401e40:	d2800101 	mov	x1, #0x8                   	// #8
  401e44:	0b000260 	add	w0, w19, w0
  401e48:	940048a4 	bl	4140d8 <__calloc>
  401e4c:	b4000200 	cbz	x0, 401e8c <_nl_find_msg+0x854>
  401e50:	f9000b00 	str	x0, [x24, #16]
  401e54:	17ffff1a 	b	401abc <_nl_find_msg+0x484>
  401e58:	310006bf 	cmn	w21, #0x1
  401e5c:	540002e0 	b.eq	401eb8 <_nl_find_msg+0x880>  // b.none
  401e60:	b4000079 	cbz	x25, 401e6c <_nl_find_msg+0x834>
  401e64:	91020360 	add	x0, x27, #0x80
  401e68:	d503201f 	nop
  401e6c:	aa1703e0 	mov	x0, x23
  401e70:	940046e0 	bl	4139f0 <__free>
  401e74:	d2800001 	mov	x1, #0x0                   	// #0
  401e78:	aa0103f6 	mov	x22, x1
  401e7c:	17fffe70 	b	40183c <_nl_find_msg+0x204>
  401e80:	aa1503e0 	mov	x0, x21
  401e84:	9400333f 	bl	40eb80 <__lll_lock_wait_private>
  401e88:	17ffffb0 	b	401d48 <_nl_find_msg+0x710>
  401e8c:	92800000 	mov	x0, #0xffffffffffffffff    	// #-1
  401e90:	f9000b00 	str	x0, [x24, #16]
  401e94:	17ffffaf 	b	401d50 <_nl_find_msg+0x718>
  401e98:	aa1303e0 	mov	x0, x19
  401e9c:	d2801021 	mov	x1, #0x81                  	// #129
  401ea0:	d2800022 	mov	x2, #0x1                   	// #1
  401ea4:	d2800003 	mov	x3, #0x0                   	// #0
  401ea8:	d2800c48 	mov	x8, #0x62                  	// #98
  401eac:	d4000001 	svc	#0x0
  401eb0:	17ffffd4 	b	401e00 <_nl_find_msg+0x7c8>
  401eb4:	940061d5 	bl	41a608 <__stack_chk_fail>
  401eb8:	92800000 	mov	x0, #0xffffffffffffffff    	// #-1
  401ebc:	f9000700 	str	x0, [x24, #8]
  401ec0:	17ffff80 	b	401cc0 <_nl_find_msg+0x688>

0000000000401ec4 <.annobin___dcigettext.start>:
  401ec4:	d503201f 	nop

0000000000401ec8 <__dcigettext>:
  401ec8:	a9ab7bfd 	stp	x29, x30, [sp, #-336]!
  401ecc:	90000426 	adrp	x6, 485000 <__FRAME_END__+0x103b0>
  401ed0:	912340c6 	add	x6, x6, #0x8d0
  401ed4:	910003fd 	mov	x29, sp
  401ed8:	f94000c7 	ldr	x7, [x6]
  401edc:	f900a7a7 	str	x7, [x29, #328]
  401ee0:	d2800007 	mov	x7, #0x0                   	// #0
  401ee4:	a90153f3 	stp	x19, x20, [sp, #16]
  401ee8:	a9025bf5 	stp	x21, x22, [sp, #32]
  401eec:	a90363f7 	stp	x23, x24, [sp, #48]
  401ef0:	a9046bf9 	stp	x25, x26, [sp, #64]
  401ef4:	a90573fb 	stp	x27, x28, [sp, #80]
  401ef8:	f90063a4 	str	x4, [x29, #192]
  401efc:	b900d7a3 	str	w3, [x29, #212]
  401f00:	f9006fa6 	str	x6, [x29, #216]
  401f04:	f9007fbf 	str	xzr, [x29, #248]
  401f08:	6d0627e8 	stp	d8, d9, [sp, #96]
  401f0c:	b4002aa1 	cbz	x1, 402460 <__dcigettext+0x598>
  401f10:	710030bf 	cmp	w5, #0xc
  401f14:	aa0103f7 	mov	x23, x1
  401f18:	9e670048 	fmov	d8, x2
  401f1c:	2a0503f9 	mov	w25, w5
  401f20:	7a4698a4 	ccmp	w5, #0x6, #0x4, ls  // ls = plast
  401f24:	54002600 	b.eq	4023e4 <__dcigettext+0x51c>  // b.none
  401f28:	90000421 	adrp	x1, 485000 <__FRAME_END__+0x103b0>
  401f2c:	f947c021 	ldr	x1, [x1, #3968]
  401f30:	d53bd042 	mrs	x2, tpidr_el0
  401f34:	aa0003f6 	mov	x22, x0
  401f38:	f0000260 	adrp	x0, 450000 <free_mem+0x48>
  401f3c:	a90a8ba1 	stp	x1, x2, [x29, #168]
  401f40:	f9429413 	ldr	x19, [x0, #1320]
  401f44:	b8616840 	ldr	w0, [x2, x1]
  401f48:	b900d3a0 	str	w0, [x29, #208]
  401f4c:	b4000093 	cbz	x19, 401f5c <__dcigettext+0x94>
  401f50:	f0000720 	adrp	x0, 4e8000 <initial+0x70>
  401f54:	9113a000 	add	x0, x0, #0x4e8
  401f58:	d503201f 	nop
  401f5c:	d0000720 	adrp	x0, 4e7000 <A+0x1f5e0>
  401f60:	9138c000 	add	x0, x0, #0xe30
  401f64:	f90067a0 	str	x0, [x29, #200]
  401f68:	b4000073 	cbz	x19, 401f74 <__dcigettext+0xac>
  401f6c:	9100e000 	add	x0, x0, #0x38
  401f70:	d503201f 	nop
  401f74:	b0000421 	adrp	x1, 486000 <.got.plt+0x18>
  401f78:	f10002df 	cmp	x22, #0x0
  401f7c:	2a1903e0 	mov	w0, w25
  401f80:	b90113b9 	str	w25, [x29, #272]
  401f84:	f9401821 	ldr	x1, [x1, #48]
  401f88:	f90097bf 	str	xzr, [x29, #296]
  401f8c:	f900a3b7 	str	x23, [x29, #320]
  401f90:	9a960036 	csel	x22, x1, x22, eq  // eq = none
  401f94:	f90087b6 	str	x22, [x29, #264]
  401f98:	940092ea 	bl	426b40 <__current_locale_name>
  401f9c:	f9008fa0 	str	x0, [x29, #280]
  401fa0:	9e670009 	fmov	d9, x0
  401fa4:	b4000093 	cbz	x19, 401fb4 <__dcigettext+0xec>
  401fa8:	f94067a0 	ldr	x0, [x29, #200]
  401fac:	9101c000 	add	x0, x0, #0x70
  401fb0:	d503201f 	nop
  401fb4:	f94067b3 	ldr	x19, [x29, #200]
  401fb8:	90000000 	adrp	x0, 401000 <__libc_csu_init+0x8>
  401fbc:	9114e000 	add	x0, x0, #0x538
  401fc0:	f9004fa0 	str	x0, [x29, #152]
  401fc4:	aa0003e2 	mov	x2, x0
  401fc8:	aa1303e1 	mov	x1, x19
  401fcc:	910423a0 	add	x0, x29, #0x108
  401fd0:	94005e0e 	bl	419808 <__tfind>
  401fd4:	f9005fa0 	str	x0, [x29, #184]
  401fd8:	f0000260 	adrp	x0, 450000 <free_mem+0x48>
  401fdc:	f9429c00 	ldr	x0, [x0, #1336]
  401fe0:	f90077a0 	str	x0, [x29, #232]
  401fe4:	b4000060 	cbz	x0, 401ff0 <__dcigettext+0x128>
  401fe8:	9101c260 	add	x0, x19, #0x70
  401fec:	d503201f 	nop
  401ff0:	f9405fa0 	ldr	x0, [x29, #184]
  401ff4:	b40000e0 	cbz	x0, 402010 <__dcigettext+0x148>
  401ff8:	f9400000 	ldr	x0, [x0]
  401ffc:	f0000721 	adrp	x1, 4e8000 <initial+0x70>
  402000:	b94e0821 	ldr	w1, [x1, #3592]
  402004:	b9401802 	ldr	w2, [x0, #24]
  402008:	6b01005f 	cmp	w2, w1
  40200c:	54001f80 	b.eq	4023fc <__dcigettext+0x534>  // b.none
  402010:	d0000720 	adrp	x0, 4e8000 <initial+0x70>
  402014:	f9470013 	ldr	x19, [x0, #3584]
  402018:	b5001433 	cbnz	x19, 40229c <__dcigettext+0x3d4>
  40201c:	d503201f 	nop
  402020:	d0000278 	adrp	x24, 450000 <free_mem+0x48>
  402024:	91164318 	add	x24, x24, #0x590
  402028:	b0000282 	adrp	x2, 453000 <_dl_aarch64_cap_flags+0x1a0>
  40202c:	913e6042 	add	x2, x2, #0xf98
  402030:	b0000295 	adrp	x21, 453000 <_dl_aarch64_cap_flags+0x1a0>
  402034:	913c22a1 	add	x1, x21, #0xf08
  402038:	2a1903e0 	mov	w0, w25
  40203c:	d000027a 	adrp	x26, 450000 <free_mem+0x48>
  402040:	3879c855 	ldrb	w21, [x2, w25, sxtw]
  402044:	9115c35a 	add	x26, x26, #0x570
  402048:	8b0102b5 	add	x21, x21, x1
  40204c:	940092bd 	bl	426b40 <__current_locale_name>
  402050:	aa1a03e1 	mov	x1, x26
  402054:	aa0003f4 	mov	x20, x0
  402058:	94004b8a 	bl	414e80 <strcmp>
  40205c:	34000100 	cbz	w0, 40207c <__dcigettext+0x1b4>
  402060:	d0000260 	adrp	x0, 450000 <free_mem+0x48>
  402064:	9115e000 	add	x0, x0, #0x578
  402068:	94000ee4 	bl	405bf8 <getenv>
  40206c:	b4000080 	cbz	x0, 40207c <__dcigettext+0x1b4>
  402070:	39400001 	ldrb	w1, [x0]
  402074:	7100003f 	cmp	w1, #0x0
  402078:	9a800294 	csel	x20, x20, x0, eq  // eq = none
  40207c:	aa1603e0 	mov	x0, x22
  402080:	94004ca0 	bl	415300 <__strlen>
  402084:	aa0003fb 	mov	x27, x0
  402088:	aa1503e0 	mov	x0, x21
  40208c:	f9004bbb 	str	x27, [x29, #144]
  402090:	94004c9c 	bl	415300 <__strlen>
  402094:	8b1b0000 	add	x0, x0, x27
  402098:	9100eb61 	add	x1, x27, #0x3a
  40209c:	91005000 	add	x0, x0, #0x14
  4020a0:	f90047a1 	str	x1, [x29, #136]
  4020a4:	927cec00 	and	x0, x0, #0xfffffffffffffff0
  4020a8:	910003e2 	mov	x2, sp
  4020ac:	9274cc01 	and	x1, x0, #0xfffffffffffff000
  4020b0:	cb2163e1 	sub	x1, sp, x1
  4020b4:	eb01005f 	cmp	x2, x1
  4020b8:	540000c0 	b.eq	4020d0 <__dcigettext+0x208>  // b.none
  4020bc:	d14007ff 	sub	sp, sp, #0x1, lsl #12
  4020c0:	910003e2 	mov	x2, sp
  4020c4:	eb01005f 	cmp	x2, x1
  4020c8:	f907ffff 	str	xzr, [sp, #4088]
  4020cc:	54ffff81 	b.ne	4020bc <__dcigettext+0x1f4>  // b.any
  4020d0:	f2402c01 	ands	x1, x0, #0xfff
  4020d4:	54000080 	b.eq	4020e4 <__dcigettext+0x21c>  // b.none
  4020d8:	cb2163ff 	sub	sp, sp, x1
  4020dc:	d1002021 	sub	x1, x1, #0x8
  4020e0:	f8216bff 	str	xzr, [sp, x1]
  4020e4:	b4000040 	cbz	x0, 4020ec <__dcigettext+0x224>
  4020e8:	f90003ff 	str	xzr, [sp]
  4020ec:	910003fb 	mov	x27, sp
  4020f0:	aa1503e1 	mov	x1, x21
  4020f4:	aa1b03e0 	mov	x0, x27
  4020f8:	94004fe2 	bl	416080 <__stpcpy>
  4020fc:	f9404ba2 	ldr	x2, [x29, #144]
  402100:	528005e3 	mov	w3, #0x2f                  	// #47
  402104:	78001403 	strh	w3, [x0], #1
  402108:	aa1603e1 	mov	x1, x22
  40210c:	94004fc5 	bl	416020 <__mempcpy>
  402110:	528da5c1 	mov	w1, #0x6d2e                	// #27950
  402114:	72a00de1 	movk	w1, #0x6f, lsl #16
  402118:	b9000001 	str	w1, [x0]
  40211c:	aa1403e0 	mov	x0, x20
  402120:	94004c78 	bl	415300 <__strlen>
  402124:	91004000 	add	x0, x0, #0x10
  402128:	927cec00 	and	x0, x0, #0xfffffffffffffff0
  40212c:	910003e2 	mov	x2, sp
  402130:	9274cc01 	and	x1, x0, #0xfffffffffffff000
  402134:	cb2163e1 	sub	x1, sp, x1
  402138:	eb01005f 	cmp	x2, x1
  40213c:	540000c0 	b.eq	402154 <__dcigettext+0x28c>  // b.none
  402140:	d14007ff 	sub	sp, sp, #0x1, lsl #12
  402144:	910003e2 	mov	x2, sp
  402148:	eb01005f 	cmp	x2, x1
  40214c:	f907ffff 	str	xzr, [sp, #4088]
  402150:	54ffff81 	b.ne	402140 <__dcigettext+0x278>  // b.any
  402154:	f2402c01 	ands	x1, x0, #0xfff
  402158:	54000080 	b.eq	402168 <__dcigettext+0x2a0>  // b.none
  40215c:	cb2163ff 	sub	sp, sp, x1
  402160:	d1002021 	sub	x1, x1, #0x8
  402164:	f8216bff 	str	xzr, [sp, x1]
  402168:	b4000040 	cbz	x0, 402170 <__dcigettext+0x2a8>
  40216c:	f90003ff 	str	xzr, [sp]
  402170:	910003f5 	mov	x21, sp
  402174:	d0000261 	adrp	x1, 450000 <free_mem+0x48>
  402178:	f0000400 	adrp	x0, 485000 <__FRAME_END__+0x103b0>
  40217c:	91162021 	add	x1, x1, #0x588
  402180:	913bc000 	add	x0, x0, #0xef0
  402184:	f90053a0 	str	x0, [x29, #160]
  402188:	f90073a1 	str	x1, [x29, #224]
  40218c:	d503201f 	nop
  402190:	39400280 	ldrb	w0, [x20]
  402194:	7100e81f 	cmp	w0, #0x3a
  402198:	54001680 	b.eq	402468 <__dcigettext+0x5a0>  // b.none
  40219c:	350016a0 	cbnz	w0, 402470 <__dcigettext+0x5a8>
  4021a0:	52800860 	mov	w0, #0x43                  	// #67
  4021a4:	790002a0 	strh	w0, [x21]
  4021a8:	aa1a03e1 	mov	x1, x26
  4021ac:	aa1503e0 	mov	x0, x21
  4021b0:	94004b34 	bl	414e80 <strcmp>
  4021b4:	34000ce0 	cbz	w0, 402350 <__dcigettext+0x488>
  4021b8:	f94073a1 	ldr	x1, [x29, #224]
  4021bc:	aa1503e0 	mov	x0, x21
  4021c0:	94004b30 	bl	414e80 <strcmp>
  4021c4:	34000c60 	cbz	w0, 402350 <__dcigettext+0x488>
  4021c8:	aa1303e3 	mov	x3, x19
  4021cc:	aa1b03e2 	mov	x2, x27
  4021d0:	aa1503e1 	mov	x1, x21
  4021d4:	aa1803e0 	mov	x0, x24
  4021d8:	9400010e 	bl	402610 <_nl_find_domain>
  4021dc:	aa0003fc 	mov	x28, x0
  4021e0:	b4fffd80 	cbz	x0, 402190 <__dcigettext+0x2c8>
  4021e4:	910403a4 	add	x4, x29, #0x100
  4021e8:	52800023 	mov	w3, #0x1                   	// #1
  4021ec:	aa1703e2 	mov	x2, x23
  4021f0:	aa1303e1 	mov	x1, x19
  4021f4:	97fffd11 	bl	401638 <_nl_find_msg>
  4021f8:	b4000860 	cbz	x0, 402304 <__dcigettext+0x43c>
  4021fc:	aa0003e4 	mov	x4, x0
  402200:	b100041f 	cmn	x0, #0x1
  402204:	54000a60 	b.eq	402350 <__dcigettext+0x488>  // b.none
  402208:	f9407fa0 	ldr	x0, [x29, #248]
  40220c:	f90073a4 	str	x4, [x29, #224]
  402210:	940045f8 	bl	4139f0 <__free>
  402214:	f9405fa0 	ldr	x0, [x29, #184]
  402218:	f94073a4 	ldr	x4, [x29, #224]
  40221c:	b4001760 	cbz	x0, 402508 <__dcigettext+0x640>
  402220:	f9405fa0 	ldr	x0, [x29, #184]
  402224:	d0000722 	adrp	x2, 4e8000 <initial+0x70>
  402228:	f94083a1 	ldr	x1, [x29, #256]
  40222c:	f9400000 	ldr	x0, [x0]
  402230:	b94e0842 	ldr	w2, [x2, #3592]
  402234:	b9001802 	str	w2, [x0, #24]
  402238:	a902101c 	stp	x28, x4, [x0, #32]
  40223c:	f9001801 	str	x1, [x0, #48]
  402240:	a94a83a1 	ldp	x1, x0, [x29, #168]
  402244:	b940d3a2 	ldr	w2, [x29, #208]
  402248:	b8216802 	str	w2, [x0, x1]
  40224c:	b940d7a0 	ldr	w0, [x29, #212]
  402250:	350014e0 	cbnz	w0, 4024ec <__dcigettext+0x624>
  402254:	f94077a0 	ldr	x0, [x29, #232]
  402258:	b40000c0 	cbz	x0, 402270 <__dcigettext+0x3a8>
  40225c:	f94067a0 	ldr	x0, [x29, #200]
  402260:	f90073a4 	str	x4, [x29, #224]
  402264:	9100e000 	add	x0, x0, #0x38
  402268:	d503201f 	nop
  40226c:	f94073a4 	ldr	x4, [x29, #224]
  402270:	f94077a0 	ldr	x0, [x29, #232]
  402274:	b4000980 	cbz	x0, 4023a4 <__dcigettext+0x4dc>
  402278:	d0000720 	adrp	x0, 4e8000 <initial+0x70>
  40227c:	9113a000 	add	x0, x0, #0x4e8
  402280:	f90077a4 	str	x4, [x29, #232]
  402284:	d503201f 	nop
  402288:	f94077a4 	ldr	x4, [x29, #232]
  40228c:	14000046 	b	4023a4 <__dcigettext+0x4dc>
  402290:	54000e0b 	b.lt	402450 <__dcigettext+0x588>  // b.tstop
  402294:	f9400273 	ldr	x19, [x19]
  402298:	b4ffec53 	cbz	x19, 402020 <__dcigettext+0x158>
  40229c:	91006261 	add	x1, x19, #0x18
  4022a0:	aa1603e0 	mov	x0, x22
  4022a4:	94004af7 	bl	414e80 <strcmp>
  4022a8:	7100001f 	cmp	w0, #0x0
  4022ac:	54ffff21 	b.ne	402290 <__dcigettext+0x3c8>  // b.any
  4022b0:	f9400678 	ldr	x24, [x19, #8]
  4022b4:	39400300 	ldrb	w0, [x24]
  4022b8:	7100bc1f 	cmp	w0, #0x2f
  4022bc:	54ffeb60 	b.eq	402028 <__dcigettext+0x160>  // b.none
  4022c0:	d2800001 	mov	x1, #0x0                   	// #0
  4022c4:	d2800000 	mov	x0, #0x0                   	// #0
  4022c8:	9400593c 	bl	4187b8 <__getcwd>
  4022cc:	aa0003f4 	mov	x20, x0
  4022d0:	b4000400 	cbz	x0, 402350 <__dcigettext+0x488>
  4022d4:	aa0003e2 	mov	x2, x0
  4022d8:	aa1803e3 	mov	x3, x24
  4022dc:	d0000261 	adrp	x1, 450000 <free_mem+0x48>
  4022e0:	9115a021 	add	x1, x1, #0x568
  4022e4:	9103e3a0 	add	x0, x29, #0xf8
  4022e8:	940012ba 	bl	406dd0 <___asprintf>
  4022ec:	2a0003f5 	mov	w21, w0
  4022f0:	aa1403e0 	mov	x0, x20
  4022f4:	940045bf 	bl	4139f0 <__free>
  4022f8:	37f802d5 	tbnz	w21, #31, 402350 <__dcigettext+0x488>
  4022fc:	f9407fb8 	ldr	x24, [x29, #248]
  402300:	17ffff4a 	b	402028 <__dcigettext+0x160>
  402304:	f9401380 	ldr	x0, [x28, #32]
  402308:	b4fff440 	cbz	x0, 402190 <__dcigettext+0x2c8>
  40230c:	91008381 	add	x1, x28, #0x20
  402310:	d2800006 	mov	x6, #0x0                   	// #0
  402314:	a907d3b5 	stp	x21, x20, [x29, #120]
  402318:	aa0603f5 	mov	x21, x6
  40231c:	aa0103f4 	mov	x20, x1
  402320:	14000005 	b	402334 <__dcigettext+0x46c>
  402324:	b5000c60 	cbnz	x0, 4024b0 <__dcigettext+0x5e8>
  402328:	910006b5 	add	x21, x21, #0x1
  40232c:	f8757a80 	ldr	x0, [x20, x21, lsl #3]
  402330:	b4000ca0 	cbz	x0, 4024c4 <__dcigettext+0x5fc>
  402334:	910403a4 	add	x4, x29, #0x100
  402338:	52800023 	mov	w3, #0x1                   	// #1
  40233c:	aa1703e2 	mov	x2, x23
  402340:	aa1303e1 	mov	x1, x19
  402344:	97fffcbd 	bl	401638 <_nl_find_msg>
  402348:	b100041f 	cmn	x0, #0x1
  40234c:	54fffec1 	b.ne	402324 <__dcigettext+0x45c>  // b.any
  402350:	f9407fa0 	ldr	x0, [x29, #248]
  402354:	940045a7 	bl	4139f0 <__free>
  402358:	f94077a0 	ldr	x0, [x29, #232]
  40235c:	b4000080 	cbz	x0, 40236c <__dcigettext+0x4a4>
  402360:	f94067a0 	ldr	x0, [x29, #200]
  402364:	9100e000 	add	x0, x0, #0x38
  402368:	d503201f 	nop
  40236c:	f94077a0 	ldr	x0, [x29, #232]
  402370:	b4000080 	cbz	x0, 402380 <__dcigettext+0x4b8>
  402374:	d0000720 	adrp	x0, 4e8000 <initial+0x70>
  402378:	9113a000 	add	x0, x0, #0x4e8
  40237c:	d503201f 	nop
  402380:	a94a83a1 	ldp	x1, x0, [x29, #168]
  402384:	b940d3a2 	ldr	w2, [x29, #208]
  402388:	b8216802 	str	w2, [x0, x1]
  40238c:	b940d7a0 	ldr	w0, [x29, #212]
  402390:	7100001f 	cmp	w0, #0x0
  402394:	f94063a0 	ldr	x0, [x29, #192]
  402398:	fa411804 	ccmp	x0, #0x1, #0x4, ne  // ne = any
  40239c:	540002c1 	b.ne	4023f4 <__dcigettext+0x52c>  // b.any
  4023a0:	aa1703e4 	mov	x4, x23
  4023a4:	f9406fa1 	ldr	x1, [x29, #216]
  4023a8:	aa0403e0 	mov	x0, x4
  4023ac:	f940a7a2 	ldr	x2, [x29, #328]
  4023b0:	f9400023 	ldr	x3, [x1]
  4023b4:	eb030042 	subs	x2, x2, x3
  4023b8:	d2800003 	mov	x3, #0x0                   	// #0
  4023bc:	54001261 	b.ne	402608 <__dcigettext+0x740>  // b.any
  4023c0:	910003bf 	mov	sp, x29
  4023c4:	a94153f3 	ldp	x19, x20, [sp, #16]
  4023c8:	a9425bf5 	ldp	x21, x22, [sp, #32]
  4023cc:	a94363f7 	ldp	x23, x24, [sp, #48]
  4023d0:	a9446bf9 	ldp	x25, x26, [sp, #64]
  4023d4:	a94573fb 	ldp	x27, x28, [sp, #80]
  4023d8:	6d4627e8 	ldp	d8, d9, [sp, #96]
  4023dc:	a8d57bfd 	ldp	x29, x30, [sp], #336
  4023e0:	d65f03c0 	ret
  4023e4:	2a0303e0 	mov	w0, w3
  4023e8:	7100001f 	cmp	w0, #0x0
  4023ec:	fa411884 	ccmp	x4, #0x1, #0x4, ne  // ne = any
  4023f0:	54fffd80 	b.eq	4023a0 <__dcigettext+0x4d8>  // b.none
  4023f4:	9e660104 	fmov	x4, d8
  4023f8:	17ffffeb 	b	4023a4 <__dcigettext+0x4dc>
  4023fc:	b940d7a1 	ldr	w1, [x29, #212]
  402400:	f9401404 	ldr	x4, [x0, #40]
  402404:	35000641 	cbnz	w1, 4024cc <__dcigettext+0x604>
  402408:	f94077a0 	ldr	x0, [x29, #232]
  40240c:	b40000c0 	cbz	x0, 402424 <__dcigettext+0x55c>
  402410:	f94067a0 	ldr	x0, [x29, #200]
  402414:	f90073a4 	str	x4, [x29, #224]
  402418:	9100e000 	add	x0, x0, #0x38
  40241c:	d503201f 	nop
  402420:	f94073a4 	ldr	x4, [x29, #224]
  402424:	f94077a0 	ldr	x0, [x29, #232]
  402428:	b40000c0 	cbz	x0, 402440 <__dcigettext+0x578>
  40242c:	d0000720 	adrp	x0, 4e8000 <initial+0x70>
  402430:	9113a000 	add	x0, x0, #0x4e8
  402434:	f90077a4 	str	x4, [x29, #232]
  402438:	d503201f 	nop
  40243c:	f94077a4 	ldr	x4, [x29, #232]
  402440:	a94a83a1 	ldp	x1, x0, [x29, #168]
  402444:	b940d3a2 	ldr	w2, [x29, #208]
  402448:	b8216802 	str	w2, [x0, x1]
  40244c:	17ffffd6 	b	4023a4 <__dcigettext+0x4dc>
  402450:	d0000278 	adrp	x24, 450000 <free_mem+0x48>
  402454:	d2800013 	mov	x19, #0x0                   	// #0
  402458:	91164318 	add	x24, x24, #0x590
  40245c:	17fffef3 	b	402028 <__dcigettext+0x160>
  402460:	d2800004 	mov	x4, #0x0                   	// #0
  402464:	17ffffd0 	b	4023a4 <__dcigettext+0x4dc>
  402468:	91000694 	add	x20, x20, #0x1
  40246c:	17ffff49 	b	402190 <__dcigettext+0x2c8>
  402470:	aa1503e1 	mov	x1, x21
  402474:	d503201f 	nop
  402478:	38001420 	strb	w0, [x1], #1
  40247c:	38401e80 	ldrb	w0, [x20, #1]!
  402480:	7100e81f 	cmp	w0, #0x3a
  402484:	7a401804 	ccmp	w0, #0x0, #0x4, ne  // ne = any
  402488:	54ffff81 	b.ne	402478 <__dcigettext+0x5b0>  // b.any
  40248c:	f94053a0 	ldr	x0, [x29, #160]
  402490:	3900003f 	strb	wzr, [x1]
  402494:	b9400000 	ldr	w0, [x0]
  402498:	34ffe880 	cbz	w0, 4021a8 <__dcigettext+0x2e0>
  40249c:	528005e1 	mov	w1, #0x2f                  	// #47
  4024a0:	aa1503e0 	mov	x0, x21
  4024a4:	94004a3b 	bl	414d90 <strchr>
  4024a8:	b5ffe740 	cbnz	x0, 402190 <__dcigettext+0x2c8>
  4024ac:	17ffff3f 	b	4021a8 <__dcigettext+0x2e0>
  4024b0:	aa0003e4 	mov	x4, x0
  4024b4:	2a1503e0 	mov	w0, w21
  4024b8:	8b20cf80 	add	x0, x28, w0, sxtw #3
  4024bc:	f940101c 	ldr	x28, [x0, #32]
  4024c0:	17ffff52 	b	402208 <__dcigettext+0x340>
  4024c4:	a947d3b5 	ldp	x21, x20, [x29, #120]
  4024c8:	17ffff32 	b	402190 <__dcigettext+0x2c8>
  4024cc:	f9401005 	ldr	x5, [x0, #32]
  4024d0:	aa0403e2 	mov	x2, x4
  4024d4:	f9401803 	ldr	x3, [x0, #48]
  4024d8:	f94008a0 	ldr	x0, [x5, #16]
  4024dc:	f94063a1 	ldr	x1, [x29, #192]
  4024e0:	97fffc36 	bl	4015b8 <plural_lookup.isra.2>
  4024e4:	aa0003e4 	mov	x4, x0
  4024e8:	17ffffc8 	b	402408 <__dcigettext+0x540>
  4024ec:	f9400b80 	ldr	x0, [x28, #16]
  4024f0:	aa0403e2 	mov	x2, x4
  4024f4:	f94063a1 	ldr	x1, [x29, #192]
  4024f8:	f94083a3 	ldr	x3, [x29, #256]
  4024fc:	97fffc2f 	bl	4015b8 <plural_lookup.isra.2>
  402500:	aa0003e4 	mov	x4, x0
  402504:	17ffff54 	b	402254 <__dcigettext+0x38c>
  402508:	aa1703e0 	mov	x0, x23
  40250c:	94004b7d 	bl	415300 <__strlen>
  402510:	91000413 	add	x19, x0, #0x1
  402514:	9e660120 	fmov	x0, d9
  402518:	94004b7a 	bl	415300 <__strlen>
  40251c:	8b130000 	add	x0, x0, x19
  402520:	f94047a1 	ldr	x1, [x29, #136]
  402524:	8b010000 	add	x0, x0, x1
  402528:	9400439e 	bl	4133a0 <__libc_malloc>
  40252c:	aa0003f4 	mov	x20, x0
  402530:	f94073a4 	ldr	x4, [x29, #224]
  402534:	b4ffe860 	cbz	x0, 402240 <__dcigettext+0x378>
  402538:	f9404ba0 	ldr	x0, [x29, #144]
  40253c:	aa1303e2 	mov	x2, x19
  402540:	aa1703e1 	mov	x1, x23
  402544:	91000413 	add	x19, x0, #0x1
  402548:	9100e280 	add	x0, x20, #0x38
  40254c:	94004eb5 	bl	416020 <__mempcpy>
  402550:	aa0003f5 	mov	x21, x0
  402554:	aa1603e1 	mov	x1, x22
  402558:	aa1303e2 	mov	x2, x19
  40255c:	8b130013 	add	x19, x0, x19
  402560:	97fff730 	bl	400220 <.plt+0x10>
  402564:	9e660121 	fmov	x1, d9
  402568:	aa1303e0 	mov	x0, x19
  40256c:	94004a85 	bl	414f80 <strcpy>
  402570:	f9000295 	str	x21, [x20]
  402574:	d0000260 	adrp	x0, 450000 <free_mem+0x48>
  402578:	d0000721 	adrp	x1, 4e8000 <initial+0x70>
  40257c:	f94073a4 	ldr	x4, [x29, #224]
  402580:	b9000a99 	str	w25, [x20, #8]
  402584:	f9429800 	ldr	x0, [x0, #1328]
  402588:	f9000a93 	str	x19, [x20, #16]
  40258c:	b94e0822 	ldr	w2, [x1, #3592]
  402590:	f94083a1 	ldr	x1, [x29, #256]
  402594:	b9001a82 	str	w2, [x20, #24]
  402598:	a902129c 	stp	x28, x4, [x20, #32]
  40259c:	f9001a81 	str	x1, [x20, #48]
  4025a0:	b40000a0 	cbz	x0, 4025b4 <__dcigettext+0x6ec>
  4025a4:	f94067a0 	ldr	x0, [x29, #200]
  4025a8:	9101c000 	add	x0, x0, #0x70
  4025ac:	d503201f 	nop
  4025b0:	f94073a4 	ldr	x4, [x29, #224]
  4025b4:	aa1403e0 	mov	x0, x20
  4025b8:	f9404fa2 	ldr	x2, [x29, #152]
  4025bc:	f90073a4 	str	x4, [x29, #224]
  4025c0:	f94067b5 	ldr	x21, [x29, #200]
  4025c4:	aa1503e1 	mov	x1, x21
  4025c8:	94005c28 	bl	419668 <__tsearch>
  4025cc:	aa0003f3 	mov	x19, x0
  4025d0:	a94e03a4 	ldp	x4, x0, [x29, #224]
  4025d4:	b4000080 	cbz	x0, 4025e4 <__dcigettext+0x71c>
  4025d8:	9101c2a0 	add	x0, x21, #0x70
  4025dc:	d503201f 	nop
  4025e0:	f94073a4 	ldr	x4, [x29, #224]
  4025e4:	b4000093 	cbz	x19, 4025f4 <__dcigettext+0x72c>
  4025e8:	f9400260 	ldr	x0, [x19]
  4025ec:	eb14001f 	cmp	x0, x20
  4025f0:	54ffe280 	b.eq	402240 <__dcigettext+0x378>  // b.none
  4025f4:	aa1403e0 	mov	x0, x20
  4025f8:	f90073a4 	str	x4, [x29, #224]
  4025fc:	940044fd 	bl	4139f0 <__free>
  402600:	f94073a4 	ldr	x4, [x29, #224]
  402604:	17ffff0f 	b	402240 <__dcigettext+0x378>
  402608:	94006000 	bl	41a608 <__stack_chk_fail>

000000000040260c <.annobin___dcigettext.end>:
  40260c:	d503201f 	nop

0000000000402610 <_nl_find_domain>:
  402610:	d102c3ff 	sub	sp, sp, #0xb0
  402614:	d0000264 	adrp	x4, 450000 <free_mem+0x48>
  402618:	a9027bfd 	stp	x29, x30, [sp, #32]
  40261c:	910083fd 	add	x29, sp, #0x20
  402620:	a9045bf5 	stp	x21, x22, [sp, #64]
  402624:	f0000415 	adrp	x21, 485000 <__FRAME_END__+0x103b0>
  402628:	aa0003f6 	mov	x22, x0
  40262c:	912342b5 	add	x21, x21, #0x8d0
  402630:	a90353f3 	stp	x19, x20, [sp, #48]
  402634:	b0000733 	adrp	x19, 4e7000 <A+0x1f5e0>
  402638:	f942dc80 	ldr	x0, [x4, #1464]
  40263c:	f94002a4 	ldr	x4, [x21]
  402640:	f90057e4 	str	x4, [sp, #168]
  402644:	d2800004 	mov	x4, #0x0                   	// #0
  402648:	a90563f7 	stp	x23, x24, [sp, #80]
  40264c:	913b6273 	add	x19, x19, #0xed8
  402650:	aa0103f7 	mov	x23, x1
  402654:	a9066bf9 	stp	x25, x26, [sp, #96]
  402658:	aa0203f9 	mov	x25, x2
  40265c:	aa0303fa 	mov	x26, x3
  402660:	b4000060 	cbz	x0, 40266c <_nl_find_domain+0x5c>
  402664:	aa1303e0 	mov	x0, x19
  402668:	d503201f 	nop
  40266c:	aa1603e0 	mov	x0, x22
  402670:	94004b24 	bl	415300 <__strlen>
  402674:	a90067ff 	stp	xzr, x25, [sp]
  402678:	91000402 	add	x2, x0, #0x1
  40267c:	d2800007 	mov	x7, #0x0                   	// #0
  402680:	b90013ff 	str	wzr, [sp, #16]
  402684:	d2800006 	mov	x6, #0x0                   	// #0
  402688:	d2800005 	mov	x5, #0x0                   	// #0
  40268c:	aa1703e4 	mov	x4, x23
  402690:	52800003 	mov	w3, #0x0                   	// #0
  402694:	aa1603e1 	mov	x1, x22
  402698:	9100e260 	add	x0, x19, #0x38
  40269c:	94000699 	bl	404100 <_nl_make_l10nflist>
  4026a0:	aa0003f4 	mov	x20, x0
  4026a4:	d0000260 	adrp	x0, 450000 <free_mem+0x48>
  4026a8:	f942e018 	ldr	x24, [x0, #1472]
  4026ac:	b4000078 	cbz	x24, 4026b8 <_nl_find_domain+0xa8>
  4026b0:	aa1303e0 	mov	x0, x19
  4026b4:	d503201f 	nop
  4026b8:	b40004d4 	cbz	x20, 402750 <_nl_find_domain+0x140>
  4026bc:	b9400a80 	ldr	w0, [x20, #8]
  4026c0:	7100001f 	cmp	w0, #0x0
  4026c4:	540003ed 	b.le	402740 <_nl_find_domain+0x130>
  4026c8:	f9400a80 	ldr	x0, [x20, #16]
  4026cc:	b40001c0 	cbz	x0, 402704 <_nl_find_domain+0xf4>
  4026d0:	aa1403e0 	mov	x0, x20
  4026d4:	f94057e1 	ldr	x1, [sp, #168]
  4026d8:	f94002a2 	ldr	x2, [x21]
  4026dc:	eb020021 	subs	x1, x1, x2
  4026e0:	d2800002 	mov	x2, #0x0                   	// #0
  4026e4:	54000d81 	b.ne	402894 <_nl_find_domain+0x284>  // b.any
  4026e8:	a9427bfd 	ldp	x29, x30, [sp, #32]
  4026ec:	a94353f3 	ldp	x19, x20, [sp, #48]
  4026f0:	a9445bf5 	ldp	x21, x22, [sp, #64]
  4026f4:	a94563f7 	ldp	x23, x24, [sp, #80]
  4026f8:	a9466bf9 	ldp	x25, x26, [sp, #96]
  4026fc:	9102c3ff 	add	sp, sp, #0xb0
  402700:	d65f03c0 	ret
  402704:	f9401280 	ldr	x0, [x20, #32]
  402708:	b4fffe40 	cbz	x0, 4026d0 <_nl_find_domain+0xc0>
  40270c:	91008293 	add	x19, x20, #0x20
  402710:	14000006 	b	402728 <_nl_find_domain+0x118>
  402714:	f9400260 	ldr	x0, [x19]
  402718:	f9400800 	ldr	x0, [x0, #16]
  40271c:	b5fffda0 	cbnz	x0, 4026d0 <_nl_find_domain+0xc0>
  402720:	f8408e60 	ldr	x0, [x19, #8]!
  402724:	b4fffd60 	cbz	x0, 4026d0 <_nl_find_domain+0xc0>
  402728:	b9400801 	ldr	w1, [x0, #8]
  40272c:	7100003f 	cmp	w1, #0x0
  402730:	54ffff2c 	b.gt	402714 <_nl_find_domain+0x104>
  402734:	aa1a03e1 	mov	x1, x26
  402738:	9400005a 	bl	4028a0 <_nl_load_domain>
  40273c:	17fffff6 	b	402714 <_nl_find_domain+0x104>
  402740:	aa1a03e1 	mov	x1, x26
  402744:	aa1403e0 	mov	x0, x20
  402748:	94000056 	bl	4028a0 <_nl_load_domain>
  40274c:	17ffffdf 	b	4026c8 <_nl_find_domain+0xb8>
  402750:	aa1703e0 	mov	x0, x23
  402754:	a90773fb 	stp	x27, x28, [sp, #112]
  402758:	940005fc 	bl	403f48 <_nl_expand_alias>
  40275c:	aa0003fc 	mov	x28, x0
  402760:	b4000140 	cbz	x0, 402788 <_nl_find_domain+0x178>
  402764:	94004ae7 	bl	415300 <__strlen>
  402768:	9100041b 	add	x27, x0, #0x1
  40276c:	aa1b03e0 	mov	x0, x27
  402770:	9400430c 	bl	4133a0 <__libc_malloc>
  402774:	aa0003f7 	mov	x23, x0
  402778:	b40005c0 	cbz	x0, 402830 <_nl_find_domain+0x220>
  40277c:	aa1b03e2 	mov	x2, x27
  402780:	aa1c03e1 	mov	x1, x28
  402784:	97fff6a7 	bl	400220 <.plt+0x10>
  402788:	910283e5 	add	x5, sp, #0xa0
  40278c:	910263e4 	add	x4, sp, #0x98
  402790:	910243e3 	add	x3, sp, #0x90
  402794:	910223e2 	add	x2, sp, #0x88
  402798:	910203e1 	add	x1, sp, #0x80
  40279c:	aa1703e0 	mov	x0, x23
  4027a0:	940007da 	bl	404708 <_nl_explode_name>
  4027a4:	2a0003fb 	mov	w27, w0
  4027a8:	3100041f 	cmn	w0, #0x1
  4027ac:	54000420 	b.eq	402830 <_nl_find_domain+0x220>  // b.none
  4027b0:	d0000260 	adrp	x0, 450000 <free_mem+0x48>
  4027b4:	f942e400 	ldr	x0, [x0, #1480]
  4027b8:	b4000060 	cbz	x0, 4027c4 <_nl_find_domain+0x1b4>
  4027bc:	aa1303e0 	mov	x0, x19
  4027c0:	d503201f 	nop
  4027c4:	aa1603e0 	mov	x0, x22
  4027c8:	94004ace 	bl	415300 <__strlen>
  4027cc:	91000402 	add	x2, x0, #0x1
  4027d0:	52800021 	mov	w1, #0x1                   	// #1
  4027d4:	a94803e4 	ldp	x4, x0, [sp, #128]
  4027d8:	a90067e0 	stp	x0, x25, [sp]
  4027dc:	2a1b03e3 	mov	w3, w27
  4027e0:	a9491be5 	ldp	x5, x6, [sp, #144]
  4027e4:	b90013e1 	str	w1, [sp, #16]
  4027e8:	f94053e7 	ldr	x7, [sp, #160]
  4027ec:	aa1603e1 	mov	x1, x22
  4027f0:	9100e260 	add	x0, x19, #0x38
  4027f4:	94000643 	bl	404100 <_nl_make_l10nflist>
  4027f8:	aa0003f4 	mov	x20, x0
  4027fc:	b4000078 	cbz	x24, 402808 <_nl_find_domain+0x1f8>
  402800:	aa1303e0 	mov	x0, x19
  402804:	d503201f 	nop
  402808:	b4000134 	cbz	x20, 40282c <_nl_find_domain+0x21c>
  40280c:	b9400a80 	ldr	w0, [x20, #8]
  402810:	7100001f 	cmp	w0, #0x0
  402814:	5400038d 	b.le	402884 <_nl_find_domain+0x274>
  402818:	f9400a80 	ldr	x0, [x20, #16]
  40281c:	b4000160 	cbz	x0, 402848 <_nl_find_domain+0x238>
  402820:	b400007c 	cbz	x28, 40282c <_nl_find_domain+0x21c>
  402824:	aa1703e0 	mov	x0, x23
  402828:	94004472 	bl	4139f0 <__free>
  40282c:	3700007b 	tbnz	w27, #0, 402838 <_nl_find_domain+0x228>
  402830:	a94773fb 	ldp	x27, x28, [sp, #112]
  402834:	17ffffa7 	b	4026d0 <_nl_find_domain+0xc0>
  402838:	f94053e0 	ldr	x0, [sp, #160]
  40283c:	9400446d 	bl	4139f0 <__free>
  402840:	a94773fb 	ldp	x27, x28, [sp, #112]
  402844:	17ffffa3 	b	4026d0 <_nl_find_domain+0xc0>
  402848:	f9401280 	ldr	x0, [x20, #32]
  40284c:	b4fffea0 	cbz	x0, 402820 <_nl_find_domain+0x210>
  402850:	91008293 	add	x19, x20, #0x20
  402854:	14000006 	b	40286c <_nl_find_domain+0x25c>
  402858:	f9400260 	ldr	x0, [x19]
  40285c:	f9400800 	ldr	x0, [x0, #16]
  402860:	b5fffe00 	cbnz	x0, 402820 <_nl_find_domain+0x210>
  402864:	f8408e60 	ldr	x0, [x19, #8]!
  402868:	b4fffdc0 	cbz	x0, 402820 <_nl_find_domain+0x210>
  40286c:	b9400801 	ldr	w1, [x0, #8]
  402870:	7100003f 	cmp	w1, #0x0
  402874:	54ffff2c 	b.gt	402858 <_nl_find_domain+0x248>
  402878:	aa1a03e1 	mov	x1, x26
  40287c:	94000009 	bl	4028a0 <_nl_load_domain>
  402880:	17fffff6 	b	402858 <_nl_find_domain+0x248>
  402884:	aa1a03e1 	mov	x1, x26
  402888:	aa1403e0 	mov	x0, x20
  40288c:	94000005 	bl	4028a0 <_nl_load_domain>
  402890:	17ffffe2 	b	402818 <_nl_find_domain+0x208>
  402894:	a90773fb 	stp	x27, x28, [sp, #112]
  402898:	94005f5c 	bl	41a608 <__stack_chk_fail>

000000000040289c <.annobin__nl_find_domain.end>:
  40289c:	d503201f 	nop

00000000004028a0 <_nl_load_domain>:
  4028a0:	a9a67bfd 	stp	x29, x30, [sp, #-416]!
  4028a4:	b0000726 	adrp	x6, 4e7000 <A+0x1f5e0>
  4028a8:	f0000402 	adrp	x2, 485000 <__FRAME_END__+0x103b0>
  4028ac:	910003fd 	mov	x29, sp
  4028b0:	a9025bf5 	stp	x21, x22, [sp, #32]
  4028b4:	913c60d6 	add	x22, x6, #0xf18
  4028b8:	aa0003f5 	mov	x21, x0
  4028bc:	a90573fb 	stp	x27, x28, [sp, #80]
  4028c0:	9123405c 	add	x28, x2, #0x8d0
  4028c4:	f9400382 	ldr	x2, [x28]
  4028c8:	f900cfe2 	str	x2, [sp, #408]
  4028cc:	d2800002 	mov	x2, #0x0                   	// #0
  4028d0:	f94006c2 	ldr	x2, [x22, #8]
  4028d4:	a90153f3 	stp	x19, x20, [sp, #16]
  4028d8:	d53bd054 	mrs	x20, tpidr_el0
  4028dc:	d11c0293 	sub	x19, x20, #0x700
  4028e0:	fd0033e8 	str	d8, [sp, #96]
  4028e4:	eb13005f 	cmp	x2, x19
  4028e8:	9e670028 	fmov	d8, x1
  4028ec:	540000e0 	b.eq	402908 <_nl_load_domain+0x68>  // b.none
  4028f0:	aa1603e2 	mov	x2, x22
  4028f4:	52800021 	mov	w1, #0x1                   	// #1
  4028f8:	52800000 	mov	w0, #0x0                   	// #0
  4028fc:	94011ee9 	bl	44a4a0 <__aarch64_cas4_acq>
  402900:	350028a0 	cbnz	w0, 402e14 <_nl_load_domain+0x574>
  402904:	f90006d3 	str	x19, [x22, #8]
  402908:	b94006c1 	ldr	w1, [x22, #4]
  40290c:	b9400aa0 	ldr	w0, [x21, #8]
  402910:	11000422 	add	w2, w1, #0x1
  402914:	b90006c2 	str	w2, [x22, #4]
  402918:	35002300 	cbnz	w0, 402d78 <_nl_load_domain+0x4d8>
  40291c:	f94002a0 	ldr	x0, [x21]
  402920:	12800002 	mov	w2, #0xffffffff            	// #-1
  402924:	b9000aa2 	str	w2, [x21, #8]
  402928:	f9000abf 	str	xzr, [x21, #16]
  40292c:	b4002220 	cbz	x0, 402d70 <_nl_load_domain+0x4d0>
  402930:	52800001 	mov	w1, #0x0                   	// #0
  402934:	9400598d 	bl	418f68 <__open64_nocancel>
  402938:	2a0003f3 	mov	w19, w0
  40293c:	3100041f 	cmn	w0, #0x1
  402940:	540028a0 	b.eq	402e54 <_nl_load_domain+0x5b4>  // b.none
  402944:	2a0003e1 	mov	w1, w0
  402948:	910463e2 	add	x2, sp, #0x118
  40294c:	52800000 	mov	w0, #0x0                   	// #0
  402950:	a9046bf9 	stp	x25, x26, [sp, #64]
  402954:	940056c9 	bl	418478 <__fxstat>
  402958:	2a0003fa 	mov	w26, w0
  40295c:	35002500 	cbnz	w0, 402dfc <_nl_load_domain+0x55c>
  402960:	a90363f7 	stp	x23, x24, [sp, #48]
  402964:	f940a7f8 	ldr	x24, [sp, #328]
  402968:	f100bf1f 	cmp	x24, #0x2f
  40296c:	54002469 	b.ls	402df8 <_nl_load_domain+0x558>  // b.plast
  402970:	d2800005 	mov	x5, #0x0                   	// #0
  402974:	2a1303e4 	mov	w4, w19
  402978:	52800043 	mov	w3, #0x2                   	// #2
  40297c:	52800022 	mov	w2, #0x1                   	// #1
  402980:	aa1803e1 	mov	x1, x24
  402984:	d2800000 	mov	x0, #0x0                   	// #0
  402988:	94005a5c 	bl	4192f8 <__mmap64>
  40298c:	aa0003fb 	mov	x27, x0
  402990:	b100041f 	cmn	x0, #0x1
  402994:	54002de0 	b.eq	402f50 <_nl_load_domain+0x6b0>  // b.none
  402998:	2a1303e0 	mov	w0, w19
  40299c:	9400591d 	bl	418e10 <__close_nocancel>
  4029a0:	b9400379 	ldr	w25, [x27]
  4029a4:	52825bc1 	mov	w1, #0x12de                	// #4830
  4029a8:	72b2a081 	movk	w1, #0x9504, lsl #16
  4029ac:	528092a0 	mov	w0, #0x495                 	// #1173
  4029b0:	6b01033f 	cmp	w25, w1
  4029b4:	72bbc240 	movk	w0, #0xde12, lsl #16
  4029b8:	1a9f07f4 	cset	w20, ne  // ne = any
  4029bc:	7100029f 	cmp	w20, #0x0
  4029c0:	7a401324 	ccmp	w25, w0, #0x4, ne  // ne = any
  4029c4:	540025a1 	b.ne	402e78 <_nl_load_domain+0x5d8>  // b.any
  4029c8:	5280003a 	mov	w26, #0x1                   	// #1
  4029cc:	d2801900 	mov	x0, #0xc8                  	// #200
  4029d0:	94004274 	bl	4133a0 <__libc_malloc>
  4029d4:	aa0003f7 	mov	x23, x0
  4029d8:	b4001c40 	cbz	x0, 402d60 <_nl_load_domain+0x4c0>
  4029dc:	52825bc0 	mov	w0, #0x12de                	// #4830
  4029e0:	72b2a080 	movk	w0, #0x9504, lsl #16
  4029e4:	6b00033f 	cmp	w25, w0
  4029e8:	b9400760 	ldr	w0, [x27, #4]
  4029ec:	f90002fb 	str	x27, [x23]
  4029f0:	b9000afa 	str	w26, [x23, #8]
  4029f4:	f9000ab7 	str	x23, [x21, #16]
  4029f8:	f9000af8 	str	x24, [x23, #16]
  4029fc:	b9001af4 	str	w20, [x23, #24]
  402a00:	f90012ff 	str	xzr, [x23, #32]
  402a04:	54001640 	b.eq	402ccc <_nl_load_domain+0x42c>  // b.none
  402a08:	5ac00800 	rev	w0, w0
  402a0c:	13107c01 	asr	w1, w0, #16
  402a10:	7100043f 	cmp	w1, #0x1
  402a14:	54002068 	b.hi	402e20 <_nl_load_domain+0x580>  // b.pmore
  402a18:	29410f64 	ldp	w4, w3, [x27, #8]
  402a1c:	29424f61 	ldp	w1, w19, [x27, #16]
  402a20:	5ac00863 	rev	w3, w3
  402a24:	8b030363 	add	x3, x27, x3
  402a28:	5ac00884 	rev	w4, w4
  402a2c:	5ac00821 	rev	w1, w1
  402a30:	5ac00a73 	rev	w19, w19
  402a34:	8b010361 	add	x1, x27, x1
  402a38:	b9002ae4 	str	w4, [x23, #40]
  402a3c:	a90306e3 	stp	x3, x1, [x23, #48]
  402a40:	71000a7f 	cmp	w19, #0x2
  402a44:	b9005af3 	str	w19, [x23, #88]
  402a48:	540015a9 	b.ls	402cfc <_nl_load_domain+0x45c>  // b.plast
  402a4c:	b9401b61 	ldr	w1, [x27, #24]
  402a50:	5ac00821 	rev	w1, w1
  402a54:	8b010361 	add	x1, x27, x1
  402a58:	f90032e1 	str	x1, [x23, #96]
  402a5c:	b9006af4 	str	w20, [x23, #104]
  402a60:	12003c00 	and	w0, w0, #0xffff
  402a64:	34001540 	cbz	w0, 402d0c <_nl_load_domain+0x46c>
  402a68:	b4001dc1 	cbz	x1, 402e20 <_nl_load_domain+0x580>
  402a6c:	52825bc0 	mov	w0, #0x12de                	// #4830
  402a70:	72b2a080 	movk	w0, #0x9504, lsl #16
  402a74:	6b00033f 	cmp	w25, w0
  402a78:	b9402760 	ldr	w0, [x27, #36]
  402a7c:	b9007be0 	str	w0, [sp, #120]
  402a80:	54002b80 	b.eq	402ff0 <_nl_load_domain+0x750>  // b.none
  402a84:	5ac00800 	rev	w0, w0
  402a88:	b9007be0 	str	w0, [sp, #120]
  402a8c:	34001400 	cbz	w0, 402d0c <_nl_load_domain+0x46c>
  402a90:	2943d360 	ldp	w0, w20, [x27, #28]
  402a94:	5ac00a94 	rev	w20, w20
  402a98:	5ac00800 	rev	w0, w0
  402a9c:	b90083e0 	str	w0, [sp, #128]
  402aa0:	b94083e0 	ldr	w0, [sp, #128]
  402aa4:	d2800101 	mov	x1, #0x8                   	// #8
  402aa8:	8b140374 	add	x20, x27, x20
  402aac:	9400458b 	bl	4140d8 <__calloc>
  402ab0:	f90047e0 	str	x0, [sp, #136]
  402ab4:	b4001b60 	cbz	x0, 402e20 <_nl_load_domain+0x580>
  402ab8:	b94083e0 	ldr	w0, [sp, #128]
  402abc:	34000780 	cbz	w0, 402bac <_nl_load_domain+0x30c>
  402ac0:	b94083e0 	ldr	w0, [sp, #128]
  402ac4:	d000026b 	adrp	x11, 450000 <free_mem+0x48>
  402ac8:	f94047e3 	ldr	x3, [sp, #136]
  402acc:	51000408 	sub	w8, w0, #0x1
  402ad0:	91000508 	add	x8, x8, #0x1
  402ad4:	d0000260 	adrp	x0, 450000 <free_mem+0x48>
  402ad8:	91186007 	add	x7, x0, #0x618
  402adc:	d0000260 	adrp	x0, 450000 <free_mem+0x48>
  402ae0:	91178000 	add	x0, x0, #0x5e0
  402ae4:	d0000271 	adrp	x17, 450000 <free_mem+0x48>
  402ae8:	d0000270 	adrp	x16, 450000 <free_mem+0x48>
  402aec:	d000026f 	adrp	x15, 450000 <free_mem+0x48>
  402af0:	d000026e 	adrp	x14, 450000 <free_mem+0x48>
  402af4:	d000026d 	adrp	x13, 450000 <free_mem+0x48>
  402af8:	f0000321 	adrp	x1, 469000 <__sys_nerr_internal+0x90>
  402afc:	d000027e 	adrp	x30, 450000 <free_mem+0x48>
  402b00:	91060021 	add	x1, x1, #0x180
  402b04:	52825bc9 	mov	w9, #0x12de                	// #4830
  402b08:	9118816b 	add	x11, x11, #0x620
  402b0c:	91182231 	add	x17, x17, #0x608
  402b10:	9118a210 	add	x16, x16, #0x628
  402b14:	9118c1ef 	add	x15, x15, #0x630
  402b18:	911841ce 	add	x14, x14, #0x610
  402b1c:	911801ad 	add	x13, x13, #0x600
  402b20:	9117c3de 	add	x30, x30, #0x5f0
  402b24:	9100128a 	add	x10, x20, #0x4
  402b28:	d37df108 	lsl	x8, x8, #3
  402b2c:	a90903e1 	stp	x1, x0, [sp, #144]
  402b30:	d0000260 	adrp	x0, 450000 <free_mem+0x48>
  402b34:	9117a000 	add	x0, x0, #0x5e8
  402b38:	72b2a089 	movk	w9, #0x9504, lsl #16
  402b3c:	d2800001 	mov	x1, #0x0                   	// #0
  402b40:	f90053e0 	str	x0, [sp, #160]
  402b44:	d0000260 	adrp	x0, 450000 <free_mem+0x48>
  402b48:	9117e000 	add	x0, x0, #0x5f8
  402b4c:	f90057e0 	str	x0, [sp, #168]
  402b50:	6b09033f 	cmp	w25, w9
  402b54:	b8616940 	ldr	w0, [x10, x1]
  402b58:	b8616a82 	ldr	w2, [x20, x1]
  402b5c:	540019e0 	b.eq	402e98 <_nl_load_domain+0x5f8>  // b.none
  402b60:	5ac00800 	rev	w0, w0
  402b64:	5ac00842 	rev	w2, w2
  402b68:	8b000360 	add	x0, x27, x0
  402b6c:	34002562 	cbz	w2, 403018 <_nl_load_domain+0x778>
  402b70:	51000442 	sub	w2, w2, #0x1
  402b74:	38624802 	ldrb	w2, [x0, w2, uxtw]
  402b78:	35002502 	cbnz	w2, 403018 <_nl_load_domain+0x778>
  402b7c:	39400002 	ldrb	w2, [x0]
  402b80:	7101405f 	cmp	w2, #0x50
  402b84:	540018e0 	b.eq	402ea0 <_nl_load_domain+0x600>  // b.none
  402b88:	7101245f 	cmp	w2, #0x49
  402b8c:	540024e1 	b.ne	403028 <_nl_load_domain+0x788>  // b.any
  402b90:	39400400 	ldrb	w0, [x0, #1]
  402b94:	7100001f 	cmp	w0, #0x0
  402b98:	9a9f0162 	csel	x2, x11, xzr, eq  // eq = none
  402b9c:	f8216862 	str	x2, [x3, x1]
  402ba0:	91002021 	add	x1, x1, #0x8
  402ba4:	eb01011f 	cmp	x8, x1
  402ba8:	54fffd41 	b.ne	402b50 <_nl_load_domain+0x2b0>  // b.any
  402bac:	52825bc0 	mov	w0, #0x12de                	// #4830
  402bb0:	72b2a080 	movk	w0, #0x9504, lsl #16
  402bb4:	6b00033f 	cmp	w25, w0
  402bb8:	29450361 	ldp	w1, w0, [x27, #40]
  402bbc:	54002760 	b.eq	4030a8 <_nl_load_domain+0x808>  // b.none
  402bc0:	5ac00821 	rev	w1, w1
  402bc4:	5ac00800 	rev	w0, w0
  402bc8:	8b010361 	add	x1, x27, x1
  402bcc:	b9407be2 	ldr	w2, [sp, #120]
  402bd0:	8b000363 	add	x3, x27, x0
  402bd4:	aa0103e0 	mov	x0, x1
  402bd8:	a90b5ff8 	stp	x24, x23, [sp, #176]
  402bdc:	51000454 	sub	w20, w2, #0x1
  402be0:	91000694 	add	x20, x20, #0x1
  402be4:	aa0003f8 	mov	x24, x0
  402be8:	f94047f7 	ldr	x23, [sp, #136]
  402bec:	b900abfa 	str	w26, [sp, #168]
  402bf0:	aa0303fa 	mov	x26, x3
  402bf4:	d37e7e62 	ubfiz	x2, x19, #2, #32
  402bf8:	f9003ffb 	str	x27, [sp, #120]
  402bfc:	b90093ff 	str	wzr, [sp, #144]
  402c00:	f90053e2 	str	x2, [sp, #160]
  402c04:	a90c0fe2 	stp	x2, x3, [sp, #192]
  402c08:	f9006be1 	str	x1, [sp, #208]
  402c0c:	8b140821 	add	x1, x1, x20, lsl #2
  402c10:	b94083f4 	ldr	w20, [sp, #128]
  402c14:	f90043f5 	str	x21, [sp, #128]
  402c18:	f9004fe1 	str	x1, [sp, #152]
  402c1c:	d503201f 	nop
  402c20:	d2800013 	mov	x19, #0x0                   	// #0
  402c24:	52825bc0 	mov	w0, #0x12de                	// #4830
  402c28:	72b2a080 	movk	w0, #0x9504, lsl #16
  402c2c:	6b00033f 	cmp	w25, w0
  402c30:	54001da0 	b.eq	402fe4 <_nl_load_domain+0x744>  // b.none
  402c34:	f100027f 	cmp	x19, #0x0
  402c38:	9a9a0300 	csel	x0, x24, x26, eq  // eq = none
  402c3c:	b9400001 	ldr	w1, [x0]
  402c40:	5ac00821 	rev	w1, w1
  402c44:	f9403fe0 	ldr	x0, [sp, #120]
  402c48:	d2800015 	mov	x21, #0x0                   	// #0
  402c4c:	8b010001 	add	x1, x0, x1
  402c50:	b9400820 	ldr	w0, [x1, #8]
  402c54:	3100041f 	cmn	w0, #0x1
  402c58:	1a9f07e0 	cset	w0, ne  // ne = any
  402c5c:	35001ea0 	cbnz	w0, 403030 <_nl_load_domain+0x790>
  402c60:	910423e0 	add	x0, sp, #0x108
  402c64:	f8337815 	str	x21, [x0, x19, lsl #3]
  402c68:	b4001cf3 	cbz	x19, 403004 <_nl_load_domain+0x764>
  402c6c:	b94093e1 	ldr	w1, [sp, #144]
  402c70:	f94087e0 	ldr	x0, [sp, #264]
  402c74:	11000421 	add	w1, w1, #0x1
  402c78:	b90093e1 	str	w1, [sp, #144]
  402c7c:	f9408be1 	ldr	x1, [sp, #272]
  402c80:	8b010000 	add	x0, x0, x1
  402c84:	f94053e1 	ldr	x1, [sp, #160]
  402c88:	8b000020 	add	x0, x1, x0
  402c8c:	f90053e0 	str	x0, [sp, #160]
  402c90:	f9404fe0 	ldr	x0, [sp, #152]
  402c94:	91001318 	add	x24, x24, #0x4
  402c98:	9100135a 	add	x26, x26, #0x4
  402c9c:	eb18001f 	cmp	x0, x24
  402ca0:	54fffc01 	b.ne	402c20 <_nl_load_domain+0x380>  // b.any
  402ca4:	b94093f3 	ldr	w19, [sp, #144]
  402ca8:	b940abfa 	ldr	w26, [sp, #168]
  402cac:	a947d7fb 	ldp	x27, x21, [sp, #120]
  402cb0:	a94b5ff8 	ldp	x24, x23, [sp, #176]
  402cb4:	35003513 	cbnz	w19, 403354 <_nl_load_domain+0xab4>
  402cb8:	b90042ff 	str	wzr, [x23, #64]
  402cbc:	a904feff 	stp	xzr, xzr, [x23, #72]
  402cc0:	f94047e0 	ldr	x0, [sp, #136]
  402cc4:	9400434b 	bl	4139f0 <__free>
  402cc8:	14000013 	b	402d14 <_nl_load_domain+0x474>
  402ccc:	13107c01 	asr	w1, w0, #16
  402cd0:	7100043f 	cmp	w1, #0x1
  402cd4:	54000a68 	b.hi	402e20 <_nl_load_domain+0x580>  // b.pmore
  402cd8:	29424f61 	ldp	w1, w19, [x27, #16]
  402cdc:	29410f64 	ldp	w4, w3, [x27, #8]
  402ce0:	8b010361 	add	x1, x27, x1
  402ce4:	b9002ae4 	str	w4, [x23, #40]
  402ce8:	71000a7f 	cmp	w19, #0x2
  402cec:	8b030363 	add	x3, x27, x3
  402cf0:	a90306e3 	stp	x3, x1, [x23, #48]
  402cf4:	b9005af3 	str	w19, [x23, #88]
  402cf8:	54000bc8 	b.hi	402e70 <_nl_load_domain+0x5d0>  // b.pmore
  402cfc:	f90032ff 	str	xzr, [x23, #96]
  402d00:	12003c00 	and	w0, w0, #0xffff
  402d04:	b9006af4 	str	w20, [x23, #104]
  402d08:	350008c0 	cbnz	w0, 402e20 <_nl_load_domain+0x580>
  402d0c:	b90042ff 	str	wzr, [x23, #64]
  402d10:	a904feff 	stp	xzr, xzr, [x23, #72]
  402d14:	d0000260 	adrp	x0, 450000 <free_mem+0x48>
  402d18:	a9077eff 	stp	xzr, xzr, [x23, #112]
  402d1c:	f942e800 	ldr	x0, [x0, #1488]
  402d20:	b4000080 	cbz	x0, 402d30 <_nl_load_domain+0x490>
  402d24:	d2800001 	mov	x1, #0x0                   	// #0
  402d28:	910202e0 	add	x0, x23, #0x80
  402d2c:	d503201f 	nop
  402d30:	9e660101 	fmov	x1, d8
  402d34:	d00002e2 	adrp	x2, 460000 <translit_from_idx+0x1030>
  402d38:	910403e4 	add	x4, sp, #0x100
  402d3c:	91396042 	add	x2, x2, #0xe58
  402d40:	52800003 	mov	w3, #0x0                   	// #0
  402d44:	aa1503e0 	mov	x0, x21
  402d48:	97fffa3c 	bl	401638 <_nl_find_msg>
  402d4c:	b100041f 	cmn	x0, #0x1
  402d50:	540019e0 	b.eq	40308c <_nl_load_domain+0x7ec>  // b.none
  402d54:	910302e2 	add	x2, x23, #0xc0
  402d58:	9102e2e1 	add	x1, x23, #0xb8
  402d5c:	94000925 	bl	4051f0 <__gettext_extract_plural>
  402d60:	a94363f7 	ldp	x23, x24, [sp, #48]
  402d64:	a9446bf9 	ldp	x25, x26, [sp, #64]
  402d68:	b94006c1 	ldr	w1, [x22, #4]
  402d6c:	51000421 	sub	w1, w1, #0x1
  402d70:	52800020 	mov	w0, #0x1                   	// #1
  402d74:	b9000aa0 	str	w0, [x21, #8]
  402d78:	b90006c1 	str	w1, [x22, #4]
  402d7c:	34000181 	cbz	w1, 402dac <_nl_load_domain+0x50c>
  402d80:	f940cfe0 	ldr	x0, [sp, #408]
  402d84:	f9400381 	ldr	x1, [x28]
  402d88:	eb010000 	subs	x0, x0, x1
  402d8c:	d2800001 	mov	x1, #0x0                   	// #0
  402d90:	540048c1 	b.ne	4036a8 <_nl_load_domain+0xe08>  // b.any
  402d94:	a94153f3 	ldp	x19, x20, [sp, #16]
  402d98:	a9425bf5 	ldp	x21, x22, [sp, #32]
  402d9c:	a94573fb 	ldp	x27, x28, [sp, #80]
  402da0:	fd4033e8 	ldr	d8, [sp, #96]
  402da4:	a8da7bfd 	ldp	x29, x30, [sp], #416
  402da8:	d65f03c0 	ret
  402dac:	f90006df 	str	xzr, [x22, #8]
  402db0:	aa1603e1 	mov	x1, x22
  402db4:	52800000 	mov	w0, #0x0                   	// #0
  402db8:	94011e26 	bl	44a650 <__aarch64_swp4_rel>
  402dbc:	7100041f 	cmp	w0, #0x1
  402dc0:	54fffe0d 	b.le	402d80 <_nl_load_domain+0x4e0>
  402dc4:	aa1603e0 	mov	x0, x22
  402dc8:	d2801021 	mov	x1, #0x81                  	// #129
  402dcc:	d2800022 	mov	x2, #0x1                   	// #1
  402dd0:	d2800003 	mov	x3, #0x0                   	// #0
  402dd4:	d2800c48 	mov	x8, #0x62                  	// #98
  402dd8:	d4000001 	svc	#0x0
  402ddc:	17ffffe9 	b	402d80 <_nl_load_domain+0x4e0>
  402de0:	b100041f 	cmn	x0, #0x1
  402de4:	540000a1 	b.ne	402df8 <_nl_load_domain+0x558>  // b.any
  402de8:	f9403fe0 	ldr	x0, [sp, #120]
  402dec:	b8606a80 	ldr	w0, [x20, x0]
  402df0:	7100101f 	cmp	w0, #0x4
  402df4:	54000c00 	b.eq	402f74 <_nl_load_domain+0x6d4>  // b.none
  402df8:	a94363f7 	ldp	x23, x24, [sp, #48]
  402dfc:	2a1303e0 	mov	w0, w19
  402e00:	94005804 	bl	418e10 <__close_nocancel>
  402e04:	b94006c1 	ldr	w1, [x22, #4]
  402e08:	a9446bf9 	ldp	x25, x26, [sp, #64]
  402e0c:	51000421 	sub	w1, w1, #0x1
  402e10:	17ffffd8 	b	402d70 <_nl_load_domain+0x4d0>
  402e14:	aa1603e0 	mov	x0, x22
  402e18:	94002f5a 	bl	40eb80 <__lll_lock_wait_private>
  402e1c:	17fffeba 	b	402904 <_nl_load_domain+0x64>
  402e20:	d2800000 	mov	x0, #0x0                   	// #0
  402e24:	940042f3 	bl	4139f0 <__free>
  402e28:	350001da 	cbnz	w26, 402e60 <_nl_load_domain+0x5c0>
  402e2c:	aa1b03e0 	mov	x0, x27
  402e30:	940042f0 	bl	4139f0 <__free>
  402e34:	aa1703e0 	mov	x0, x23
  402e38:	940042ee 	bl	4139f0 <__free>
  402e3c:	b94006c1 	ldr	w1, [x22, #4]
  402e40:	a94363f7 	ldp	x23, x24, [sp, #48]
  402e44:	51000421 	sub	w1, w1, #0x1
  402e48:	a9446bf9 	ldp	x25, x26, [sp, #64]
  402e4c:	f9000abf 	str	xzr, [x21, #16]
  402e50:	17ffffc8 	b	402d70 <_nl_load_domain+0x4d0>
  402e54:	b94006c1 	ldr	w1, [x22, #4]
  402e58:	51000421 	sub	w1, w1, #0x1
  402e5c:	17ffffc5 	b	402d70 <_nl_load_domain+0x4d0>
  402e60:	aa1803e1 	mov	x1, x24
  402e64:	aa1b03e0 	mov	x0, x27
  402e68:	9400593e 	bl	419360 <__munmap>
  402e6c:	17fffff2 	b	402e34 <_nl_load_domain+0x594>
  402e70:	b9401b61 	ldr	w1, [x27, #24]
  402e74:	17fffef8 	b	402a54 <_nl_load_domain+0x1b4>
  402e78:	aa1803e1 	mov	x1, x24
  402e7c:	aa1b03e0 	mov	x0, x27
  402e80:	94005938 	bl	419360 <__munmap>
  402e84:	b94006c1 	ldr	w1, [x22, #4]
  402e88:	a94363f7 	ldp	x23, x24, [sp, #48]
  402e8c:	51000421 	sub	w1, w1, #0x1
  402e90:	a9446bf9 	ldp	x25, x26, [sp, #64]
  402e94:	17ffffb7 	b	402d70 <_nl_load_domain+0x4d0>
  402e98:	8b204360 	add	x0, x27, w0, uxtw
  402e9c:	17ffff34 	b	402b6c <_nl_load_domain+0x2cc>
  402ea0:	39400404 	ldrb	w4, [x0, #1]
  402ea4:	d2800002 	mov	x2, #0x0                   	// #0
  402ea8:	7101489f 	cmp	w4, #0x52
  402eac:	54ffe781 	b.ne	402b9c <_nl_load_domain+0x2fc>  // b.any
  402eb0:	39400804 	ldrb	w4, [x0, #2]
  402eb4:	7101249f 	cmp	w4, #0x49
  402eb8:	54ffe721 	b.ne	402b9c <_nl_load_domain+0x2fc>  // b.any
  402ebc:	39400c04 	ldrb	w4, [x0, #3]
  402ec0:	7101909f 	cmp	w4, #0x64
  402ec4:	121a7892 	and	w18, w4, #0xffffffdf
  402ec8:	1a9f17e5 	cset	w5, eq  // eq = none
  402ecc:	7101a49f 	cmp	w4, #0x69
  402ed0:	1a9f14a5 	csinc	w5, w5, wzr, ne  // ne = any
  402ed4:	7101bc9f 	cmp	w4, #0x6f
  402ed8:	1a9f14ac 	csinc	w12, w5, wzr, ne  // ne = any
  402edc:	7101d49f 	cmp	w4, #0x75
  402ee0:	1a9f1586 	csinc	w6, w12, wzr, ne  // ne = any
  402ee4:	7101625f 	cmp	w18, #0x58
  402ee8:	7a4018c0 	ccmp	w6, #0x0, #0x0, ne  // ne = any
  402eec:	54ffe580 	b.eq	402b9c <_nl_load_domain+0x2fc>  // b.none
  402ef0:	39401012 	ldrb	w18, [x0, #4]
  402ef4:	7100e25f 	cmp	w18, #0x38
  402ef8:	54001c40 	b.eq	403280 <_nl_load_domain+0x9e0>  // b.none
  402efc:	7100c65f 	cmp	w18, #0x31
  402f00:	54001dc0 	b.eq	4032b8 <_nl_load_domain+0xa18>  // b.none
  402f04:	7100ce5f 	cmp	w18, #0x33
  402f08:	54000d61 	b.ne	4030b4 <_nl_load_domain+0x814>  // b.any
  402f0c:	39401412 	ldrb	w18, [x0, #5]
  402f10:	7100ca5f 	cmp	w18, #0x32
  402f14:	54ffe441 	b.ne	402b9c <_nl_load_domain+0x2fc>  // b.any
  402f18:	39401800 	ldrb	w0, [x0, #6]
  402f1c:	35003ea0 	cbnz	w0, 4036f0 <_nl_load_domain+0xe50>
  402f20:	7101909f 	cmp	w4, #0x64
  402f24:	54003fa0 	b.eq	403718 <_nl_load_domain+0xe78>  // b.none
  402f28:	35003fc5 	cbnz	w5, 403720 <_nl_load_domain+0xe80>
  402f2c:	3500402c 	cbnz	w12, 403730 <_nl_load_domain+0xe90>
  402f30:	35003fc6 	cbnz	w6, 403728 <_nl_load_domain+0xe88>
  402f34:	7101e09f 	cmp	w4, #0x78
  402f38:	54004400 	b.eq	4037b8 <_nl_load_domain+0xf18>  // b.none
  402f3c:	7101609f 	cmp	w4, #0x58
  402f40:	54005ca1 	b.ne	403ad4 <_nl_load_domain+0x1234>  // b.any
  402f44:	d00002e2 	adrp	x2, 460000 <translit_from_idx+0x1030>
  402f48:	91376042 	add	x2, x2, #0xdd8
  402f4c:	17ffff14 	b	402b9c <_nl_load_domain+0x2fc>
  402f50:	aa1803e0 	mov	x0, x24
  402f54:	94004113 	bl	4133a0 <__libc_malloc>
  402f58:	aa0003fb 	mov	x27, x0
  402f5c:	b4fff4e0 	cbz	x0, 402df8 <_nl_load_domain+0x558>
  402f60:	aa0003f7 	mov	x23, x0
  402f64:	aa1803f9 	mov	x25, x24
  402f68:	f0000400 	adrp	x0, 485000 <__FRAME_END__+0x103b0>
  402f6c:	f947c000 	ldr	x0, [x0, #3968]
  402f70:	f9003fe0 	str	x0, [sp, #120]
  402f74:	aa1903e2 	mov	x2, x25
  402f78:	aa1703e1 	mov	x1, x23
  402f7c:	2a1303e0 	mov	w0, w19
  402f80:	9400585a 	bl	4190e8 <__read_nocancel>
  402f84:	f100001f 	cmp	x0, #0x0
  402f88:	54fff2cd 	b.le	402de0 <_nl_load_domain+0x540>
  402f8c:	8b0002f7 	add	x23, x23, x0
  402f90:	eb000339 	subs	x25, x25, x0
  402f94:	54ffff01 	b.ne	402f74 <_nl_load_domain+0x6d4>  // b.any
  402f98:	2a1303e0 	mov	w0, w19
  402f9c:	9400579d 	bl	418e10 <__close_nocancel>
  402fa0:	b9400379 	ldr	w25, [x27]
  402fa4:	52825bc1 	mov	w1, #0x12de                	// #4830
  402fa8:	72b2a081 	movk	w1, #0x9504, lsl #16
  402fac:	528092a0 	mov	w0, #0x495                 	// #1173
  402fb0:	6b01033f 	cmp	w25, w1
  402fb4:	72bbc240 	movk	w0, #0xde12, lsl #16
  402fb8:	1a9f07f4 	cset	w20, ne  // ne = any
  402fbc:	7100029f 	cmp	w20, #0x0
  402fc0:	7a401324 	ccmp	w25, w0, #0x4, ne  // ne = any
  402fc4:	54ffd040 	b.eq	4029cc <_nl_load_domain+0x12c>  // b.none
  402fc8:	aa1b03e0 	mov	x0, x27
  402fcc:	94004289 	bl	4139f0 <__free>
  402fd0:	b94006c1 	ldr	w1, [x22, #4]
  402fd4:	a94363f7 	ldp	x23, x24, [sp, #48]
  402fd8:	51000421 	sub	w1, w1, #0x1
  402fdc:	a9446bf9 	ldp	x25, x26, [sp, #64]
  402fe0:	17ffff64 	b	402d70 <_nl_load_domain+0x4d0>
  402fe4:	b4000513 	cbz	x19, 403084 <_nl_load_domain+0x7e4>
  402fe8:	b9400341 	ldr	w1, [x26]
  402fec:	17ffff16 	b	402c44 <_nl_load_domain+0x3a4>
  402ff0:	b9407be0 	ldr	w0, [sp, #120]
  402ff4:	34ffe8c0 	cbz	w0, 402d0c <_nl_load_domain+0x46c>
  402ff8:	2943d360 	ldp	w0, w20, [x27, #28]
  402ffc:	b90083e0 	str	w0, [sp, #128]
  403000:	17fffea8 	b	402aa0 <_nl_load_domain+0x200>
  403004:	d2800033 	mov	x19, #0x1                   	// #1
  403008:	17ffff07 	b	402c24 <_nl_load_domain+0x384>
  40300c:	a947d7fb 	ldp	x27, x21, [sp, #120]
  403010:	a94b5ff8 	ldp	x24, x23, [sp, #176]
  403014:	b940abfa 	ldr	w26, [sp, #168]
  403018:	f94047e0 	ldr	x0, [sp, #136]
  40301c:	94004275 	bl	4139f0 <__free>
  403020:	d2800000 	mov	x0, #0x0                   	// #0
  403024:	17ffff80 	b	402e24 <_nl_load_domain+0x584>
  403028:	d2800002 	mov	x2, #0x0                   	// #0
  40302c:	17fffedc 	b	402b9c <_nl_load_domain+0x2fc>
  403030:	9100103b 	add	x27, x1, #0x4
  403034:	1400000d 	b	403068 <_nl_load_domain+0x7c8>
  403038:	5ac00800 	rev	w0, w0
  40303c:	5ac00842 	rev	w2, w2
  403040:	8b150015 	add	x21, x0, x21
  403044:	3100045f 	cmn	w2, #0x1
  403048:	54ffe0c0 	b.eq	402c60 <_nl_load_domain+0x3c0>  // b.none
  40304c:	6b14005f 	cmp	w2, w20
  403050:	54fffde2 	b.cs	40300c <_nl_load_domain+0x76c>  // b.hs, b.nlast
  403054:	f8625ae0 	ldr	x0, [x23, w2, uxtw #3]
  403058:	b4ffe1c0 	cbz	x0, 402c90 <_nl_load_domain+0x3f0>
  40305c:	940048a9 	bl	415300 <__strlen>
  403060:	9100237b 	add	x27, x27, #0x8
  403064:	8b150015 	add	x21, x0, x21
  403068:	52825bc0 	mov	w0, #0x12de                	// #4830
  40306c:	72b2a080 	movk	w0, #0x9504, lsl #16
  403070:	6b00033f 	cmp	w25, w0
  403074:	29400b60 	ldp	w0, w2, [x27]
  403078:	54fffe01 	b.ne	403038 <_nl_load_domain+0x798>  // b.any
  40307c:	8b2042b5 	add	x21, x21, w0, uxtw
  403080:	17fffff1 	b	403044 <_nl_load_domain+0x7a4>
  403084:	b9400301 	ldr	w1, [x24]
  403088:	17fffeef 	b	402c44 <_nl_load_domain+0x3a4>
  40308c:	b0000260 	adrp	x0, 450000 <free_mem+0x48>
  403090:	f942ec00 	ldr	x0, [x0, #1496]
  403094:	b4000060 	cbz	x0, 4030a0 <_nl_load_domain+0x800>
  403098:	910202e0 	add	x0, x23, #0x80
  40309c:	d503201f 	nop
  4030a0:	f94012e0 	ldr	x0, [x23, #32]
  4030a4:	17ffff60 	b	402e24 <_nl_load_domain+0x584>
  4030a8:	8b214361 	add	x1, x27, w1, uxtw
  4030ac:	2a0003e0 	mov	w0, w0
  4030b0:	17fffec7 	b	402bcc <_nl_load_domain+0x32c>
  4030b4:	7100da5f 	cmp	w18, #0x36
  4030b8:	54000241 	b.ne	403100 <_nl_load_domain+0x860>  // b.any
  4030bc:	39401412 	ldrb	w18, [x0, #5]
  4030c0:	d2800002 	mov	x2, #0x0                   	// #0
  4030c4:	7100d25f 	cmp	w18, #0x34
  4030c8:	54ffd6a1 	b.ne	402b9c <_nl_load_domain+0x2fc>  // b.any
  4030cc:	39401800 	ldrb	w0, [x0, #6]
  4030d0:	35ffd660 	cbnz	w0, 402b9c <_nl_load_domain+0x2fc>
  4030d4:	7101909f 	cmp	w4, #0x64
  4030d8:	540034c0 	b.eq	403770 <_nl_load_domain+0xed0>  // b.none
  4030dc:	35003465 	cbnz	w5, 403768 <_nl_load_domain+0xec8>
  4030e0:	3500340c 	cbnz	w12, 403760 <_nl_load_domain+0xec0>
  4030e4:	350033a6 	cbnz	w6, 403758 <_nl_load_domain+0xeb8>
  4030e8:	7101e09f 	cmp	w4, #0x78
  4030ec:	54003460 	b.eq	403778 <_nl_load_domain+0xed8>  // b.none
  4030f0:	7101609f 	cmp	w4, #0x58
  4030f4:	54004f01 	b.ne	403ad4 <_nl_load_domain+0x1234>  // b.any
  4030f8:	aa0703e2 	mov	x2, x7
  4030fc:	17fffea8 	b	402b9c <_nl_load_domain+0x2fc>
  403100:	7101325f 	cmp	w18, #0x4c
  403104:	540004c1 	b.ne	40319c <_nl_load_domain+0x8fc>  // b.any
  403108:	39401412 	ldrb	w18, [x0, #5]
  40310c:	d2800002 	mov	x2, #0x0                   	// #0
  403110:	7101165f 	cmp	w18, #0x45
  403114:	54ffd441 	b.ne	402b9c <_nl_load_domain+0x2fc>  // b.any
  403118:	39401812 	ldrb	w18, [x0, #6]
  40311c:	7101065f 	cmp	w18, #0x41
  403120:	54ffd3e1 	b.ne	402b9c <_nl_load_domain+0x2fc>  // b.any
  403124:	39401c12 	ldrb	w18, [x0, #7]
  403128:	71014e5f 	cmp	w18, #0x53
  40312c:	54ffd381 	b.ne	402b9c <_nl_load_domain+0x2fc>  // b.any
  403130:	39402012 	ldrb	w18, [x0, #8]
  403134:	7101525f 	cmp	w18, #0x54
  403138:	54ffd321 	b.ne	402b9c <_nl_load_domain+0x2fc>  // b.any
  40313c:	39402412 	ldrb	w18, [x0, #9]
  403140:	7100e25f 	cmp	w18, #0x38
  403144:	540039a0 	b.eq	403878 <_nl_load_domain+0xfd8>  // b.none
  403148:	7100c65f 	cmp	w18, #0x31
  40314c:	54003740 	b.eq	403834 <_nl_load_domain+0xf94>  // b.none
  403150:	7100ce5f 	cmp	w18, #0x33
  403154:	54003621 	b.ne	403818 <_nl_load_domain+0xf78>  // b.any
  403158:	39402812 	ldrb	w18, [x0, #10]
  40315c:	7100ca5f 	cmp	w18, #0x32
  403160:	54ffd1e1 	b.ne	402b9c <_nl_load_domain+0x2fc>  // b.any
  403164:	39402c00 	ldrb	w0, [x0, #11]
  403168:	35003540 	cbnz	w0, 403810 <_nl_load_domain+0xf70>
  40316c:	7101909f 	cmp	w4, #0x64
  403170:	540034c0 	b.eq	403808 <_nl_load_domain+0xf68>  // b.none
  403174:	35003465 	cbnz	w5, 403800 <_nl_load_domain+0xf60>
  403178:	3500340c 	cbnz	w12, 4037f8 <_nl_load_domain+0xf58>
  40317c:	350033a6 	cbnz	w6, 4037f0 <_nl_load_domain+0xf50>
  403180:	7101e09f 	cmp	w4, #0x78
  403184:	54002e20 	b.eq	403748 <_nl_load_domain+0xea8>  // b.none
  403188:	7101609f 	cmp	w4, #0x58
  40318c:	54004a41 	b.ne	403ad4 <_nl_load_domain+0x1234>  // b.any
  403190:	b00002e2 	adrp	x2, 460000 <translit_from_idx+0x1030>
  403194:	91376042 	add	x2, x2, #0xdd8
  403198:	17fffe81 	b	402b9c <_nl_load_domain+0x2fc>
  40319c:	71011a5f 	cmp	w18, #0x46
  4031a0:	54000441 	b.ne	403228 <_nl_load_domain+0x988>  // b.any
  4031a4:	39401412 	ldrb	w18, [x0, #5]
  4031a8:	d2800002 	mov	x2, #0x0                   	// #0
  4031ac:	7101065f 	cmp	w18, #0x41
  4031b0:	54ffcf61 	b.ne	402b9c <_nl_load_domain+0x2fc>  // b.any
  4031b4:	39401812 	ldrb	w18, [x0, #6]
  4031b8:	71014e5f 	cmp	w18, #0x53
  4031bc:	54ffcf01 	b.ne	402b9c <_nl_load_domain+0x2fc>  // b.any
  4031c0:	39401c12 	ldrb	w18, [x0, #7]
  4031c4:	7101525f 	cmp	w18, #0x54
  4031c8:	54ffcea1 	b.ne	402b9c <_nl_load_domain+0x2fc>  // b.any
  4031cc:	39402012 	ldrb	w18, [x0, #8]
  4031d0:	7100e25f 	cmp	w18, #0x38
  4031d4:	540040a0 	b.eq	4039e8 <_nl_load_domain+0x1148>  // b.none
  4031d8:	7100c65f 	cmp	w18, #0x31
  4031dc:	54003e60 	b.eq	4039a8 <_nl_load_domain+0x1108>  // b.none
  4031e0:	7100ce5f 	cmp	w18, #0x33
  4031e4:	54003d41 	b.ne	40398c <_nl_load_domain+0x10ec>  // b.any
  4031e8:	39402412 	ldrb	w18, [x0, #9]
  4031ec:	7100ca5f 	cmp	w18, #0x32
  4031f0:	54ffcd61 	b.ne	402b9c <_nl_load_domain+0x2fc>  // b.any
  4031f4:	39402800 	ldrb	w0, [x0, #10]
  4031f8:	35003c60 	cbnz	w0, 403984 <_nl_load_domain+0x10e4>
  4031fc:	7101909f 	cmp	w4, #0x64
  403200:	54003be0 	b.eq	40397c <_nl_load_domain+0x10dc>  // b.none
  403204:	35003b85 	cbnz	w5, 403974 <_nl_load_domain+0x10d4>
  403208:	35003b2c 	cbnz	w12, 40396c <_nl_load_domain+0x10cc>
  40320c:	35003ac6 	cbnz	w6, 403964 <_nl_load_domain+0x10c4>
  403210:	7101e09f 	cmp	w4, #0x78
  403214:	540029e0 	b.eq	403750 <_nl_load_domain+0xeb0>  // b.none
  403218:	7101609f 	cmp	w4, #0x58
  40321c:	540045c1 	b.ne	403ad4 <_nl_load_domain+0x1234>  // b.any
  403220:	aa0703e2 	mov	x2, x7
  403224:	17fffe5e 	b	402b9c <_nl_load_domain+0x2fc>
  403228:	7101365f 	cmp	w18, #0x4d
  40322c:	54000681 	b.ne	4032fc <_nl_load_domain+0xa5c>  // b.any
  403230:	39401412 	ldrb	w18, [x0, #5]
  403234:	d2800002 	mov	x2, #0x0                   	// #0
  403238:	7101065f 	cmp	w18, #0x41
  40323c:	54ffcb01 	b.ne	402b9c <_nl_load_domain+0x2fc>  // b.any
  403240:	39401812 	ldrb	w18, [x0, #6]
  403244:	7101625f 	cmp	w18, #0x58
  403248:	54ffcaa1 	b.ne	402b9c <_nl_load_domain+0x2fc>  // b.any
  40324c:	39401c00 	ldrb	w0, [x0, #7]
  403250:	35ffca60 	cbnz	w0, 402b9c <_nl_load_domain+0x2fc>
  403254:	7101909f 	cmp	w4, #0x64
  403258:	54002940 	b.eq	403780 <_nl_load_domain+0xee0>  // b.none
  40325c:	35002a25 	cbnz	w5, 4037a0 <_nl_load_domain+0xf00>
  403260:	350029cc 	cbnz	w12, 403798 <_nl_load_domain+0xef8>
  403264:	35002966 	cbnz	w6, 403790 <_nl_load_domain+0xef0>
  403268:	7101e09f 	cmp	w4, #0x78
  40326c:	540028e0 	b.eq	403788 <_nl_load_domain+0xee8>  // b.none
  403270:	7101609f 	cmp	w4, #0x58
  403274:	54004301 	b.ne	403ad4 <_nl_load_domain+0x1234>  // b.any
  403278:	aa0703e2 	mov	x2, x7
  40327c:	17fffe48 	b	402b9c <_nl_load_domain+0x2fc>
  403280:	39401400 	ldrb	w0, [x0, #5]
  403284:	35ffc8c0 	cbnz	w0, 402b9c <_nl_load_domain+0x2fc>
  403288:	7101909f 	cmp	w4, #0x64
  40328c:	540022e0 	b.eq	4036e8 <_nl_load_domain+0xe48>  // b.none
  403290:	35002285 	cbnz	w5, 4036e0 <_nl_load_domain+0xe40>
  403294:	350023ac 	cbnz	w12, 403708 <_nl_load_domain+0xe68>
  403298:	35002346 	cbnz	w6, 403700 <_nl_load_domain+0xe60>
  40329c:	7101e09f 	cmp	w4, #0x78
  4032a0:	54002380 	b.eq	403710 <_nl_load_domain+0xe70>  // b.none
  4032a4:	7101609f 	cmp	w4, #0x58
  4032a8:	54004161 	b.ne	403ad4 <_nl_load_domain+0x1234>  // b.any
  4032ac:	b00002e2 	adrp	x2, 460000 <translit_from_idx+0x1030>
  4032b0:	91376042 	add	x2, x2, #0xdd8
  4032b4:	17fffe3a 	b	402b9c <_nl_load_domain+0x2fc>
  4032b8:	39401412 	ldrb	w18, [x0, #5]
  4032bc:	7100da5f 	cmp	w18, #0x36
  4032c0:	54ffc6e1 	b.ne	402b9c <_nl_load_domain+0x2fc>  // b.any
  4032c4:	39401800 	ldrb	w0, [x0, #6]
  4032c8:	35002080 	cbnz	w0, 4036d8 <_nl_load_domain+0xe38>
  4032cc:	7101909f 	cmp	w4, #0x64
  4032d0:	54002140 	b.eq	4036f8 <_nl_load_domain+0xe58>  // b.none
  4032d4:	35002365 	cbnz	w5, 403740 <_nl_load_domain+0xea0>
  4032d8:	3500230c 	cbnz	w12, 403738 <_nl_load_domain+0xe98>
  4032dc:	350026a6 	cbnz	w6, 4037b0 <_nl_load_domain+0xf10>
  4032e0:	7101e09f 	cmp	w4, #0x78
  4032e4:	54002620 	b.eq	4037a8 <_nl_load_domain+0xf08>  // b.none
  4032e8:	7101609f 	cmp	w4, #0x58
  4032ec:	54003f41 	b.ne	403ad4 <_nl_load_domain+0x1234>  // b.any
  4032f0:	b00002e2 	adrp	x2, 460000 <translit_from_idx+0x1030>
  4032f4:	91376042 	add	x2, x2, #0xdd8
  4032f8:	17fffe29 	b	402b9c <_nl_load_domain+0x2fc>
  4032fc:	7101425f 	cmp	w18, #0x50
  403300:	54002741 	b.ne	4037e8 <_nl_load_domain+0xf48>  // b.any
  403304:	39401412 	ldrb	w18, [x0, #5]
  403308:	d2800002 	mov	x2, #0x0                   	// #0
  40330c:	7101525f 	cmp	w18, #0x54
  403310:	54ffc461 	b.ne	402b9c <_nl_load_domain+0x2fc>  // b.any
  403314:	39401812 	ldrb	w18, [x0, #6]
  403318:	71014a5f 	cmp	w18, #0x52
  40331c:	54ffc401 	b.ne	402b9c <_nl_load_domain+0x2fc>  // b.any
  403320:	39401c00 	ldrb	w0, [x0, #7]
  403324:	35ffc3c0 	cbnz	w0, 402b9c <_nl_load_domain+0x2fc>
  403328:	7101909f 	cmp	w4, #0x64
  40332c:	540025a0 	b.eq	4037e0 <_nl_load_domain+0xf40>  // b.none
  403330:	35002545 	cbnz	w5, 4037d8 <_nl_load_domain+0xf38>
  403334:	350024ec 	cbnz	w12, 4037d0 <_nl_load_domain+0xf30>
  403338:	35002486 	cbnz	w6, 4037c8 <_nl_load_domain+0xf28>
  40333c:	7101e09f 	cmp	w4, #0x78
  403340:	54002400 	b.eq	4037c0 <_nl_load_domain+0xf20>  // b.none
  403344:	7101609f 	cmp	w4, #0x58
  403348:	54003c61 	b.ne	403ad4 <_nl_load_domain+0x1234>  // b.any
  40334c:	aa0703e2 	mov	x2, x7
  403350:	17fffe13 	b	402b9c <_nl_load_domain+0x2fc>
  403354:	f94053e1 	ldr	x1, [sp, #160]
  403358:	531f7a60 	lsl	w0, w19, #1
  40335c:	8b205020 	add	x0, x1, w0, uxtw #4
  403360:	94004010 	bl	4133a0 <__libc_malloc>
  403364:	f9005be0 	str	x0, [sp, #176]
  403368:	b4ffd5c0 	cbz	x0, 402e20 <_nl_load_domain+0x580>
  40336c:	d37c7e63 	ubfiz	x3, x19, #4, #32
  403370:	f90012e0 	str	x0, [x23, #32]
  403374:	8b030001 	add	x1, x0, x3
  403378:	f90057f7 	str	x23, [sp, #168]
  40337c:	f94063e0 	ldr	x0, [sp, #192]
  403380:	f9007ff5 	str	x21, [sp, #248]
  403384:	a94cdff5 	ldp	x21, x23, [sp, #200]
  403388:	8b030039 	add	x25, x1, x3
  40338c:	8b000328 	add	x8, x25, x0
  403390:	a90ee7f8 	stp	x24, x25, [sp, #232]
  403394:	aa0803f9 	mov	x25, x8
  403398:	f94047f8 	ldr	x24, [sp, #136]
  40339c:	b900a3ff 	str	wzr, [sp, #160]
  4033a0:	f9006fe1 	str	x1, [sp, #216]
  4033a4:	b900e7fa 	str	w26, [sp, #228]
  4033a8:	f94057e0 	ldr	x0, [sp, #168]
  4033ac:	52800009 	mov	w9, #0x0                   	// #0
  4033b0:	b940181a 	ldr	w26, [x0, #24]
  4033b4:	340014da 	cbz	w26, 40364c <_nl_load_domain+0xdac>
  4033b8:	7100013f 	cmp	w9, #0x0
  4033bc:	9a9502e0 	csel	x0, x23, x21, eq  // eq = none
  4033c0:	b9400001 	ldr	w1, [x0]
  4033c4:	5ac00821 	rev	w1, w1
  4033c8:	8b010361 	add	x1, x27, x1
  4033cc:	b9400820 	ldr	w0, [x1, #8]
  4033d0:	3100041f 	cmn	w0, #0x1
  4033d4:	1a9f07e0 	cset	w0, ne  // ne = any
  4033d8:	350004c0 	cbnz	w0, 403470 <_nl_load_domain+0xbd0>
  4033dc:	34001489 	cbz	w9, 40366c <_nl_load_domain+0xdcc>
  4033e0:	f94053e0 	ldr	x0, [sp, #160]
  4033e4:	a90bdff5 	stp	x21, x23, [sp, #184]
  4033e8:	aa1b03f7 	mov	x23, x27
  4033ec:	2a1a03f5 	mov	w21, w26
  4033f0:	aa1903fb 	mov	x27, x25
  4033f4:	d37c7c13 	ubfiz	x19, x0, #4, #32
  4033f8:	b9007bff 	str	wzr, [sp, #120]
  4033fc:	f9405be0 	ldr	x0, [sp, #176]
  403400:	8b130000 	add	x0, x0, x19
  403404:	f90067e0 	str	x0, [sp, #200]
  403408:	f9406fe0 	ldr	x0, [sp, #216]
  40340c:	8b130000 	add	x0, x0, x19
  403410:	f9006be0 	str	x0, [sp, #208]
  403414:	b9407be0 	ldr	w0, [sp, #120]
  403418:	34000455 	cbz	w21, 4034a0 <_nl_load_domain+0xc00>
  40341c:	340014c0 	cbz	w0, 4036b4 <_nl_load_domain+0xe14>
  403420:	f9405fe0 	ldr	x0, [sp, #184]
  403424:	f9406bf9 	ldr	x25, [sp, #208]
  403428:	b9400000 	ldr	w0, [x0]
  40342c:	5ac00800 	rev	w0, w0
  403430:	8b0002f3 	add	x19, x23, x0
  403434:	b8606af4 	ldr	w20, [x23, x0]
  403438:	29408660 	ldp	w0, w1, [x19, #4]
  40343c:	5ac00a94 	rev	w20, w20
  403440:	8b1402f4 	add	x20, x23, x20
  403444:	3100043f 	cmn	w1, #0x1
  403448:	5ac00800 	rev	w0, w0
  40344c:	540003e1 	b.ne	4034c8 <_nl_load_domain+0xc28>  // b.any
  403450:	a9005320 	stp	x0, x20, [x25]
  403454:	b9407be0 	ldr	w0, [sp, #120]
  403458:	35000600 	cbnz	w0, 403518 <_nl_load_domain+0xc78>
  40345c:	52800020 	mov	w0, #0x1                   	// #1
  403460:	b9007be0 	str	w0, [sp, #120]
  403464:	f94057e0 	ldr	x0, [sp, #168]
  403468:	b9401815 	ldr	w21, [x0, #24]
  40346c:	17ffffea 	b	403414 <_nl_load_domain+0xb74>
  403470:	91001021 	add	x1, x1, #0x4
  403474:	14000004 	b	403484 <_nl_load_domain+0xbe4>
  403478:	f8605b00 	ldr	x0, [x24, w0, uxtw #3]
  40347c:	b40005a0 	cbz	x0, 403530 <_nl_load_domain+0xc90>
  403480:	91002021 	add	x1, x1, #0x8
  403484:	b9400420 	ldr	w0, [x1, #4]
  403488:	7100035f 	cmp	w26, #0x0
  40348c:	5ac00802 	rev	w2, w0
  403490:	1a801040 	csel	w0, w2, w0, ne  // ne = any
  403494:	3100041f 	cmn	w0, #0x1
  403498:	54ffff01 	b.ne	403478 <_nl_load_domain+0xbd8>  // b.any
  40349c:	17ffffd0 	b	4033dc <_nl_load_domain+0xb3c>
  4034a0:	34001100 	cbz	w0, 4036c0 <_nl_load_domain+0xe20>
  4034a4:	f9405fe0 	ldr	x0, [sp, #184]
  4034a8:	f9406bf9 	ldr	x25, [sp, #208]
  4034ac:	b9400000 	ldr	w0, [x0]
  4034b0:	8b0002f3 	add	x19, x23, x0
  4034b4:	b8606af4 	ldr	w20, [x23, x0]
  4034b8:	8b1402f4 	add	x20, x23, x20
  4034bc:	29408660 	ldp	w0, w1, [x19, #4]
  4034c0:	3100043f 	cmn	w1, #0x1
  4034c4:	54fffc60 	b.eq	403450 <_nl_load_domain+0xbb0>  // b.none
  4034c8:	91001273 	add	x19, x19, #0x4
  4034cc:	f900073b 	str	x27, [x25, #8]
  4034d0:	29406a60 	ldp	w0, w26, [x19]
  4034d4:	34000075 	cbz	w21, 4034e0 <_nl_load_domain+0xc40>
  4034d8:	5ac00800 	rev	w0, w0
  4034dc:	5ac00b5a 	rev	w26, w26
  4034e0:	35000ca0 	cbnz	w0, 403674 <_nl_load_domain+0xdd4>
  4034e4:	3100075f 	cmn	w26, #0x1
  4034e8:	54000d80 	b.eq	403698 <_nl_load_domain+0xdf8>  // b.none
  4034ec:	f87a5b01 	ldr	x1, [x24, w26, uxtw #3]
  4034f0:	f90043e1 	str	x1, [sp, #128]
  4034f4:	91002273 	add	x19, x19, #0x8
  4034f8:	aa0103e0 	mov	x0, x1
  4034fc:	94004781 	bl	415300 <__strlen>
  403500:	aa0003e2 	mov	x2, x0
  403504:	f94043e1 	ldr	x1, [sp, #128]
  403508:	aa1b03e0 	mov	x0, x27
  40350c:	8b02037b 	add	x27, x27, x2
  403510:	97fff344 	bl	400220 <.plt+0x10>
  403514:	17ffffef 	b	4034d0 <_nl_load_domain+0xc30>
  403518:	aa1b03f9 	mov	x25, x27
  40351c:	aa1703fb 	mov	x27, x23
  403520:	a94bdff5 	ldp	x21, x23, [sp, #184]
  403524:	b940a3e0 	ldr	w0, [sp, #160]
  403528:	11000400 	add	w0, w0, #0x1
  40352c:	b900a3e0 	str	w0, [sp, #160]
  403530:	f9404fe0 	ldr	x0, [sp, #152]
  403534:	910012f7 	add	x23, x23, #0x4
  403538:	910012b5 	add	x21, x21, #0x4
  40353c:	eb17001f 	cmp	x0, x23
  403540:	54fff341 	b.ne	4033a8 <_nl_load_domain+0xb08>  // b.any
  403544:	b94093e0 	ldr	w0, [sp, #144]
  403548:	b940a3e1 	ldr	w1, [sp, #160]
  40354c:	b940e7fa 	ldr	w26, [sp, #228]
  403550:	6b01001f 	cmp	w0, w1
  403554:	f94057f7 	ldr	x23, [sp, #168]
  403558:	a94ee7f8 	ldp	x24, x25, [sp, #232]
  40355c:	f9407ff5 	ldr	x21, [sp, #248]
  403560:	54002ba1 	b.ne	403ad4 <_nl_load_domain+0x1234>  // b.any
  403564:	b9405ae8 	ldr	w8, [x23, #88]
  403568:	34000188 	cbz	w8, 403598 <_nl_load_domain+0xcf8>
  40356c:	b9406ae9 	ldr	w9, [x23, #104]
  403570:	d2800000 	mov	x0, #0x0                   	// #0
  403574:	f94032ea 	ldr	x10, [x23, #96]
  403578:	7100013f 	cmp	w9, #0x0
  40357c:	b8607941 	ldr	w1, [x10, x0, lsl #2]
  403580:	5ac00822 	rev	w2, w1
  403584:	1a811041 	csel	w1, w2, w1, ne  // ne = any
  403588:	b8207b21 	str	w1, [x25, x0, lsl #2]
  40358c:	91000400 	add	x0, x0, #0x1
  403590:	6b00011f 	cmp	w8, w0
  403594:	54ffff28 	b.hi	403578 <_nl_load_domain+0xcd8>  // b.pmore
  403598:	f9405be0 	ldr	x0, [sp, #176]
  40359c:	52800013 	mov	w19, #0x0                   	// #0
  4035a0:	91002014 	add	x20, x0, #0x8
  4035a4:	aa1403e0 	mov	x0, x20
  4035a8:	2a1303f4 	mov	w20, w19
  4035ac:	aa1703f3 	mov	x19, x23
  4035b0:	aa0003f7 	mov	x23, x0
  4035b4:	f94002e0 	ldr	x0, [x23]
  4035b8:	9400075c 	bl	405328 <__hash_string>
  4035bc:	b9405a62 	ldr	w2, [x19, #88]
  4035c0:	51000844 	sub	w4, w2, #0x2
  4035c4:	1ac20801 	udiv	w1, w0, w2
  4035c8:	1ac40803 	udiv	w3, w0, w4
  4035cc:	1b028021 	msub	w1, w1, w2, w0
  4035d0:	1b048063 	msub	w3, w3, w4, w0
  4035d4:	11000463 	add	w3, w3, #0x1
  4035d8:	4b030045 	sub	w5, w2, w3
  4035dc:	4b020062 	sub	w2, w3, w2
  4035e0:	14000005 	b	4035f4 <_nl_load_domain+0xd54>
  4035e4:	6b0100bf 	cmp	w5, w1
  4035e8:	0b020020 	add	w0, w1, w2
  4035ec:	0b030021 	add	w1, w1, w3
  4035f0:	1a808021 	csel	w1, w1, w0, hi  // hi = pmore
  4035f4:	2a0103e0 	mov	w0, w1
  4035f8:	8b000b24 	add	x4, x25, x0, lsl #2
  4035fc:	b8607b20 	ldr	w0, [x25, x0, lsl #2]
  403600:	35ffff20 	cbnz	w0, 4035e4 <_nl_load_domain+0xd44>
  403604:	b9402a60 	ldr	w0, [x19, #40]
  403608:	910042f7 	add	x23, x23, #0x10
  40360c:	11000400 	add	w0, w0, #0x1
  403610:	0b140000 	add	w0, w0, w20
  403614:	b9000080 	str	w0, [x4]
  403618:	b94093e0 	ldr	w0, [sp, #144]
  40361c:	11000694 	add	w20, w20, #0x1
  403620:	6b14001f 	cmp	w0, w20
  403624:	54fffc81 	b.ne	4035b4 <_nl_load_domain+0xd14>  // b.any
  403628:	b9004260 	str	w0, [x19, #64]
  40362c:	aa1303f7 	mov	x23, x19
  403630:	f9405be0 	ldr	x0, [sp, #176]
  403634:	f9002660 	str	x0, [x19, #72]
  403638:	f9406fe0 	ldr	x0, [sp, #216]
  40363c:	f9002a60 	str	x0, [x19, #80]
  403640:	f9003279 	str	x25, [x19, #96]
  403644:	b9006a7f 	str	wzr, [x19, #104]
  403648:	17fffd9e 	b	402cc0 <_nl_load_domain+0x420>
  40364c:	34000229 	cbz	w9, 403690 <_nl_load_domain+0xdf0>
  403650:	b94002a1 	ldr	w1, [x21]
  403654:	8b010361 	add	x1, x27, x1
  403658:	b9400820 	ldr	w0, [x1, #8]
  40365c:	3100041f 	cmn	w0, #0x1
  403660:	1a9f07e0 	cset	w0, ne  // ne = any
  403664:	34ffebc0 	cbz	w0, 4033dc <_nl_load_domain+0xb3c>
  403668:	17ffff82 	b	403470 <_nl_load_domain+0xbd0>
  40366c:	52800029 	mov	w9, #0x1                   	// #1
  403670:	17ffff51 	b	4033b4 <_nl_load_domain+0xb14>
  403674:	2a0003e2 	mov	w2, w0
  403678:	aa1403e1 	mov	x1, x20
  40367c:	aa1b03e0 	mov	x0, x27
  403680:	8b020294 	add	x20, x20, x2
  403684:	8b02037b 	add	x27, x27, x2
  403688:	97fff2e6 	bl	400220 <.plt+0x10>
  40368c:	17ffff96 	b	4034e4 <_nl_load_domain+0xc44>
  403690:	b94002e1 	ldr	w1, [x23]
  403694:	17fffff0 	b	403654 <_nl_load_domain+0xdb4>
  403698:	f9400720 	ldr	x0, [x25, #8]
  40369c:	cb000360 	sub	x0, x27, x0
  4036a0:	f9000320 	str	x0, [x25]
  4036a4:	17ffff6c 	b	403454 <_nl_load_domain+0xbb4>
  4036a8:	a90363f7 	stp	x23, x24, [sp, #48]
  4036ac:	a9046bf9 	stp	x25, x26, [sp, #64]
  4036b0:	94005bd6 	bl	41a608 <__stack_chk_fail>
  4036b4:	a94c67e0 	ldp	x0, x25, [sp, #192]
  4036b8:	b9400000 	ldr	w0, [x0]
  4036bc:	17ffff5c 	b	40342c <_nl_load_domain+0xb8c>
  4036c0:	a94c67e0 	ldp	x0, x25, [sp, #192]
  4036c4:	b9400000 	ldr	w0, [x0]
  4036c8:	8b0002f3 	add	x19, x23, x0
  4036cc:	b8606af4 	ldr	w20, [x23, x0]
  4036d0:	8b1402f4 	add	x20, x23, x20
  4036d4:	17ffff7a 	b	4034bc <_nl_load_domain+0xc1c>
  4036d8:	d2800002 	mov	x2, #0x0                   	// #0
  4036dc:	17fffd30 	b	402b9c <_nl_load_domain+0x2fc>
  4036e0:	f9404fe2 	ldr	x2, [sp, #152]
  4036e4:	17fffd2e 	b	402b9c <_nl_load_domain+0x2fc>
  4036e8:	f9404be2 	ldr	x2, [sp, #144]
  4036ec:	17fffd2c 	b	402b9c <_nl_load_domain+0x2fc>
  4036f0:	d2800002 	mov	x2, #0x0                   	// #0
  4036f4:	17fffd2a 	b	402b9c <_nl_load_domain+0x2fc>
  4036f8:	f9404be2 	ldr	x2, [sp, #144]
  4036fc:	17fffd28 	b	402b9c <_nl_load_domain+0x2fc>
  403700:	aa1e03e2 	mov	x2, x30
  403704:	17fffd26 	b	402b9c <_nl_load_domain+0x2fc>
  403708:	f94053e2 	ldr	x2, [sp, #160]
  40370c:	17fffd24 	b	402b9c <_nl_load_domain+0x2fc>
  403710:	f94057e2 	ldr	x2, [sp, #168]
  403714:	17fffd22 	b	402b9c <_nl_load_domain+0x2fc>
  403718:	f9404be2 	ldr	x2, [sp, #144]
  40371c:	17fffd20 	b	402b9c <_nl_load_domain+0x2fc>
  403720:	f9404fe2 	ldr	x2, [sp, #152]
  403724:	17fffd1e 	b	402b9c <_nl_load_domain+0x2fc>
  403728:	aa1e03e2 	mov	x2, x30
  40372c:	17fffd1c 	b	402b9c <_nl_load_domain+0x2fc>
  403730:	f94053e2 	ldr	x2, [sp, #160]
  403734:	17fffd1a 	b	402b9c <_nl_load_domain+0x2fc>
  403738:	f94053e2 	ldr	x2, [sp, #160]
  40373c:	17fffd18 	b	402b9c <_nl_load_domain+0x2fc>
  403740:	f9404fe2 	ldr	x2, [sp, #152]
  403744:	17fffd16 	b	402b9c <_nl_load_domain+0x2fc>
  403748:	f94057e2 	ldr	x2, [sp, #168]
  40374c:	17fffd14 	b	402b9c <_nl_load_domain+0x2fc>
  403750:	aa0d03e2 	mov	x2, x13
  403754:	17fffd12 	b	402b9c <_nl_load_domain+0x2fc>
  403758:	aa0e03e2 	mov	x2, x14
  40375c:	17fffd10 	b	402b9c <_nl_load_domain+0x2fc>
  403760:	aa0f03e2 	mov	x2, x15
  403764:	17fffd0e 	b	402b9c <_nl_load_domain+0x2fc>
  403768:	aa1003e2 	mov	x2, x16
  40376c:	17fffd0c 	b	402b9c <_nl_load_domain+0x2fc>
  403770:	aa1103e2 	mov	x2, x17
  403774:	17fffd0a 	b	402b9c <_nl_load_domain+0x2fc>
  403778:	aa0d03e2 	mov	x2, x13
  40377c:	17fffd08 	b	402b9c <_nl_load_domain+0x2fc>
  403780:	aa1103e2 	mov	x2, x17
  403784:	17fffd06 	b	402b9c <_nl_load_domain+0x2fc>
  403788:	aa0d03e2 	mov	x2, x13
  40378c:	17fffd04 	b	402b9c <_nl_load_domain+0x2fc>
  403790:	aa0e03e2 	mov	x2, x14
  403794:	17fffd02 	b	402b9c <_nl_load_domain+0x2fc>
  403798:	aa0f03e2 	mov	x2, x15
  40379c:	17fffd00 	b	402b9c <_nl_load_domain+0x2fc>
  4037a0:	aa1003e2 	mov	x2, x16
  4037a4:	17fffcfe 	b	402b9c <_nl_load_domain+0x2fc>
  4037a8:	f94057e2 	ldr	x2, [sp, #168]
  4037ac:	17fffcfc 	b	402b9c <_nl_load_domain+0x2fc>
  4037b0:	aa1e03e2 	mov	x2, x30
  4037b4:	17fffcfa 	b	402b9c <_nl_load_domain+0x2fc>
  4037b8:	f94057e2 	ldr	x2, [sp, #168]
  4037bc:	17fffcf8 	b	402b9c <_nl_load_domain+0x2fc>
  4037c0:	aa0d03e2 	mov	x2, x13
  4037c4:	17fffcf6 	b	402b9c <_nl_load_domain+0x2fc>
  4037c8:	aa0e03e2 	mov	x2, x14
  4037cc:	17fffcf4 	b	402b9c <_nl_load_domain+0x2fc>
  4037d0:	aa0f03e2 	mov	x2, x15
  4037d4:	17fffcf2 	b	402b9c <_nl_load_domain+0x2fc>
  4037d8:	aa1003e2 	mov	x2, x16
  4037dc:	17fffcf0 	b	402b9c <_nl_load_domain+0x2fc>
  4037e0:	aa1103e2 	mov	x2, x17
  4037e4:	17fffcee 	b	402b9c <_nl_load_domain+0x2fc>
  4037e8:	d2800002 	mov	x2, #0x0                   	// #0
  4037ec:	17fffcec 	b	402b9c <_nl_load_domain+0x2fc>
  4037f0:	aa1e03e2 	mov	x2, x30
  4037f4:	17fffcea 	b	402b9c <_nl_load_domain+0x2fc>
  4037f8:	f94053e2 	ldr	x2, [sp, #160]
  4037fc:	17fffce8 	b	402b9c <_nl_load_domain+0x2fc>
  403800:	f9404fe2 	ldr	x2, [sp, #152]
  403804:	17fffce6 	b	402b9c <_nl_load_domain+0x2fc>
  403808:	f9404be2 	ldr	x2, [sp, #144]
  40380c:	17fffce4 	b	402b9c <_nl_load_domain+0x2fc>
  403810:	d2800002 	mov	x2, #0x0                   	// #0
  403814:	17fffce2 	b	402b9c <_nl_load_domain+0x2fc>
  403818:	7100da5f 	cmp	w18, #0x36
  40381c:	54ff9c01 	b.ne	402b9c <_nl_load_domain+0x2fc>  // b.any
  403820:	39402802 	ldrb	w2, [x0, #10]
  403824:	7100d05f 	cmp	w2, #0x34
  403828:	54000440 	b.eq	4038b0 <_nl_load_domain+0x1010>  // b.none
  40382c:	d2800002 	mov	x2, #0x0                   	// #0
  403830:	17fffcdb 	b	402b9c <_nl_load_domain+0x2fc>
  403834:	39402812 	ldrb	w18, [x0, #10]
  403838:	7100da5f 	cmp	w18, #0x36
  40383c:	54ff9b01 	b.ne	402b9c <_nl_load_domain+0x2fc>  // b.any
  403840:	39402c00 	ldrb	w0, [x0, #11]
  403844:	35ff9ac0 	cbnz	w0, 402b9c <_nl_load_domain+0x2fc>
  403848:	7101909f 	cmp	w4, #0x64
  40384c:	54000880 	b.eq	40395c <_nl_load_domain+0x10bc>  // b.none
  403850:	35000825 	cbnz	w5, 403954 <_nl_load_domain+0x10b4>
  403854:	350007cc 	cbnz	w12, 40394c <_nl_load_domain+0x10ac>
  403858:	35000766 	cbnz	w6, 403944 <_nl_load_domain+0x10a4>
  40385c:	7101e09f 	cmp	w4, #0x78
  403860:	54000420 	b.eq	4038e4 <_nl_load_domain+0x1044>  // b.none
  403864:	7101609f 	cmp	w4, #0x58
  403868:	54001361 	b.ne	403ad4 <_nl_load_domain+0x1234>  // b.any
  40386c:	b00002e2 	adrp	x2, 460000 <translit_from_idx+0x1030>
  403870:	91376042 	add	x2, x2, #0xdd8
  403874:	17fffcca 	b	402b9c <_nl_load_domain+0x2fc>
  403878:	39402800 	ldrb	w0, [x0, #10]
  40387c:	35ff9900 	cbnz	w0, 402b9c <_nl_load_domain+0x2fc>
  403880:	7101909f 	cmp	w4, #0x64
  403884:	540005c0 	b.eq	40393c <_nl_load_domain+0x109c>  // b.none
  403888:	35000565 	cbnz	w5, 403934 <_nl_load_domain+0x1094>
  40388c:	3500050c 	cbnz	w12, 40392c <_nl_load_domain+0x108c>
  403890:	350004a6 	cbnz	w6, 403924 <_nl_load_domain+0x1084>
  403894:	7101e09f 	cmp	w4, #0x78
  403898:	540002a0 	b.eq	4038ec <_nl_load_domain+0x104c>  // b.none
  40389c:	7101609f 	cmp	w4, #0x58
  4038a0:	540011a1 	b.ne	403ad4 <_nl_load_domain+0x1234>  // b.any
  4038a4:	b00002e2 	adrp	x2, 460000 <translit_from_idx+0x1030>
  4038a8:	91376042 	add	x2, x2, #0xdd8
  4038ac:	17fffcbc 	b	402b9c <_nl_load_domain+0x2fc>
  4038b0:	39402c00 	ldrb	w0, [x0, #11]
  4038b4:	35000340 	cbnz	w0, 40391c <_nl_load_domain+0x107c>
  4038b8:	7101909f 	cmp	w4, #0x64
  4038bc:	540002c0 	b.eq	403914 <_nl_load_domain+0x1074>  // b.none
  4038c0:	35000265 	cbnz	w5, 40390c <_nl_load_domain+0x106c>
  4038c4:	3500020c 	cbnz	w12, 403904 <_nl_load_domain+0x1064>
  4038c8:	350001a6 	cbnz	w6, 4038fc <_nl_load_domain+0x105c>
  4038cc:	7101e09f 	cmp	w4, #0x78
  4038d0:	54000120 	b.eq	4038f4 <_nl_load_domain+0x1054>  // b.none
  4038d4:	7101609f 	cmp	w4, #0x58
  4038d8:	54000fe1 	b.ne	403ad4 <_nl_load_domain+0x1234>  // b.any
  4038dc:	aa0703e2 	mov	x2, x7
  4038e0:	17fffcaf 	b	402b9c <_nl_load_domain+0x2fc>
  4038e4:	f94057e2 	ldr	x2, [sp, #168]
  4038e8:	17fffcad 	b	402b9c <_nl_load_domain+0x2fc>
  4038ec:	f94057e2 	ldr	x2, [sp, #168]
  4038f0:	17fffcab 	b	402b9c <_nl_load_domain+0x2fc>
  4038f4:	aa0d03e2 	mov	x2, x13
  4038f8:	17fffca9 	b	402b9c <_nl_load_domain+0x2fc>
  4038fc:	aa0e03e2 	mov	x2, x14
  403900:	17fffca7 	b	402b9c <_nl_load_domain+0x2fc>
  403904:	aa0f03e2 	mov	x2, x15
  403908:	17fffca5 	b	402b9c <_nl_load_domain+0x2fc>
  40390c:	aa1003e2 	mov	x2, x16
  403910:	17fffca3 	b	402b9c <_nl_load_domain+0x2fc>
  403914:	aa1103e2 	mov	x2, x17
  403918:	17fffca1 	b	402b9c <_nl_load_domain+0x2fc>
  40391c:	d2800002 	mov	x2, #0x0                   	// #0
  403920:	17fffc9f 	b	402b9c <_nl_load_domain+0x2fc>
  403924:	aa1e03e2 	mov	x2, x30
  403928:	17fffc9d 	b	402b9c <_nl_load_domain+0x2fc>
  40392c:	f94053e2 	ldr	x2, [sp, #160]
  403930:	17fffc9b 	b	402b9c <_nl_load_domain+0x2fc>
  403934:	f9404fe2 	ldr	x2, [sp, #152]
  403938:	17fffc99 	b	402b9c <_nl_load_domain+0x2fc>
  40393c:	f9404be2 	ldr	x2, [sp, #144]
  403940:	17fffc97 	b	402b9c <_nl_load_domain+0x2fc>
  403944:	aa1e03e2 	mov	x2, x30
  403948:	17fffc95 	b	402b9c <_nl_load_domain+0x2fc>
  40394c:	f94053e2 	ldr	x2, [sp, #160]
  403950:	17fffc93 	b	402b9c <_nl_load_domain+0x2fc>
  403954:	f9404fe2 	ldr	x2, [sp, #152]
  403958:	17fffc91 	b	402b9c <_nl_load_domain+0x2fc>
  40395c:	f9404be2 	ldr	x2, [sp, #144]
  403960:	17fffc8f 	b	402b9c <_nl_load_domain+0x2fc>
  403964:	aa0e03e2 	mov	x2, x14
  403968:	17fffc8d 	b	402b9c <_nl_load_domain+0x2fc>
  40396c:	aa0f03e2 	mov	x2, x15
  403970:	17fffc8b 	b	402b9c <_nl_load_domain+0x2fc>
  403974:	aa1003e2 	mov	x2, x16
  403978:	17fffc89 	b	402b9c <_nl_load_domain+0x2fc>
  40397c:	aa1103e2 	mov	x2, x17
  403980:	17fffc87 	b	402b9c <_nl_load_domain+0x2fc>
  403984:	d2800002 	mov	x2, #0x0                   	// #0
  403988:	17fffc85 	b	402b9c <_nl_load_domain+0x2fc>
  40398c:	7100da5f 	cmp	w18, #0x36
  403990:	54ff9061 	b.ne	402b9c <_nl_load_domain+0x2fc>  // b.any
  403994:	39402402 	ldrb	w2, [x0, #9]
  403998:	7100d05f 	cmp	w2, #0x34
  40399c:	54000420 	b.eq	403a20 <_nl_load_domain+0x1180>  // b.none
  4039a0:	d2800002 	mov	x2, #0x0                   	// #0
  4039a4:	17fffc7e 	b	402b9c <_nl_load_domain+0x2fc>
  4039a8:	39402412 	ldrb	w18, [x0, #9]
  4039ac:	7100da5f 	cmp	w18, #0x36
  4039b0:	54ff8f61 	b.ne	402b9c <_nl_load_domain+0x2fc>  // b.any
  4039b4:	39402800 	ldrb	w0, [x0, #10]
  4039b8:	35ff8f20 	cbnz	w0, 402b9c <_nl_load_domain+0x2fc>
  4039bc:	7101909f 	cmp	w4, #0x64
  4039c0:	54000860 	b.eq	403acc <_nl_load_domain+0x122c>  // b.none
  4039c4:	35000805 	cbnz	w5, 403ac4 <_nl_load_domain+0x1224>
  4039c8:	350007ac 	cbnz	w12, 403abc <_nl_load_domain+0x121c>
  4039cc:	35000746 	cbnz	w6, 403ab4 <_nl_load_domain+0x1214>
  4039d0:	7101e09f 	cmp	w4, #0x78
  4039d4:	54000400 	b.eq	403a54 <_nl_load_domain+0x11b4>  // b.none
  4039d8:	7101609f 	cmp	w4, #0x58
  4039dc:	540007c1 	b.ne	403ad4 <_nl_load_domain+0x1234>  // b.any
  4039e0:	aa0703e2 	mov	x2, x7
  4039e4:	17fffc6e 	b	402b9c <_nl_load_domain+0x2fc>
  4039e8:	39402400 	ldrb	w0, [x0, #9]
  4039ec:	35ff8d80 	cbnz	w0, 402b9c <_nl_load_domain+0x2fc>
  4039f0:	7101909f 	cmp	w4, #0x64
  4039f4:	540005c0 	b.eq	403aac <_nl_load_domain+0x120c>  // b.none
  4039f8:	35000565 	cbnz	w5, 403aa4 <_nl_load_domain+0x1204>
  4039fc:	3500050c 	cbnz	w12, 403a9c <_nl_load_domain+0x11fc>
  403a00:	350004a6 	cbnz	w6, 403a94 <_nl_load_domain+0x11f4>
  403a04:	7101e09f 	cmp	w4, #0x78
  403a08:	540002a0 	b.eq	403a5c <_nl_load_domain+0x11bc>  // b.none
  403a0c:	7101609f 	cmp	w4, #0x58
  403a10:	54000621 	b.ne	403ad4 <_nl_load_domain+0x1234>  // b.any
  403a14:	b00002e2 	adrp	x2, 460000 <translit_from_idx+0x1030>
  403a18:	91376042 	add	x2, x2, #0xdd8
  403a1c:	17fffc60 	b	402b9c <_nl_load_domain+0x2fc>
  403a20:	39402800 	ldrb	w0, [x0, #10]
  403a24:	35000340 	cbnz	w0, 403a8c <_nl_load_domain+0x11ec>
  403a28:	7101909f 	cmp	w4, #0x64
  403a2c:	540002c0 	b.eq	403a84 <_nl_load_domain+0x11e4>  // b.none
  403a30:	35000265 	cbnz	w5, 403a7c <_nl_load_domain+0x11dc>
  403a34:	3500020c 	cbnz	w12, 403a74 <_nl_load_domain+0x11d4>
  403a38:	350001a6 	cbnz	w6, 403a6c <_nl_load_domain+0x11cc>
  403a3c:	7101e09f 	cmp	w4, #0x78
  403a40:	54000120 	b.eq	403a64 <_nl_load_domain+0x11c4>  // b.none
  403a44:	7101609f 	cmp	w4, #0x58
  403a48:	54000461 	b.ne	403ad4 <_nl_load_domain+0x1234>  // b.any
  403a4c:	aa0703e2 	mov	x2, x7
  403a50:	17fffc53 	b	402b9c <_nl_load_domain+0x2fc>
  403a54:	aa0d03e2 	mov	x2, x13
  403a58:	17fffc51 	b	402b9c <_nl_load_domain+0x2fc>
  403a5c:	f94057e2 	ldr	x2, [sp, #168]
  403a60:	17fffc4f 	b	402b9c <_nl_load_domain+0x2fc>
  403a64:	aa0d03e2 	mov	x2, x13
  403a68:	17fffc4d 	b	402b9c <_nl_load_domain+0x2fc>
  403a6c:	aa0e03e2 	mov	x2, x14
  403a70:	17fffc4b 	b	402b9c <_nl_load_domain+0x2fc>
  403a74:	aa0f03e2 	mov	x2, x15
  403a78:	17fffc49 	b	402b9c <_nl_load_domain+0x2fc>
  403a7c:	aa1003e2 	mov	x2, x16
  403a80:	17fffc47 	b	402b9c <_nl_load_domain+0x2fc>
  403a84:	aa1103e2 	mov	x2, x17
  403a88:	17fffc45 	b	402b9c <_nl_load_domain+0x2fc>
  403a8c:	d2800002 	mov	x2, #0x0                   	// #0
  403a90:	17fffc43 	b	402b9c <_nl_load_domain+0x2fc>
  403a94:	aa1e03e2 	mov	x2, x30
  403a98:	17fffc41 	b	402b9c <_nl_load_domain+0x2fc>
  403a9c:	f94053e2 	ldr	x2, [sp, #160]
  403aa0:	17fffc3f 	b	402b9c <_nl_load_domain+0x2fc>
  403aa4:	f9404fe2 	ldr	x2, [sp, #152]
  403aa8:	17fffc3d 	b	402b9c <_nl_load_domain+0x2fc>
  403aac:	f9404be2 	ldr	x2, [sp, #144]
  403ab0:	17fffc3b 	b	402b9c <_nl_load_domain+0x2fc>
  403ab4:	aa0e03e2 	mov	x2, x14
  403ab8:	17fffc39 	b	402b9c <_nl_load_domain+0x2fc>
  403abc:	aa0f03e2 	mov	x2, x15
  403ac0:	17fffc37 	b	402b9c <_nl_load_domain+0x2fc>
  403ac4:	aa1003e2 	mov	x2, x16
  403ac8:	17fffc35 	b	402b9c <_nl_load_domain+0x2fc>
  403acc:	aa1103e2 	mov	x2, x17
  403ad0:	17fffc33 	b	402b9c <_nl_load_domain+0x2fc>
  403ad4:	97fff1db 	bl	400240 <abort>

0000000000403ad8 <alias_compare>:
  403ad8:	f9400000 	ldr	x0, [x0]
  403adc:	b00002e2 	adrp	x2, 460000 <translit_from_idx+0x1030>
  403ae0:	f9400021 	ldr	x1, [x1]
  403ae4:	9116a042 	add	x2, x2, #0x5a8
  403ae8:	140049d6 	b	416240 <__strcasecmp_l>

0000000000403aec <.annobin_alias_compare.end>:
  403aec:	d503201f 	nop

0000000000403af0 <read_alias_file>:
  403af0:	d10903ff 	sub	sp, sp, #0x240
  403af4:	93407c22 	sxtw	x2, w1
  403af8:	91007443 	add	x3, x2, #0x1d
  403afc:	927cec63 	and	x3, x3, #0xfffffffffffffff0
  403b00:	a9007bfd 	stp	x29, x30, [sp]
  403b04:	910003fd 	mov	x29, sp
  403b08:	9274cc64 	and	x4, x3, #0xfffffffffffff000
  403b0c:	cb2463e4 	sub	x4, sp, x4
  403b10:	a90363f7 	stp	x23, x24, [sp, #48]
  403b14:	d0000417 	adrp	x23, 485000 <__FRAME_END__+0x103b0>
  403b18:	912342f7 	add	x23, x23, #0x8d0
  403b1c:	f94002e1 	ldr	x1, [x23]
  403b20:	f9011fa1 	str	x1, [x29, #568]
  403b24:	d2800001 	mov	x1, #0x0                   	// #0
  403b28:	a90153f3 	stp	x19, x20, [sp, #16]
  403b2c:	910003e1 	mov	x1, sp
  403b30:	a9025bf5 	stp	x21, x22, [sp, #32]
  403b34:	eb04003f 	cmp	x1, x4
  403b38:	a9046bf9 	stp	x25, x26, [sp, #64]
  403b3c:	a90573fb 	stp	x27, x28, [sp, #80]
  403b40:	540000c0 	b.eq	403b58 <read_alias_file+0x68>  // b.none
  403b44:	d14007ff 	sub	sp, sp, #0x1, lsl #12
  403b48:	910003e1 	mov	x1, sp
  403b4c:	eb04003f 	cmp	x1, x4
  403b50:	f907ffff 	str	xzr, [sp, #4088]
  403b54:	54ffff81 	b.ne	403b44 <read_alias_file+0x54>  // b.any
  403b58:	f2402c61 	ands	x1, x3, #0xfff
  403b5c:	54001c61 	b.ne	403ee8 <read_alias_file+0x3f8>  // b.any
  403b60:	b5001c03 	cbnz	x3, 403ee0 <read_alias_file+0x3f0>
  403b64:	910003f3 	mov	x19, sp
  403b68:	aa0003e1 	mov	x1, x0
  403b6c:	aa1303e0 	mov	x0, x19
  403b70:	9400492c 	bl	416020 <__mempcpy>
  403b74:	b0000262 	adrp	x2, 450000 <free_mem+0x48>
  403b78:	91190042 	add	x2, x2, #0x640
  403b7c:	aa0003e3 	mov	x3, x0
  403b80:	b0000261 	adrp	x1, 450000 <free_mem+0x48>
  403b84:	aa1303e0 	mov	x0, x19
  403b88:	9118e021 	add	x1, x1, #0x638
  403b8c:	f9400044 	ldr	x4, [x2]
  403b90:	f9000064 	str	x4, [x3]
  403b94:	f8406042 	ldur	x2, [x2, #6]
  403b98:	f8006062 	stur	x2, [x3, #6]
  403b9c:	94000f4f 	bl	4078d8 <_IO_new_fopen>
  403ba0:	aa0003f4 	mov	x20, x0
  403ba4:	b4001ac0 	cbz	x0, 403efc <read_alias_file+0x40c>
  403ba8:	b9400001 	ldr	w1, [x0]
  403bac:	d2800018 	mov	x24, #0x0                   	// #0
  403bb0:	32110022 	orr	w2, w1, #0x8000
  403bb4:	b9000002 	str	w2, [x0]
  403bb8:	37201c21 	tbnz	w1, #4, 403f3c <read_alias_file+0x44c>
  403bbc:	d0000400 	adrp	x0, 485000 <__FRAME_END__+0x103b0>
  403bc0:	f947d000 	ldr	x0, [x0, #4000]
  403bc4:	d53bd055 	mrs	x21, tpidr_el0
  403bc8:	90000736 	adrp	x22, 4e7000 <A+0x1f5e0>
  403bcc:	913ca2d6 	add	x22, x22, #0xf28
  403bd0:	8b0002b5 	add	x21, x21, x0
  403bd4:	d503201f 	nop
  403bd8:	aa1403e2 	mov	x2, x20
  403bdc:	52803201 	mov	w1, #0x190                 	// #400
  403be0:	9102a3a0 	add	x0, x29, #0xa8
  403be4:	9400186d 	bl	409d98 <__fgets_unlocked>
  403be8:	b40002c0 	cbz	x0, 403c40 <read_alias_file+0x150>
  403bec:	52800141 	mov	w1, #0xa                   	// #10
  403bf0:	9102a3a0 	add	x0, x29, #0xa8
  403bf4:	94004467 	bl	414d90 <strchr>
  403bf8:	aa0003fa 	mov	x26, x0
  403bfc:	3942a3a0 	ldrb	w0, [x29, #168]
  403c00:	9102a3b3 	add	x19, x29, #0xa8
  403c04:	f94002a2 	ldr	x2, [x21]
  403c08:	d37f1c01 	ubfiz	x1, x0, #1, #8
  403c0c:	78616841 	ldrh	w1, [x2, x1]
  403c10:	366800c1 	tbz	w1, #13, 403c28 <read_alias_file+0x138>
  403c14:	d503201f 	nop
  403c18:	38401e60 	ldrb	w0, [x19, #1]!
  403c1c:	d37f1c01 	ubfiz	x1, x0, #1, #8
  403c20:	78616841 	ldrh	w1, [x2, x1]
  403c24:	376fffa1 	tbnz	w1, #13, 403c18 <read_alias_file+0x128>
  403c28:	71008c1f 	cmp	w0, #0x23
  403c2c:	7a401804 	ccmp	w0, #0x0, #0x4, ne  // ne = any
  403c30:	54000501 	b.ne	403cd0 <read_alias_file+0x1e0>  // b.any
  403c34:	b400043a 	cbz	x26, 403cb8 <read_alias_file+0x1c8>
  403c38:	b9400280 	ldr	w0, [x20]
  403c3c:	3627fce0 	tbz	w0, #4, 403bd8 <read_alias_file+0xe8>
  403c40:	aa1403e0 	mov	x0, x20
  403c44:	94000dcf 	bl	407380 <_IO_new_fclose>
  403c48:	b4000138 	cbz	x24, 403c6c <read_alias_file+0x17c>
  403c4c:	90000721 	adrp	x1, 4e7000 <A+0x1f5e0>
  403c50:	b0000720 	adrp	x0, 4e8000 <initial+0x70>
  403c54:	90000003 	adrp	x3, 403000 <_nl_load_domain+0x760>
  403c58:	d2800202 	mov	x2, #0x10                  	// #16
  403c5c:	f9479421 	ldr	x1, [x1, #3880]
  403c60:	912b6063 	add	x3, x3, #0xad8
  403c64:	f947ec00 	ldr	x0, [x0, #4056]
  403c68:	940007e2 	bl	405bf0 <qsort>
  403c6c:	aa1803e0 	mov	x0, x24
  403c70:	f9411fa1 	ldr	x1, [x29, #568]
  403c74:	f94002e2 	ldr	x2, [x23]
  403c78:	eb020021 	subs	x1, x1, x2
  403c7c:	d2800002 	mov	x2, #0x0                   	// #0
  403c80:	54001621 	b.ne	403f44 <read_alias_file+0x454>  // b.any
  403c84:	910003bf 	mov	sp, x29
  403c88:	a9407bfd 	ldp	x29, x30, [sp]
  403c8c:	a94153f3 	ldp	x19, x20, [sp, #16]
  403c90:	a9425bf5 	ldp	x21, x22, [sp, #32]
  403c94:	a94363f7 	ldp	x23, x24, [sp, #48]
  403c98:	a9446bf9 	ldp	x25, x26, [sp, #64]
  403c9c:	a94573fb 	ldp	x27, x28, [sp, #80]
  403ca0:	910903ff 	add	sp, sp, #0x240
  403ca4:	d65f03c0 	ret
  403ca8:	52800141 	mov	w1, #0xa                   	// #10
  403cac:	9102a3a0 	add	x0, x29, #0xa8
  403cb0:	94004438 	bl	414d90 <strchr>
  403cb4:	b5fffc20 	cbnz	x0, 403c38 <read_alias_file+0x148>
  403cb8:	aa1403e2 	mov	x2, x20
  403cbc:	52803201 	mov	w1, #0x190                 	// #400
  403cc0:	9102a3a0 	add	x0, x29, #0xa8
  403cc4:	94001835 	bl	409d98 <__fgets_unlocked>
  403cc8:	b5ffff00 	cbnz	x0, 403ca8 <read_alias_file+0x1b8>
  403ccc:	17ffffdb 	b	403c38 <read_alias_file+0x148>
  403cd0:	39400661 	ldrb	w1, [x19, #1]
  403cd4:	91000679 	add	x25, x19, #0x1
  403cd8:	d37f1c20 	ubfiz	x0, x1, #1, #8
  403cdc:	78606840 	ldrh	w0, [x2, x0]
  403ce0:	12130000 	and	w0, w0, #0x2000
  403ce4:	340000e1 	cbz	w1, 403d00 <read_alias_file+0x210>
  403ce8:	350008e0 	cbnz	w0, 403e04 <read_alias_file+0x314>
  403cec:	38401f21 	ldrb	w1, [x25, #1]!
  403cf0:	d37f1c20 	ubfiz	x0, x1, #1, #8
  403cf4:	78606840 	ldrh	w0, [x2, x0]
  403cf8:	12130000 	and	w0, w0, #0x2000
  403cfc:	35ffff61 	cbnz	w1, 403ce8 <read_alias_file+0x1f8>
  403d00:	34fff9a0 	cbz	w0, 403c34 <read_alias_file+0x144>
  403d04:	d503201f 	nop
  403d08:	38401f20 	ldrb	w0, [x25, #1]!
  403d0c:	d37f1c01 	ubfiz	x1, x0, #1, #8
  403d10:	78616841 	ldrh	w1, [x2, x1]
  403d14:	376fffa1 	tbnz	w1, #13, 403d08 <read_alias_file+0x218>
  403d18:	34fff8e0 	cbz	w0, 403c34 <read_alias_file+0x144>
  403d1c:	39400720 	ldrb	w0, [x25, #1]
  403d20:	91000721 	add	x1, x25, #0x1
  403d24:	35000080 	cbnz	w0, 403d34 <read_alias_file+0x244>
  403d28:	1400000a 	b	403d50 <read_alias_file+0x260>
  403d2c:	38401c20 	ldrb	w0, [x1, #1]!
  403d30:	34000100 	cbz	w0, 403d50 <read_alias_file+0x260>
  403d34:	d37f1c03 	ubfiz	x3, x0, #1, #8
  403d38:	78636843 	ldrh	w3, [x2, x3]
  403d3c:	366fff83 	tbz	w3, #13, 403d2c <read_alias_file+0x23c>
  403d40:	7100281f 	cmp	w0, #0xa
  403d44:	54000a21 	b.ne	403e88 <read_alias_file+0x398>  // b.any
  403d48:	52814000 	mov	w0, #0xa00                 	// #2560
  403d4c:	79000020 	strh	w0, [x1]
  403d50:	a94002db 	ldp	x27, x0, [x22]
  403d54:	b000073c 	adrp	x28, 4e8000 <initial+0x70>
  403d58:	913f6383 	add	x3, x28, #0xfd8
  403d5c:	eb00037f 	cmp	x27, x0
  403d60:	54000a02 	b.cs	403ea0 <read_alias_file+0x3b0>  // b.hs, b.nlast
  403d64:	aa1303e0 	mov	x0, x19
  403d68:	f9004ba3 	str	x3, [x29, #144]
  403d6c:	94004565 	bl	415300 <__strlen>
  403d70:	91000402 	add	x2, x0, #0x1
  403d74:	aa1903e0 	mov	x0, x25
  403d78:	f9004fa2 	str	x2, [x29, #152]
  403d7c:	94004561 	bl	415300 <__strlen>
  403d80:	91000404 	add	x4, x0, #0x1
  403d84:	a94106ca 	ldp	x10, x1, [x22, #16]
  403d88:	a9490ba3 	ldp	x3, x2, [x29, #144]
  403d8c:	8b020149 	add	x9, x10, x2
  403d90:	8b040128 	add	x8, x9, x4
  403d94:	eb01011f 	cmp	x8, x1
  403d98:	f940047c 	ldr	x28, [x3, #8]
  403d9c:	54000448 	b.hi	403e24 <read_alias_file+0x334>  // b.pmore
  403da0:	f9400067 	ldr	x7, [x3]
  403da4:	d37cef66 	lsl	x6, x27, #4
  403da8:	8b0600e3 	add	x3, x7, x6
  403dac:	aa1303e1 	mov	x1, x19
  403db0:	8b0a0380 	add	x0, x28, x10
  403db4:	a90723a4 	stp	x4, x8, [x29, #112]
  403db8:	9100077b 	add	x27, x27, #0x1
  403dbc:	a9081ba9 	stp	x9, x6, [x29, #128]
  403dc0:	91000718 	add	x24, x24, #0x1
  403dc4:	a9090fa7 	stp	x7, x3, [x29, #144]
  403dc8:	97fff116 	bl	400220 <.plt+0x10>
  403dcc:	aa1903e1 	mov	x1, x25
  403dd0:	a9481ba9 	ldp	x9, x6, [x29, #128]
  403dd4:	f9404ba7 	ldr	x7, [x29, #144]
  403dd8:	f9403ba4 	ldr	x4, [x29, #112]
  403ddc:	f82668e0 	str	x0, [x7, x6]
  403de0:	8b090380 	add	x0, x28, x9
  403de4:	aa0403e2 	mov	x2, x4
  403de8:	97fff10e 	bl	400220 <.plt+0x10>
  403dec:	f90002db 	str	x27, [x22]
  403df0:	f9404fa3 	ldr	x3, [x29, #152]
  403df4:	f9403fa8 	ldr	x8, [x29, #120]
  403df8:	f9000ac8 	str	x8, [x22, #16]
  403dfc:	f9000460 	str	x0, [x3, #8]
  403e00:	17ffff8d 	b	403c34 <read_alias_file+0x144>
  403e04:	aa1903e1 	mov	x1, x25
  403e08:	39400720 	ldrb	w0, [x25, #1]
  403e0c:	91000739 	add	x25, x25, #0x1
  403e10:	3900003f 	strb	wzr, [x1]
  403e14:	d37f1c01 	ubfiz	x1, x0, #1, #8
  403e18:	78616841 	ldrh	w1, [x2, x1]
  403e1c:	376ff761 	tbnz	w1, #13, 403d08 <read_alias_file+0x218>
  403e20:	17ffffbe 	b	403d18 <read_alias_file+0x228>
  403e24:	8b040045 	add	x5, x2, x4
  403e28:	d2808006 	mov	x6, #0x400                 	// #1024
  403e2c:	eb0600bf 	cmp	x5, x6
  403e30:	aa1c03e0 	mov	x0, x28
  403e34:	9a8620a5 	csel	x5, x5, x6, cs  // cs = hs, nlast
  403e38:	a906a3a3 	stp	x3, x8, [x29, #104]
  403e3c:	8b0100a5 	add	x5, x5, x1
  403e40:	aa0503e1 	mov	x1, x5
  403e44:	a907aba9 	stp	x9, x10, [x29, #120]
  403e48:	a9088ba4 	stp	x4, x2, [x29, #136]
  403e4c:	f9004fa5 	str	x5, [x29, #152]
  403e50:	94003f7a 	bl	413c38 <__libc_realloc>
  403e54:	b4ffef60 	cbz	x0, 403c40 <read_alias_file+0x150>
  403e58:	a946a3a3 	ldp	x3, x8, [x29, #104]
  403e5c:	eb1c001f 	cmp	x0, x28
  403e60:	a947aba9 	ldp	x9, x10, [x29, #120]
  403e64:	a9488ba4 	ldp	x4, x2, [x29, #136]
  403e68:	f9400067 	ldr	x7, [x3]
  403e6c:	f9404fa5 	ldr	x5, [x29, #152]
  403e70:	540004a1 	b.ne	403f04 <read_alias_file+0x414>  // b.any
  403e74:	d37cef66 	lsl	x6, x27, #4
  403e78:	aa0003fc 	mov	x28, x0
  403e7c:	f9000460 	str	x0, [x3, #8]
  403e80:	f9000ec5 	str	x5, [x22, #24]
  403e84:	17ffffc9 	b	403da8 <read_alias_file+0x2b8>
  403e88:	a94002db 	ldp	x27, x0, [x22]
  403e8c:	3900003f 	strb	wzr, [x1]
  403e90:	b000073c 	adrp	x28, 4e8000 <initial+0x70>
  403e94:	913f6383 	add	x3, x28, #0xfd8
  403e98:	eb00037f 	cmp	x27, x0
  403e9c:	54fff643 	b.cc	403d64 <read_alias_file+0x274>  // b.lo, b.ul, b.last
  403ea0:	b50001a0 	cbnz	x0, 403ed4 <read_alias_file+0x3e4>
  403ea4:	d280c801 	mov	x1, #0x640                 	// #1600
  403ea8:	d2800c82 	mov	x2, #0x64                  	// #100
  403eac:	b000073c 	adrp	x28, 4e8000 <initial+0x70>
  403eb0:	913f6383 	add	x3, x28, #0xfd8
  403eb4:	a9090fa2 	stp	x2, x3, [x29, #144]
  403eb8:	f947ef80 	ldr	x0, [x28, #4056]
  403ebc:	94003f5f 	bl	413c38 <__libc_realloc>
  403ec0:	b4ffec00 	cbz	x0, 403c40 <read_alias_file+0x150>
  403ec4:	a9490fa2 	ldp	x2, x3, [x29, #144]
  403ec8:	f907ef80 	str	x0, [x28, #4056]
  403ecc:	f90006c2 	str	x2, [x22, #8]
  403ed0:	17ffffa5 	b	403d64 <read_alias_file+0x274>
  403ed4:	d37ff802 	lsl	x2, x0, #1
  403ed8:	d37be801 	lsl	x1, x0, #5
  403edc:	17fffff4 	b	403eac <read_alias_file+0x3bc>
  403ee0:	f90003ff 	str	xzr, [sp]
  403ee4:	17ffff20 	b	403b64 <read_alias_file+0x74>
  403ee8:	cb2163ff 	sub	sp, sp, x1
  403eec:	d1002021 	sub	x1, x1, #0x8
  403ef0:	f8216bff 	str	xzr, [sp, x1]
  403ef4:	b4ffe383 	cbz	x3, 403b64 <read_alias_file+0x74>
  403ef8:	17fffffa 	b	403ee0 <read_alias_file+0x3f0>
  403efc:	d2800018 	mov	x24, #0x0                   	// #0
  403f00:	17ffff5b 	b	403c6c <read_alias_file+0x17c>
  403f04:	d2800006 	mov	x6, #0x0                   	// #0
  403f08:	b4fffb9b 	cbz	x27, 403e78 <read_alias_file+0x388>
  403f0c:	d37cef66 	lsl	x6, x27, #4
  403f10:	cb1c001c 	sub	x28, x0, x28
  403f14:	8b0600ed 	add	x13, x7, x6
  403f18:	aa0703e1 	mov	x1, x7
  403f1c:	a9402c2c 	ldp	x12, x11, [x1]
  403f20:	8b1c018c 	add	x12, x12, x28
  403f24:	8b1c016b 	add	x11, x11, x28
  403f28:	a9002c2c 	stp	x12, x11, [x1]
  403f2c:	91004021 	add	x1, x1, #0x10
  403f30:	eb0101bf 	cmp	x13, x1
  403f34:	54ffff41 	b.ne	403f1c <read_alias_file+0x42c>  // b.any
  403f38:	17ffffd0 	b	403e78 <read_alias_file+0x388>
  403f3c:	94000d11 	bl	407380 <_IO_new_fclose>
  403f40:	17ffff4b 	b	403c6c <read_alias_file+0x17c>
  403f44:	940059b1 	bl	41a608 <__stack_chk_fail>

0000000000403f48 <_nl_expand_alias>:
  403f48:	a9bb7bfd 	stp	x29, x30, [sp, #-80]!
  403f4c:	52800021 	mov	w1, #0x1                   	// #1
  403f50:	910003fd 	mov	x29, sp
  403f54:	a90153f3 	stp	x19, x20, [sp, #16]
  403f58:	90000734 	adrp	x20, 4e7000 <A+0x1f5e0>
  403f5c:	913ca294 	add	x20, x20, #0xf28
  403f60:	91008293 	add	x19, x20, #0x20
  403f64:	a9025bf5 	stp	x21, x22, [sp, #32]
  403f68:	aa1303e2 	mov	x2, x19
  403f6c:	a90363f7 	stp	x23, x24, [sp, #48]
  403f70:	a9046bf9 	stp	x25, x26, [sp, #64]
  403f74:	aa0003fa 	mov	x26, x0
  403f78:	52800000 	mov	w0, #0x0                   	// #0
  403f7c:	94011949 	bl	44a4a0 <__aarch64_cas4_acq>
  403f80:	35000aa0 	cbnz	w0, 4040d4 <_nl_expand_alias+0x18c>
  403f84:	f9401680 	ldr	x0, [x20, #40]
  403f88:	b40009a0 	cbz	x0, 4040bc <_nl_expand_alias+0x174>
  403f8c:	f9400296 	ldr	x22, [x20]
  403f90:	b00002f5 	adrp	x21, 460000 <translit_from_idx+0x1030>
  403f94:	9116a2b5 	add	x21, x21, #0x5a8
  403f98:	b5000676 	cbnz	x22, 404064 <_nl_expand_alias+0x11c>
  403f9c:	f9401683 	ldr	x3, [x20, #40]
  403fa0:	52800001 	mov	w1, #0x0                   	// #0
  403fa4:	39400060 	ldrb	w0, [x3]
  403fa8:	340002c0 	cbz	w0, 404000 <_nl_expand_alias+0xb8>
  403fac:	d503201f 	nop
  403fb0:	7100e81f 	cmp	w0, #0x3a
  403fb4:	91000461 	add	x1, x3, #0x1
  403fb8:	540007e1 	b.ne	4040b4 <_nl_expand_alias+0x16c>  // b.any
  403fbc:	d503201f 	nop
  403fc0:	aa0103e0 	mov	x0, x1
  403fc4:	38401422 	ldrb	w2, [x1], #1
  403fc8:	7100e85f 	cmp	w2, #0x3a
  403fcc:	54ffffa0 	b.eq	403fc0 <_nl_expand_alias+0x78>  // b.none
  403fd0:	34000382 	cbz	w2, 404040 <_nl_expand_alias+0xf8>
  403fd4:	91000401 	add	x1, x0, #0x1
  403fd8:	aa0103e3 	mov	x3, x1
  403fdc:	38401422 	ldrb	w2, [x1], #1
  403fe0:	7100e85f 	cmp	w2, #0x3a
  403fe4:	7a401844 	ccmp	w2, #0x0, #0x4, ne  // ne = any
  403fe8:	54ffff81 	b.ne	403fd8 <_nl_expand_alias+0x90>  // b.any
  403fec:	eb00007f 	cmp	x3, x0
  403ff0:	540002e8 	b.hi	40404c <_nl_expand_alias+0x104>  // b.pmore
  403ff4:	52800021 	mov	w1, #0x1                   	// #1
  403ff8:	39400060 	ldrb	w0, [x3]
  403ffc:	35fffda0 	cbnz	w0, 403fb0 <_nl_expand_alias+0x68>
  404000:	34000041 	cbz	w1, 404008 <_nl_expand_alias+0xc0>
  404004:	f9001683 	str	x3, [x20, #40]
  404008:	d2800013 	mov	x19, #0x0                   	// #0
  40400c:	91008294 	add	x20, x20, #0x20
  404010:	52800000 	mov	w0, #0x0                   	// #0
  404014:	aa1403e1 	mov	x1, x20
  404018:	9401198e 	bl	44a650 <__aarch64_swp4_rel>
  40401c:	7100041f 	cmp	w0, #0x1
  404020:	5400060c 	b.gt	4040e0 <_nl_expand_alias+0x198>
  404024:	aa1303e0 	mov	x0, x19
  404028:	a94153f3 	ldp	x19, x20, [sp, #16]
  40402c:	a9425bf5 	ldp	x21, x22, [sp, #32]
  404030:	a94363f7 	ldp	x23, x24, [sp, #48]
  404034:	a9446bf9 	ldp	x25, x26, [sp, #64]
  404038:	a8c57bfd 	ldp	x29, x30, [sp], #80
  40403c:	d65f03c0 	ret
  404040:	aa0003e3 	mov	x3, x0
  404044:	52800021 	mov	w1, #0x1                   	// #1
  404048:	17ffffec 	b	403ff8 <_nl_expand_alias+0xb0>
  40404c:	4b000061 	sub	w1, w3, w0
  404050:	f9001683 	str	x3, [x20, #40]
  404054:	97fffea7 	bl	403af0 <read_alias_file>
  404058:	b4fffa20 	cbz	x0, 403f9c <_nl_expand_alias+0x54>
  40405c:	f9400296 	ldr	x22, [x20]
  404060:	b4fff9f6 	cbz	x22, 403f9c <_nl_expand_alias+0x54>
  404064:	90000720 	adrp	x0, 4e8000 <initial+0x70>
  404068:	d2800017 	mov	x23, #0x0                   	// #0
  40406c:	f947ec18 	ldr	x24, [x0, #4056]
  404070:	14000005 	b	404084 <_nl_expand_alias+0x13c>
  404074:	540002c0 	b.eq	4040cc <_nl_expand_alias+0x184>  // b.none
  404078:	91000677 	add	x23, x19, #0x1
  40407c:	eb1702df 	cmp	x22, x23
  404080:	54fff8e9 	b.ls	403f9c <_nl_expand_alias+0x54>  // b.plast
  404084:	8b1602f3 	add	x19, x23, x22
  404088:	aa1503e2 	mov	x2, x21
  40408c:	aa1a03e0 	mov	x0, x26
  404090:	d341fe73 	lsr	x19, x19, #1
  404094:	d37cee61 	lsl	x1, x19, #4
  404098:	8b010319 	add	x25, x24, x1
  40409c:	f8616b01 	ldr	x1, [x24, x1]
  4040a0:	94004868 	bl	416240 <__strcasecmp_l>
  4040a4:	7100001f 	cmp	w0, #0x0
  4040a8:	54fffe6a 	b.ge	404074 <_nl_expand_alias+0x12c>  // b.tcont
  4040ac:	aa1303f6 	mov	x22, x19
  4040b0:	17fffff3 	b	40407c <_nl_expand_alias+0x134>
  4040b4:	aa0303e0 	mov	x0, x3
  4040b8:	17ffffc7 	b	403fd4 <_nl_expand_alias+0x8c>
  4040bc:	90000260 	adrp	x0, 450000 <free_mem+0x48>
  4040c0:	91164000 	add	x0, x0, #0x590
  4040c4:	f9001680 	str	x0, [x20, #40]
  4040c8:	17ffffb1 	b	403f8c <_nl_expand_alias+0x44>
  4040cc:	f9400733 	ldr	x19, [x25, #8]
  4040d0:	17ffffcf 	b	40400c <_nl_expand_alias+0xc4>
  4040d4:	aa1303e0 	mov	x0, x19
  4040d8:	94002aaa 	bl	40eb80 <__lll_lock_wait_private>
  4040dc:	17ffffaa 	b	403f84 <_nl_expand_alias+0x3c>
  4040e0:	aa1403e0 	mov	x0, x20
  4040e4:	d2801021 	mov	x1, #0x81                  	// #129
  4040e8:	d2800022 	mov	x2, #0x1                   	// #1
  4040ec:	d2800003 	mov	x3, #0x0                   	// #0
  4040f0:	d2800c48 	mov	x8, #0x62                  	// #98
  4040f4:	d4000001 	svc	#0x0
  4040f8:	17ffffcb 	b	404024 <_nl_expand_alias+0xdc>

00000000004040fc <.annobin__nl_expand_alias.end>:
  4040fc:	d503201f 	nop

0000000000404100 <_nl_make_l10nflist>:
  404100:	d102c3ff 	sub	sp, sp, #0xb0
  404104:	a9027bfd 	stp	x29, x30, [sp, #32]
  404108:	910083fd 	add	x29, sp, #0x20
  40410c:	6d0827e8 	stp	d8, d9, [sp, #128]
  404110:	9e670088 	fmov	d8, x4
  404114:	9e6700a9 	fmov	d9, x5
  404118:	6d092fea 	stp	d10, d11, [sp, #144]
  40411c:	9e6700ca 	fmov	d10, x6
  404120:	9e6700eb 	fmov	d11, x7
  404124:	a90353f3 	stp	x19, x20, [sp, #48]
  404128:	2a0303f4 	mov	w20, w3
  40412c:	a9045bf5 	stp	x21, x22, [sp, #64]
  404130:	aa0203f5 	mov	x21, x2
  404134:	121e0076 	and	w22, w3, #0x4
  404138:	a90563f7 	stp	x23, x24, [sp, #80]
  40413c:	aa0103f7 	mov	x23, x1
  404140:	91000858 	add	x24, x2, #0x2
  404144:	a9066bf9 	stp	x25, x26, [sp, #96]
  404148:	a90773fb 	stp	x27, x28, [sp, #112]
  40414c:	f90053e0 	str	x0, [sp, #160]
  404150:	aa0403e0 	mov	x0, x4
  404154:	9400446b 	bl	415300 <__strlen>
  404158:	aa0003f3 	mov	x19, x0
  40415c:	361000b4 	tbz	w20, #2, 404170 <_nl_make_l10nflist+0x70>
  404160:	9e660120 	fmov	x0, d9
  404164:	91000673 	add	x19, x19, #0x1
  404168:	94004466 	bl	415300 <__strlen>
  40416c:	8b000273 	add	x19, x19, x0
  404170:	d2800019 	mov	x25, #0x0                   	// #0
  404174:	121f029c 	and	w28, w20, #0x2
  404178:	36080094 	tbz	w20, #1, 404188 <_nl_make_l10nflist+0x88>
  40417c:	9e660140 	fmov	x0, d10
  404180:	94004460 	bl	415300 <__strlen>
  404184:	91000419 	add	x25, x0, #0x1
  404188:	12000280 	and	w0, w20, #0x1
  40418c:	b900abe0 	str	w0, [sp, #168]
  404190:	360000b4 	tbz	w20, #0, 4041a4 <_nl_make_l10nflist+0xa4>
  404194:	9e660160 	fmov	x0, d11
  404198:	91000739 	add	x25, x25, #0x1
  40419c:	94004459 	bl	415300 <__strlen>
  4041a0:	8b000339 	add	x25, x25, x0
  4041a4:	121d0280 	and	w0, w20, #0x8
  4041a8:	b900afe0 	str	w0, [sp, #172]
  4041ac:	8b190273 	add	x19, x19, x25
  4041b0:	d280001a 	mov	x26, #0x0                   	// #0
  4041b4:	8b180273 	add	x19, x19, x24
  4041b8:	36180094 	tbz	w20, #3, 4041c8 <_nl_make_l10nflist+0xc8>
  4041bc:	f9405be0 	ldr	x0, [sp, #176]
  4041c0:	94004450 	bl	415300 <__strlen>
  4041c4:	9100041a 	add	x26, x0, #0x1
  4041c8:	f9405fe0 	ldr	x0, [sp, #184]
  4041cc:	9400444d 	bl	415300 <__strlen>
  4041d0:	aa0003f9 	mov	x25, x0
  4041d4:	8b1a0000 	add	x0, x0, x26
  4041d8:	8b130000 	add	x0, x0, x19
  4041dc:	94003c71 	bl	4133a0 <__libc_malloc>
  4041e0:	aa0003f3 	mov	x19, x0
  4041e4:	b4001cc0 	cbz	x0, 40457c <_nl_make_l10nflist+0x47c>
  4041e8:	aa1503e2 	mov	x2, x21
  4041ec:	aa1703e1 	mov	x1, x23
  4041f0:	97fff00c 	bl	400220 <.plt+0x10>
  4041f4:	b4000255 	cbz	x21, 40423c <_nl_make_l10nflist+0x13c>
  4041f8:	aa1303fa 	mov	x26, x19
  4041fc:	aa1503fb 	mov	x27, x21
  404200:	aa1a03e0 	mov	x0, x26
  404204:	9400443f 	bl	415300 <__strlen>
  404208:	8b00035a 	add	x26, x26, x0
  40420c:	aa2003e0 	mvn	x0, x0
  404210:	52800758 	mov	w24, #0x3a                  	// #58
  404214:	ab00037b 	adds	x27, x27, x0
  404218:	54000120 	b.eq	40423c <_nl_make_l10nflist+0x13c>  // b.none
  40421c:	d503201f 	nop
  404220:	38001758 	strb	w24, [x26], #1
  404224:	aa1a03e0 	mov	x0, x26
  404228:	94004436 	bl	415300 <__strlen>
  40422c:	8b00035a 	add	x26, x26, x0
  404230:	aa2003e0 	mvn	x0, x0
  404234:	ab00037b 	adds	x27, x27, x0
  404238:	54ffff41 	b.ne	404220 <_nl_make_l10nflist+0x120>  // b.any
  40423c:	8b150262 	add	x2, x19, x21
  404240:	9e660101 	fmov	x1, d8
  404244:	528005e3 	mov	w3, #0x2f                  	// #47
  404248:	aa0203e0 	mov	x0, x2
  40424c:	381ff043 	sturb	w3, [x2, #-1]
  404250:	9400478c 	bl	416080 <__stpcpy>
  404254:	35001796 	cbnz	w22, 404544 <_nl_make_l10nflist+0x444>
  404258:	91000401 	add	x1, x0, #0x1
  40425c:	3500167c 	cbnz	w28, 404528 <_nl_make_l10nflist+0x428>
  404260:	b940abe2 	ldr	w2, [sp, #168]
  404264:	35001542 	cbnz	w2, 40450c <_nl_make_l10nflist+0x40c>
  404268:	b940afe2 	ldr	w2, [sp, #172]
  40426c:	35001422 	cbnz	w2, 4044f0 <_nl_make_l10nflist+0x3f0>
  404270:	528005e2 	mov	w2, #0x2f                  	// #47
  404274:	39000002 	strb	w2, [x0]
  404278:	aa0103e0 	mov	x0, x1
  40427c:	91000722 	add	x2, x25, #0x1
  404280:	f9405fe1 	ldr	x1, [sp, #184]
  404284:	97ffefe7 	bl	400220 <.plt+0x10>
  404288:	f94053e0 	ldr	x0, [sp, #160]
  40428c:	f9400019 	ldr	x25, [x0]
  404290:	b40018f9 	cbz	x25, 4045ac <_nl_make_l10nflist+0x4ac>
  404294:	aa1903f6 	mov	x22, x25
  404298:	d2800018 	mov	x24, #0x0                   	// #0
  40429c:	d503201f 	nop
  4042a0:	f94002c2 	ldr	x2, [x22]
  4042a4:	aa1303e1 	mov	x1, x19
  4042a8:	aa0203e0 	mov	x0, x2
  4042ac:	b40000c2 	cbz	x2, 4042c4 <_nl_make_l10nflist+0x1c4>
  4042b0:	940042f4 	bl	414e80 <strcmp>
  4042b4:	7100001f 	cmp	w0, #0x0
  4042b8:	540015c0 	b.eq	404570 <_nl_make_l10nflist+0x470>  // b.none
  4042bc:	5400008b 	b.lt	4042cc <_nl_make_l10nflist+0x1cc>  // b.tstop
  4042c0:	aa1603f8 	mov	x24, x22
  4042c4:	f9400ed6 	ldr	x22, [x22, #24]
  4042c8:	b5fffed6 	cbnz	x22, 4042a0 <_nl_make_l10nflist+0x1a0>
  4042cc:	b940c3e0 	ldr	w0, [sp, #192]
  4042d0:	340014c0 	cbz	w0, 404568 <_nl_make_l10nflist+0x468>
  4042d4:	12855540 	mov	w0, #0xffffd555            	// #-10923
  4042d8:	528aaab6 	mov	w22, #0x5555                	// #21845
  4042dc:	0a940400 	and	w0, w0, w20, asr #1
  4042e0:	0a160296 	and	w22, w20, w22
  4042e4:	0b160000 	add	w0, w0, w22
  4042e8:	12819981 	mov	w1, #0xfffff333            	// #-3277
  4042ec:	52866676 	mov	w22, #0x3333                	// #13107
  4042f0:	0a160016 	and	w22, w0, w22
  4042f4:	0a800820 	and	w0, w1, w0, asr #2
  4042f8:	5281e1e3 	mov	w3, #0xf0f                 	// #3855
  4042fc:	0b160016 	add	w22, w0, w22
  404300:	52800022 	mov	w2, #0x1                   	// #1
  404304:	aa1503fb 	mov	x27, x21
  404308:	aa1703fc 	mov	x28, x23
  40430c:	0b9612d6 	add	w22, w22, w22, asr #4
  404310:	d280001a 	mov	x26, #0x0                   	// #0
  404314:	0a0302d6 	and	w22, w22, w3
  404318:	0b5622d6 	add	w22, w22, w22, lsr #8
  40431c:	1ad62056 	lsl	w22, w2, w22
  404320:	93407ed6 	sxtw	x22, w22
  404324:	b4001315 	cbz	x21, 404584 <_nl_make_l10nflist+0x484>
  404328:	aa1c03e0 	mov	x0, x28
  40432c:	940043f5 	bl	415300 <__strlen>
  404330:	91000402 	add	x2, x0, #0x1
  404334:	aa2003e0 	mvn	x0, x0
  404338:	9100075a 	add	x26, x26, #0x1
  40433c:	8b02039c 	add	x28, x28, x2
  404340:	ab00037b 	adds	x27, x27, x0
  404344:	54ffff21 	b.ne	404328 <_nl_make_l10nflist+0x228>  // b.any
  404348:	9b167f56 	mul	x22, x26, x22
  40434c:	910016c0 	add	x0, x22, #0x5
  404350:	d37df000 	lsl	x0, x0, #3
  404354:	94003c13 	bl	4133a0 <__libc_malloc>
  404358:	aa0003f6 	mov	x22, x0
  40435c:	b40012c0 	cbz	x0, 4045b4 <_nl_make_l10nflist+0x4b4>
  404360:	aa1503fa 	mov	x26, x21
  404364:	aa1703fc 	mov	x28, x23
  404368:	f9000013 	str	x19, [x0]
  40436c:	d503201f 	nop
  404370:	aa1c03e0 	mov	x0, x28
  404374:	940043e3 	bl	415300 <__strlen>
  404378:	91000402 	add	x2, x0, #0x1
  40437c:	aa2003e0 	mvn	x0, x0
  404380:	9100077b 	add	x27, x27, #0x1
  404384:	8b02039c 	add	x28, x28, x2
  404388:	ab00035a 	adds	x26, x26, x0
  40438c:	54ffff21 	b.ne	404370 <_nl_make_l10nflist+0x270>  // b.any
  404390:	f100077f 	cmp	x27, #0x1
  404394:	52800020 	mov	w0, #0x1                   	// #1
  404398:	540005e0 	b.eq	404454 <_nl_make_l10nflist+0x354>  // b.none
  40439c:	b9000ac0 	str	w0, [x22, #8]
  4043a0:	f9000adf 	str	xzr, [x22, #16]
  4043a4:	b4000db8 	cbz	x24, 404558 <_nl_make_l10nflist+0x458>
  4043a8:	f9400f00 	ldr	x0, [x24, #24]
  4043ac:	f9000ec0 	str	x0, [x22, #24]
  4043b0:	f9000f16 	str	x22, [x24, #24]
  4043b4:	b4000f95 	cbz	x21, 4045a4 <_nl_make_l10nflist+0x4a4>
  4043b8:	aa1503f8 	mov	x24, x21
  4043bc:	aa1703f3 	mov	x19, x23
  4043c0:	d2800019 	mov	x25, #0x0                   	// #0
  4043c4:	d503201f 	nop
  4043c8:	aa1303e0 	mov	x0, x19
  4043cc:	940043cd 	bl	415300 <__strlen>
  4043d0:	91000401 	add	x1, x0, #0x1
  4043d4:	aa2003e0 	mvn	x0, x0
  4043d8:	91000739 	add	x25, x25, #0x1
  4043dc:	8b010273 	add	x19, x19, x1
  4043e0:	ab000318 	adds	x24, x24, x0
  4043e4:	54ffff21 	b.ne	4043c8 <_nl_make_l10nflist+0x2c8>  // b.any
  4043e8:	f100073f 	cmp	x25, #0x1
  4043ec:	1a9f17f3 	cset	w19, eq  // eq = none
  4043f0:	4b130293 	sub	w19, w20, w19
  4043f4:	2a3403f4 	mvn	w20, w20
  4043f8:	d2800019 	mov	x25, #0x0                   	// #0
  4043fc:	37f80133 	tbnz	w19, #31, 404420 <_nl_make_l10nflist+0x320>
  404400:	8b1502fb 	add	x27, x23, x21
  404404:	910062dc 	add	x28, x22, #0x18
  404408:	5280003a 	mov	w26, #0x1                   	// #1
  40440c:	6a14027f 	tst	w19, w20
  404410:	54000300 	b.eq	404470 <_nl_make_l10nflist+0x370>  // b.none
  404414:	51000673 	sub	w19, w19, #0x1
  404418:	3100067f 	cmn	w19, #0x1
  40441c:	54ffff81 	b.ne	40440c <_nl_make_l10nflist+0x30c>  // b.any
  404420:	91001339 	add	x25, x25, #0x4
  404424:	f8397adf 	str	xzr, [x22, x25, lsl #3]
  404428:	aa1603e0 	mov	x0, x22
  40442c:	a9427bfd 	ldp	x29, x30, [sp, #32]
  404430:	a94353f3 	ldp	x19, x20, [sp, #48]
  404434:	a9445bf5 	ldp	x21, x22, [sp, #64]
  404438:	a94563f7 	ldp	x23, x24, [sp, #80]
  40443c:	a9466bf9 	ldp	x25, x26, [sp, #96]
  404440:	a94773fb 	ldp	x27, x28, [sp, #112]
  404444:	6d4827e8 	ldp	d8, d9, [sp, #128]
  404448:	6d492fea 	ldp	d10, d11, [sp, #144]
  40444c:	9102c3ff 	add	sp, sp, #0xb0
  404450:	d65f03c0 	ret
  404454:	12000680 	and	w0, w20, #0x3
  404458:	f9000adf 	str	xzr, [x22, #16]
  40445c:	71000c1f 	cmp	w0, #0x3
  404460:	1a9f17e0 	cset	w0, eq  // eq = none
  404464:	b9000ac0 	str	w0, [x22, #8]
  404468:	b5fffa18 	cbnz	x24, 4043a8 <_nl_make_l10nflist+0x2a8>
  40446c:	1400003b 	b	404558 <_nl_make_l10nflist+0x458>
  404470:	d2800018 	mov	x24, #0x0                   	// #0
  404474:	b4000398 	cbz	x24, 4044e4 <_nl_make_l10nflist+0x3e4>
  404478:	aa1803e0 	mov	x0, x24
  40447c:	eb1b031f 	cmp	x24, x27
  404480:	54fffca2 	b.cs	404414 <_nl_make_l10nflist+0x314>  // b.hs, b.nlast
  404484:	9400439f 	bl	415300 <__strlen>
  404488:	91000400 	add	x0, x0, #0x1
  40448c:	ab000318 	adds	x24, x24, x0
  404490:	fa5b1302 	ccmp	x24, x27, #0x2, ne  // ne = any
  404494:	54fffc02 	b.cs	404414 <_nl_make_l10nflist+0x314>  // b.hs, b.nlast
  404498:	aa1803e0 	mov	x0, x24
  40449c:	94004399 	bl	415300 <__strlen>
  4044a0:	91000402 	add	x2, x0, #0x1
  4044a4:	9e660167 	fmov	x7, d11
  4044a8:	9e660146 	fmov	x6, d10
  4044ac:	9e660125 	fmov	x5, d9
  4044b0:	9e660104 	fmov	x4, d8
  4044b4:	91000739 	add	x25, x25, #0x1
  4044b8:	f94053e0 	ldr	x0, [sp, #160]
  4044bc:	b90013fa 	str	w26, [sp, #16]
  4044c0:	f9405be1 	ldr	x1, [sp, #176]
  4044c4:	f90003e1 	str	x1, [sp]
  4044c8:	f9405fe1 	ldr	x1, [sp, #184]
  4044cc:	f90007e1 	str	x1, [sp, #8]
  4044d0:	2a1303e3 	mov	w3, w19
  4044d4:	aa1803e1 	mov	x1, x24
  4044d8:	97ffff0a 	bl	404100 <_nl_make_l10nflist>
  4044dc:	f8397b80 	str	x0, [x28, x25, lsl #3]
  4044e0:	b5fffcd8 	cbnz	x24, 404478 <_nl_make_l10nflist+0x378>
  4044e4:	aa1703f8 	mov	x24, x23
  4044e8:	b5fffd95 	cbnz	x21, 404498 <_nl_make_l10nflist+0x398>
  4044ec:	17ffffca 	b	404414 <_nl_make_l10nflist+0x314>
  4044f0:	52800802 	mov	w2, #0x40                  	// #64
  4044f4:	39000002 	strb	w2, [x0]
  4044f8:	aa0103e0 	mov	x0, x1
  4044fc:	f9405be1 	ldr	x1, [sp, #176]
  404500:	940046e0 	bl	416080 <__stpcpy>
  404504:	91000401 	add	x1, x0, #0x1
  404508:	17ffff5a 	b	404270 <_nl_make_l10nflist+0x170>
  40450c:	528005c2 	mov	w2, #0x2e                  	// #46
  404510:	39000002 	strb	w2, [x0]
  404514:	aa0103e0 	mov	x0, x1
  404518:	9e660161 	fmov	x1, d11
  40451c:	940046d9 	bl	416080 <__stpcpy>
  404520:	91000401 	add	x1, x0, #0x1
  404524:	17ffff51 	b	404268 <_nl_make_l10nflist+0x168>
  404528:	528005c2 	mov	w2, #0x2e                  	// #46
  40452c:	39000002 	strb	w2, [x0]
  404530:	aa0103e0 	mov	x0, x1
  404534:	9e660141 	fmov	x1, d10
  404538:	940046d2 	bl	416080 <__stpcpy>
  40453c:	91000401 	add	x1, x0, #0x1
  404540:	17ffff48 	b	404260 <_nl_make_l10nflist+0x160>
  404544:	9e660121 	fmov	x1, d9
  404548:	52800be2 	mov	w2, #0x5f                  	// #95
  40454c:	38001402 	strb	w2, [x0], #1
  404550:	940046cc 	bl	416080 <__stpcpy>
  404554:	17ffff41 	b	404258 <_nl_make_l10nflist+0x158>
  404558:	f94053e0 	ldr	x0, [sp, #160]
  40455c:	f9000ed9 	str	x25, [x22, #24]
  404560:	f9000016 	str	x22, [x0]
  404564:	17ffff94 	b	4043b4 <_nl_make_l10nflist+0x2b4>
  404568:	d2800016 	mov	x22, #0x0                   	// #0
  40456c:	d503201f 	nop
  404570:	aa1303e0 	mov	x0, x19
  404574:	94003d1f 	bl	4139f0 <__free>
  404578:	17ffffac 	b	404428 <_nl_make_l10nflist+0x328>
  40457c:	d2800016 	mov	x22, #0x0                   	// #0
  404580:	17ffffaa 	b	404428 <_nl_make_l10nflist+0x328>
  404584:	d2800500 	mov	x0, #0x28                  	// #40
  404588:	94003b86 	bl	4133a0 <__libc_malloc>
  40458c:	52800022 	mov	w2, #0x1                   	// #1
  404590:	aa0003f6 	mov	x22, x0
  404594:	b4000100 	cbz	x0, 4045b4 <_nl_make_l10nflist+0x4b4>
  404598:	2a0203e0 	mov	w0, w2
  40459c:	f90002d3 	str	x19, [x22]
  4045a0:	17ffff7f 	b	40439c <_nl_make_l10nflist+0x29c>
  4045a4:	2a1403f3 	mov	w19, w20
  4045a8:	17ffff93 	b	4043f4 <_nl_make_l10nflist+0x2f4>
  4045ac:	d2800018 	mov	x24, #0x0                   	// #0
  4045b0:	17ffff47 	b	4042cc <_nl_make_l10nflist+0x1cc>
  4045b4:	aa1303e0 	mov	x0, x19
  4045b8:	d2800016 	mov	x22, #0x0                   	// #0
  4045bc:	94003d0d 	bl	4139f0 <__free>
  4045c0:	17ffff9a 	b	404428 <_nl_make_l10nflist+0x328>

00000000004045c4 <.annobin__nl_make_l10nflist.end>:
  4045c4:	d503201f 	nop

00000000004045c8 <_nl_normalize_codeset>:
  4045c8:	a9bd7bfd 	stp	x29, x30, [sp, #-48]!
  4045cc:	910003fd 	mov	x29, sp
  4045d0:	b40008c1 	cbz	x1, 4046e8 <_nl_normalize_codeset+0x120>
  4045d4:	a9025bf5 	stp	x21, x22, [sp, #32]
  4045d8:	900002f6 	adrp	x22, 460000 <translit_from_idx+0x1030>
  4045dc:	9116a2d6 	add	x22, x22, #0x5a8
  4045e0:	a90153f3 	stp	x19, x20, [sp, #16]
  4045e4:	aa0103f4 	mov	x20, x1
  4045e8:	aa0003f5 	mov	x21, x0
  4045ec:	f94036d3 	ldr	x19, [x22, #104]
  4045f0:	aa0003e3 	mov	x3, x0
  4045f4:	8b000026 	add	x6, x1, x0
  4045f8:	52800025 	mov	w5, #0x1                   	// #1
  4045fc:	d2800000 	mov	x0, #0x0                   	// #0
  404600:	39400062 	ldrb	w2, [x3]
  404604:	91000463 	add	x3, x3, #0x1
  404608:	5100c044 	sub	w4, w2, #0x30
  40460c:	d37f1c42 	ubfiz	x2, x2, #1, #8
  404610:	78626a62 	ldrh	w2, [x19, x2]
  404614:	36180082 	tbz	w2, #3, 404624 <_nl_normalize_codeset+0x5c>
  404618:	7100289f 	cmp	w4, #0xa
  40461c:	91000400 	add	x0, x0, #0x1
  404620:	1a9f30a5 	csel	w5, w5, wzr, cc  // cc = lo, ul, last
  404624:	eb0300df 	cmp	x6, x3
  404628:	54fffec1 	b.ne	404600 <_nl_normalize_codeset+0x38>  // b.any
  40462c:	35000425 	cbnz	w5, 4046b0 <_nl_normalize_codeset+0xe8>
  404630:	91000400 	add	x0, x0, #0x1
  404634:	94003b5b 	bl	4133a0 <__libc_malloc>
  404638:	aa0003e4 	mov	x4, x0
  40463c:	b4000400 	cbz	x0, 4046bc <_nl_normalize_codeset+0xf4>
  404640:	d2800002 	mov	x2, #0x0                   	// #0
  404644:	f9403ac8 	ldr	x8, [x22, #112]
  404648:	14000007 	b	404664 <_nl_normalize_codeset+0x9c>
  40464c:	b8657901 	ldr	w1, [x8, x5, lsl #2]
  404650:	380014c1 	strb	w1, [x6], #1
  404654:	aa0603e4 	mov	x4, x6
  404658:	91000442 	add	x2, x2, #0x1
  40465c:	eb02029f 	cmp	x20, x2
  404660:	540001e9 	b.ls	40469c <_nl_normalize_codeset+0xd4>  // b.plast
  404664:	38626aa5 	ldrb	w5, [x21, x2]
  404668:	aa0403e6 	mov	x6, x4
  40466c:	aa0503e3 	mov	x3, x5
  404670:	5100c0a1 	sub	w1, w5, #0x30
  404674:	78657a67 	ldrh	w7, [x19, x5, lsl #1]
  404678:	3757fea7 	tbnz	w7, #10, 40464c <_nl_normalize_codeset+0x84>
  40467c:	aa0403e5 	mov	x5, x4
  404680:	7100243f 	cmp	w1, #0x9
  404684:	54fffea8 	b.hi	404658 <_nl_normalize_codeset+0x90>  // b.pmore
  404688:	380014a3 	strb	w3, [x5], #1
  40468c:	91000442 	add	x2, x2, #0x1
  404690:	eb02029f 	cmp	x20, x2
  404694:	aa0503e4 	mov	x4, x5
  404698:	54fffe68 	b.hi	404664 <_nl_normalize_codeset+0x9c>  // b.pmore
  40469c:	a94153f3 	ldp	x19, x20, [sp, #16]
  4046a0:	a9425bf5 	ldp	x21, x22, [sp, #32]
  4046a4:	3900009f 	strb	wzr, [x4]
  4046a8:	a8c37bfd 	ldp	x29, x30, [sp], #48
  4046ac:	d65f03c0 	ret
  4046b0:	91001000 	add	x0, x0, #0x4
  4046b4:	94003b3b 	bl	4133a0 <__libc_malloc>
  4046b8:	b50000c0 	cbnz	x0, 4046d0 <_nl_normalize_codeset+0x108>
  4046bc:	a94153f3 	ldp	x19, x20, [sp, #16]
  4046c0:	a9425bf5 	ldp	x21, x22, [sp, #32]
  4046c4:	d2800000 	mov	x0, #0x0                   	// #0
  4046c8:	a8c37bfd 	ldp	x29, x30, [sp], #48
  4046cc:	d65f03c0 	ret
  4046d0:	aa0003e4 	mov	x4, x0
  4046d4:	528e6d21 	mov	w1, #0x7369                	// #29545
  4046d8:	72a00de1 	movk	w1, #0x6f, lsl #16
  4046dc:	f94036d3 	ldr	x19, [x22, #104]
  4046e0:	b8003481 	str	w1, [x4], #3
  4046e4:	17ffffd7 	b	404640 <_nl_normalize_codeset+0x78>
  4046e8:	d2800080 	mov	x0, #0x4                   	// #4
  4046ec:	94003b2d 	bl	4133a0 <__libc_malloc>
  4046f0:	b4fffea0 	cbz	x0, 4046c4 <_nl_normalize_codeset+0xfc>
  4046f4:	aa0003e4 	mov	x4, x0
  4046f8:	528e6d21 	mov	w1, #0x7369                	// #29545
  4046fc:	72a00de1 	movk	w1, #0x6f, lsl #16
  404700:	b8003481 	str	w1, [x4], #3
  404704:	17ffffe8 	b	4046a4 <_nl_normalize_codeset+0xdc>

0000000000404708 <_nl_explode_name>:
  404708:	a9ba7bfd 	stp	x29, x30, [sp, #-96]!
  40470c:	910003fd 	mov	x29, sp
  404710:	a90153f3 	stp	x19, x20, [sp, #16]
  404714:	f900005f 	str	xzr, [x2]
  404718:	f900007f 	str	xzr, [x3]
  40471c:	f900009f 	str	xzr, [x4]
  404720:	f90000bf 	str	xzr, [x5]
  404724:	f9000020 	str	x0, [x1]
  404728:	39400001 	ldrb	w1, [x0]
  40472c:	71017c3f 	cmp	w1, #0x5f
  404730:	12197826 	and	w6, w1, #0xffffffbf
  404734:	7a4018c4 	ccmp	w6, #0x0, #0x4, ne  // ne = any
  404738:	540005a0 	b.eq	4047ec <_nl_explode_name+0xe4>  // b.none
  40473c:	7100b83f 	cmp	w1, #0x2e
  404740:	54000560 	b.eq	4047ec <_nl_explode_name+0xe4>  // b.none
  404744:	aa0003e6 	mov	x6, x0
  404748:	52800807 	mov	w7, #0x40                  	// #64
  40474c:	d503201f 	nop
  404750:	394004c1 	ldrb	w1, [x6, #1]
  404754:	910004d3 	add	x19, x6, #0x1
  404758:	71017c3f 	cmp	w1, #0x5f
  40475c:	7a401824 	ccmp	w1, #0x0, #0x4, ne  // ne = any
  404760:	540004a0 	b.eq	4047f4 <_nl_explode_name+0xec>  // b.none
  404764:	7100b83f 	cmp	w1, #0x2e
  404768:	aa1303e6 	mov	x6, x19
  40476c:	7a471024 	ccmp	w1, w7, #0x4, ne  // ne = any
  404770:	54ffff01 	b.ne	404750 <_nl_explode_name+0x48>  // b.any
  404774:	eb13001f 	cmp	x0, x19
  404778:	540003a0 	b.eq	4047ec <_nl_explode_name+0xe4>  // b.none
  40477c:	52800014 	mov	w20, #0x0                   	// #0
  404780:	7100b83f 	cmp	w1, #0x2e
  404784:	54000640 	b.eq	40484c <_nl_explode_name+0x144>  // b.none
  404788:	7101003f 	cmp	w1, #0x40
  40478c:	54000101 	b.ne	4047ac <_nl_explode_name+0xa4>  // b.any
  404790:	aa1303e0 	mov	x0, x19
  404794:	321d0281 	orr	w1, w20, #0x8
  404798:	3800141f 	strb	wzr, [x0], #1
  40479c:	f9000040 	str	x0, [x2]
  4047a0:	39400660 	ldrb	w0, [x19, #1]
  4047a4:	7100001f 	cmp	w0, #0x0
  4047a8:	1a941034 	csel	w20, w1, w20, ne  // ne = any
  4047ac:	f9400060 	ldr	x0, [x3]
  4047b0:	b40000a0 	cbz	x0, 4047c4 <_nl_explode_name+0xbc>
  4047b4:	39400001 	ldrb	w1, [x0]
  4047b8:	121d7a80 	and	w0, w20, #0xfffffffb
  4047bc:	7100003f 	cmp	w1, #0x0
  4047c0:	1a940014 	csel	w20, w0, w20, eq  // eq = none
  4047c4:	f9400080 	ldr	x0, [x4]
  4047c8:	b40000a0 	cbz	x0, 4047dc <_nl_explode_name+0xd4>
  4047cc:	39400001 	ldrb	w1, [x0]
  4047d0:	121e7a80 	and	w0, w20, #0xfffffffd
  4047d4:	7100003f 	cmp	w1, #0x0
  4047d8:	1a940014 	csel	w20, w0, w20, eq  // eq = none
  4047dc:	2a1403e0 	mov	w0, w20
  4047e0:	a94153f3 	ldp	x19, x20, [sp, #16]
  4047e4:	a8c67bfd 	ldp	x29, x30, [sp], #96
  4047e8:	d65f03c0 	ret
  4047ec:	52800014 	mov	w20, #0x0                   	// #0
  4047f0:	17ffffef 	b	4047ac <_nl_explode_name+0xa4>
  4047f4:	eb13001f 	cmp	x0, x19
  4047f8:	54ffffa0 	b.eq	4047ec <_nl_explode_name+0xe4>  // b.none
  4047fc:	71017c3f 	cmp	w1, #0x5f
  404800:	54fffbe1 	b.ne	40477c <_nl_explode_name+0x74>  // b.any
  404804:	3900027f 	strb	wzr, [x19]
  404808:	910008c6 	add	x6, x6, #0x2
  40480c:	f9000066 	str	x6, [x3]
  404810:	39400661 	ldrb	w1, [x19, #1]
  404814:	12197820 	and	w0, w1, #0xffffffbf
  404818:	7100b83f 	cmp	w1, #0x2e
  40481c:	12001c00 	and	w0, w0, #0xff
  404820:	7a401804 	ccmp	w0, #0x0, #0x4, ne  // ne = any
  404824:	540000c0 	b.eq	40483c <_nl_explode_name+0x134>  // b.none
  404828:	38401cc1 	ldrb	w1, [x6, #1]!
  40482c:	7100b83f 	cmp	w1, #0x2e
  404830:	12197820 	and	w0, w1, #0xffffffbf
  404834:	7a401804 	ccmp	w0, #0x0, #0x4, ne  // ne = any
  404838:	54ffff81 	b.ne	404828 <_nl_explode_name+0x120>  // b.any
  40483c:	aa0603f3 	mov	x19, x6
  404840:	52800094 	mov	w20, #0x4                   	// #4
  404844:	7100b83f 	cmp	w1, #0x2e
  404848:	54fffa01 	b.ne	404788 <_nl_explode_name+0x80>  // b.any
  40484c:	aa1303e0 	mov	x0, x19
  404850:	a9025bf5 	stp	x21, x22, [sp, #32]
  404854:	528017e6 	mov	w6, #0xbf                  	// #191
  404858:	321f0296 	orr	w22, w20, #0x2
  40485c:	3800141f 	strb	wzr, [x0], #1
  404860:	f9000080 	str	x0, [x4]
  404864:	39400661 	ldrb	w1, [x19, #1]
  404868:	6a06003f 	tst	w1, w6
  40486c:	54000600 	b.eq	40492c <_nl_explode_name+0x224>  // b.none
  404870:	aa0003f5 	mov	x21, x0
  404874:	14000002 	b	40487c <_nl_explode_name+0x174>
  404878:	aa1303f5 	mov	x21, x19
  40487c:	394006a7 	ldrb	w7, [x21, #1]
  404880:	528017e6 	mov	w6, #0xbf                  	// #191
  404884:	910006b3 	add	x19, x21, #0x1
  404888:	6a0600ff 	tst	w7, w6
  40488c:	54ffff61 	b.ne	404878 <_nl_explode_name+0x170>  // b.any
  404890:	f90023e5 	str	x5, [sp, #64]
  404894:	eb13001f 	cmp	x0, x19
  404898:	540002e0 	b.eq	4048f4 <_nl_explode_name+0x1ec>  // b.none
  40489c:	cb000261 	sub	x1, x19, x0
  4048a0:	f9001bf7 	str	x23, [sp, #48]
  4048a4:	a9048fe2 	stp	x2, x3, [sp, #72]
  4048a8:	f9002fe4 	str	x4, [sp, #88]
  4048ac:	97ffff47 	bl	4045c8 <_nl_normalize_codeset>
  4048b0:	f94023e5 	ldr	x5, [sp, #64]
  4048b4:	aa0003f7 	mov	x23, x0
  4048b8:	f90000a0 	str	x0, [x5]
  4048bc:	b4000400 	cbz	x0, 40493c <_nl_explode_name+0x234>
  4048c0:	f9402fe4 	ldr	x4, [sp, #88]
  4048c4:	aa0003e1 	mov	x1, x0
  4048c8:	f90023e4 	str	x4, [sp, #64]
  4048cc:	f9400080 	ldr	x0, [x4]
  4048d0:	9400416c 	bl	414e80 <strcmp>
  4048d4:	a9440be4 	ldp	x4, x2, [sp, #64]
  4048d8:	f9402be3 	ldr	x3, [sp, #80]
  4048dc:	34000120 	cbz	w0, 404900 <_nl_explode_name+0x1f8>
  4048e0:	394006a1 	ldrb	w1, [x21, #1]
  4048e4:	32000694 	orr	w20, w20, #0x3
  4048e8:	a9425bf5 	ldp	x21, x22, [sp, #32]
  4048ec:	f9401bf7 	ldr	x23, [sp, #48]
  4048f0:	17ffffa6 	b	404788 <_nl_explode_name+0x80>
  4048f4:	2a1603f4 	mov	w20, w22
  4048f8:	a9425bf5 	ldp	x21, x22, [sp, #32]
  4048fc:	17ffffa3 	b	404788 <_nl_explode_name+0x80>
  404900:	aa1703e0 	mov	x0, x23
  404904:	a9040fe2 	stp	x2, x3, [sp, #64]
  404908:	2a1603f4 	mov	w20, w22
  40490c:	f9002be4 	str	x4, [sp, #80]
  404910:	94003c38 	bl	4139f0 <__free>
  404914:	394006a1 	ldrb	w1, [x21, #1]
  404918:	a9425bf5 	ldp	x21, x22, [sp, #32]
  40491c:	f9401bf7 	ldr	x23, [sp, #48]
  404920:	a9440fe2 	ldp	x2, x3, [sp, #64]
  404924:	f9402be4 	ldr	x4, [sp, #80]
  404928:	17ffff98 	b	404788 <_nl_explode_name+0x80>
  40492c:	2a1603f4 	mov	w20, w22
  404930:	aa0003f3 	mov	x19, x0
  404934:	a9425bf5 	ldp	x21, x22, [sp, #32]
  404938:	17ffff94 	b	404788 <_nl_explode_name+0x80>
  40493c:	12800014 	mov	w20, #0xffffffff            	// #-1
  404940:	a9425bf5 	ldp	x21, x22, [sp, #32]
  404944:	f9401bf7 	ldr	x23, [sp, #48]
  404948:	17ffffa5 	b	4047dc <_nl_explode_name+0xd4>

000000000040494c <.annobin__nl_explode_name.end>:
  40494c:	d503201f 	nop

0000000000404950 <__gettext_free_exp>:
  404950:	b4000340 	cbz	x0, 4049b8 <__gettext_free_exp+0x68>
  404954:	a9be7bfd 	stp	x29, x30, [sp, #-32]!
  404958:	910003fd 	mov	x29, sp
  40495c:	f9000bf3 	str	x19, [sp, #16]
  404960:	aa0003f3 	mov	x19, x0
  404964:	b9400000 	ldr	w0, [x0]
  404968:	7100081f 	cmp	w0, #0x2
  40496c:	54000160 	b.eq	404998 <__gettext_free_exp+0x48>  // b.none
  404970:	71000c1f 	cmp	w0, #0x3
  404974:	540000e0 	b.eq	404990 <__gettext_free_exp+0x40>  // b.none
  404978:	7100041f 	cmp	w0, #0x1
  40497c:	54000120 	b.eq	4049a0 <__gettext_free_exp+0x50>  // b.none
  404980:	aa1303e0 	mov	x0, x19
  404984:	f9400bf3 	ldr	x19, [sp, #16]
  404988:	a8c27bfd 	ldp	x29, x30, [sp], #32
  40498c:	14003c19 	b	4139f0 <__free>
  404990:	f9400e60 	ldr	x0, [x19, #24]
  404994:	97ffffef 	bl	404950 <__gettext_free_exp>
  404998:	f9400a60 	ldr	x0, [x19, #16]
  40499c:	97ffffed 	bl	404950 <__gettext_free_exp>
  4049a0:	f9400660 	ldr	x0, [x19, #8]
  4049a4:	97ffffeb 	bl	404950 <__gettext_free_exp>
  4049a8:	aa1303e0 	mov	x0, x19
  4049ac:	f9400bf3 	ldr	x19, [sp, #16]
  4049b0:	a8c27bfd 	ldp	x29, x30, [sp], #32
  4049b4:	14003c0f 	b	4139f0 <__free>
  4049b8:	d65f03c0 	ret

00000000004049bc <.annobin___gettext_free_exp.end>:
  4049bc:	d503201f 	nop

00000000004049c0 <new_exp>:
  4049c0:	a9bc7bfd 	stp	x29, x30, [sp, #-64]!
  4049c4:	910003fd 	mov	x29, sp
  4049c8:	a90363f7 	stp	x23, x24, [sp, #48]
  4049cc:	2a0003f7 	mov	w23, w0
  4049d0:	2a0103f8 	mov	w24, w1
  4049d4:	34000620 	cbz	w0, 404a98 <new_exp+0xd8>
  4049d8:	51000400 	sub	w0, w0, #0x1
  4049dc:	a90153f3 	stp	x19, x20, [sp, #16]
  4049e0:	51000af3 	sub	w19, w23, #0x2
  4049e4:	a9025bf5 	stp	x21, x22, [sp, #32]
  4049e8:	91002043 	add	x3, x2, #0x8
  4049ec:	93407e76 	sxtw	x22, w19
  4049f0:	f860d854 	ldr	x20, [x2, w0, sxtw #3]
  4049f4:	aa0203f5 	mov	x21, x2
  4049f8:	aa1603e0 	mov	x0, x22
  4049fc:	b5000094 	cbnz	x20, 404a0c <new_exp+0x4c>
  404a00:	14000018 	b	404a60 <new_exp+0xa0>
  404a04:	f8607862 	ldr	x2, [x3, x0, lsl #3]
  404a08:	b40002c2 	cbz	x2, 404a60 <new_exp+0xa0>
  404a0c:	3100041f 	cmn	w0, #0x1
  404a10:	d1000400 	sub	x0, x0, #0x1
  404a14:	54ffff81 	b.ne	404a04 <new_exp+0x44>  // b.any
  404a18:	d2800400 	mov	x0, #0x20                  	// #32
  404a1c:	94003a61 	bl	4133a0 <__libc_malloc>
  404a20:	b4000200 	cbz	x0, 404a60 <new_exp+0xa0>
  404a24:	91004001 	add	x1, x0, #0x10
  404a28:	29006017 	stp	w23, w24, [x0]
  404a2c:	310006df 	cmn	w22, #0x1
  404a30:	f8367834 	str	x20, [x1, x22, lsl #3]
  404a34:	540000c0 	b.eq	404a4c <new_exp+0x8c>  // b.none
  404a38:	f8767ab4 	ldr	x20, [x21, x22, lsl #3]
  404a3c:	d10006d6 	sub	x22, x22, #0x1
  404a40:	310006df 	cmn	w22, #0x1
  404a44:	f8367834 	str	x20, [x1, x22, lsl #3]
  404a48:	54ffff81 	b.ne	404a38 <new_exp+0x78>  // b.any
  404a4c:	a94153f3 	ldp	x19, x20, [sp, #16]
  404a50:	a9425bf5 	ldp	x21, x22, [sp, #32]
  404a54:	a94363f7 	ldp	x23, x24, [sp, #48]
  404a58:	a8c47bfd 	ldp	x29, x30, [sp], #64
  404a5c:	d65f03c0 	ret
  404a60:	93407e73 	sxtw	x19, w19
  404a64:	14000003 	b	404a70 <new_exp+0xb0>
  404a68:	f8737ab4 	ldr	x20, [x21, x19, lsl #3]
  404a6c:	d1000673 	sub	x19, x19, #0x1
  404a70:	aa1403e0 	mov	x0, x20
  404a74:	97ffffb7 	bl	404950 <__gettext_free_exp>
  404a78:	3100067f 	cmn	w19, #0x1
  404a7c:	54ffff61 	b.ne	404a68 <new_exp+0xa8>  // b.any
  404a80:	a94153f3 	ldp	x19, x20, [sp, #16]
  404a84:	a9425bf5 	ldp	x21, x22, [sp, #32]
  404a88:	d2800000 	mov	x0, #0x0                   	// #0
  404a8c:	a94363f7 	ldp	x23, x24, [sp, #48]
  404a90:	a8c47bfd 	ldp	x29, x30, [sp], #64
  404a94:	d65f03c0 	ret
  404a98:	d2800400 	mov	x0, #0x20                  	// #32
  404a9c:	94003a41 	bl	4133a0 <__libc_malloc>
  404aa0:	b4ffff40 	cbz	x0, 404a88 <new_exp+0xc8>
  404aa4:	2900601f 	stp	wzr, w24, [x0]
  404aa8:	17fffff9 	b	404a8c <new_exp+0xcc>

0000000000404aac <.annobin___gettextparse.start>:
  404aac:	d503201f 	nop

0000000000404ab0 <__gettextparse>:
  404ab0:	d12243ff 	sub	sp, sp, #0x890
  404ab4:	90000264 	adrp	x4, 450000 <free_mem+0x48>
  404ab8:	a9007bfd 	stp	x29, x30, [sp]
  404abc:	910003fd 	mov	x29, sp
  404ac0:	a90153f3 	stp	x19, x20, [sp, #16]
  404ac4:	9102e3f3 	add	x19, sp, #0xb8
  404ac8:	910923f4 	add	x20, sp, #0x248
  404acc:	a90363f7 	stp	x23, x24, [sp, #48]
  404ad0:	911b4097 	add	x23, x4, #0x6d0
  404ad4:	a9046bf9 	stp	x25, x26, [sp, #64]
  404ad8:	b0000419 	adrp	x25, 485000 <__FRAME_END__+0x103b0>
  404adc:	91234321 	add	x1, x25, #0x8d0
  404ae0:	aa1303f9 	mov	x25, x19
  404ae4:	a9025bf5 	stp	x21, x22, [sp, #32]
  404ae8:	910082f6 	add	x22, x23, #0x20
  404aec:	a90807e0 	stp	x0, x1, [sp, #128]
  404af0:	f9400020 	ldr	x0, [x1]
  404af4:	f90447e0 	str	x0, [sp, #2184]
  404af8:	d2800000 	mov	x0, #0x0                   	// #0
  404afc:	910162e0 	add	x0, x23, #0x58
  404b00:	12800035 	mov	w21, #0xfffffffe            	// #-2
  404b04:	5280001a 	mov	w26, #0x0                   	// #0
  404b08:	a90573fb 	stp	x27, x28, [sp, #80]
  404b0c:	d280191b 	mov	x27, #0xc8                  	// #200
  404b10:	fd0033e8 	str	d8, [sp, #96]
  404b14:	9e670288 	fmov	d8, x20
  404b18:	f9003be0 	str	x0, [sp, #112]
  404b1c:	b9007fff 	str	wzr, [sp, #124]
  404b20:	790173ff 	strh	wzr, [sp, #184]
  404b24:	38facae2 	ldrsb	w2, [x23, w26, sxtw]
  404b28:	93407f41 	sxtw	x1, w26
  404b2c:	3100285f 	cmn	w2, #0xa
  404b30:	54000340 	b.eq	404b98 <__gettextparse+0xe8>  // b.none
  404b34:	31000abf 	cmn	w21, #0x2
  404b38:	54001c20 	b.eq	404ebc <__gettextparse+0x40c>  // b.none
  404b3c:	710002bf 	cmp	w21, #0x0
  404b40:	54001a6d 	b.le	404e8c <__gettextparse+0x3dc>
  404b44:	910382e0 	add	x0, x23, #0xe0
  404b48:	3875c808 	ldrb	w8, [x0, w21, sxtw]
  404b4c:	0b080042 	add	w2, w2, w8
  404b50:	7100d85f 	cmp	w2, #0x36
  404b54:	54000228 	b.hi	404b98 <__gettextparse+0xe8>  // b.pmore
  404b58:	38e2cac0 	ldrsb	w0, [x22, w2, sxtw]
  404b5c:	6b08001f 	cmp	w0, w8
  404b60:	540001c1 	b.ne	404b98 <__gettextparse+0xe8>  // b.any
  404b64:	f9403be0 	ldr	x0, [sp, #112]
  404b68:	3862c81a 	ldrb	w26, [x0, w2, sxtw]
  404b6c:	340019ba 	cbz	w26, 404ea0 <__gettextparse+0x3f0>
  404b70:	b9407fe1 	ldr	w1, [sp, #124]
  404b74:	12800035 	mov	w21, #0xfffffffe            	// #-2
  404b78:	91002294 	add	x20, x20, #0x8
  404b7c:	7100003f 	cmp	w1, #0x0
  404b80:	1a9f07e0 	cset	w0, ne  // ne = any
  404b84:	4b000020 	sub	w0, w1, w0
  404b88:	b9007fe0 	str	w0, [sp, #124]
  404b8c:	f9404fe0 	ldr	x0, [sp, #152]
  404b90:	f9000280 	str	x0, [x20]
  404b94:	14000056 	b	404cec <__gettextparse+0x23c>
  404b98:	910242e0 	add	x0, x23, #0x90
  404b9c:	38616802 	ldrb	w2, [x0, x1]
  404ba0:	35000662 	cbnz	w2, 404c6c <__gettextparse+0x1bc>
  404ba4:	b9407fe0 	ldr	w0, [sp, #124]
  404ba8:	71000c1f 	cmp	w0, #0x3
  404bac:	540001e1 	b.ne	404be8 <__gettextparse+0x138>  // b.any
  404bb0:	710002bf 	cmp	w21, #0x0
  404bb4:	5400172c 	b.gt	404e98 <__gettextparse+0x3e8>
  404bb8:	54000181 	b.ne	404be8 <__gettextparse+0x138>  // b.any
  404bbc:	aa1903f3 	mov	x19, x25
  404bc0:	52800034 	mov	w20, #0x1                   	// #1
  404bc4:	14000015 	b	404c18 <__gettextparse+0x168>
  404bc8:	f9403be1 	ldr	x1, [sp, #112]
  404bcc:	3860c83a 	ldrb	w26, [x1, w0, sxtw]
  404bd0:	35001e3a 	cbnz	w26, 404f94 <__gettextparse+0x4e4>
  404bd4:	d503201f 	nop
  404bd8:	eb19027f 	cmp	x19, x25
  404bdc:	540001c0 	b.eq	404c14 <__gettextparse+0x164>  // b.none
  404be0:	789fee61 	ldrsh	x1, [x19, #-2]!
  404be4:	d1002294 	sub	x20, x20, #0x8
  404be8:	38e16ae0 	ldrsb	w0, [x23, x1]
  404bec:	3100281f 	cmn	w0, #0xa
  404bf0:	54ffff40 	b.eq	404bd8 <__gettextparse+0x128>  // b.none
  404bf4:	11000400 	add	w0, w0, #0x1
  404bf8:	7100d81f 	cmp	w0, #0x36
  404bfc:	54fffee8 	b.hi	404bd8 <__gettextparse+0x128>  // b.pmore
  404c00:	38e0cac1 	ldrsb	w1, [x22, w0, sxtw]
  404c04:	7100043f 	cmp	w1, #0x1
  404c08:	54fffe00 	b.eq	404bc8 <__gettextparse+0x118>  // b.none
  404c0c:	eb19027f 	cmp	x19, x25
  404c10:	54fffe81 	b.ne	404be0 <__gettextparse+0x130>  // b.any
  404c14:	52800034 	mov	w20, #0x1                   	// #1
  404c18:	9102e3e0 	add	x0, sp, #0xb8
  404c1c:	eb00027f 	cmp	x19, x0
  404c20:	54000060 	b.eq	404c2c <__gettextparse+0x17c>  // b.none
  404c24:	aa1303e0 	mov	x0, x19
  404c28:	94003b72 	bl	4139f0 <__free>
  404c2c:	f94047e1 	ldr	x1, [sp, #136]
  404c30:	2a1403e0 	mov	w0, w20
  404c34:	f94447e2 	ldr	x2, [sp, #2184]
  404c38:	f9400023 	ldr	x3, [x1]
  404c3c:	eb030042 	subs	x2, x2, x3
  404c40:	d2800003 	mov	x3, #0x0                   	// #0
  404c44:	54002d41 	b.ne	4051ec <__gettextparse+0x73c>  // b.any
  404c48:	a9407bfd 	ldp	x29, x30, [sp]
  404c4c:	a94153f3 	ldp	x19, x20, [sp, #16]
  404c50:	a9425bf5 	ldp	x21, x22, [sp, #32]
  404c54:	a94363f7 	ldp	x23, x24, [sp, #48]
  404c58:	a9446bf9 	ldp	x25, x26, [sp, #64]
  404c5c:	a94573fb 	ldp	x27, x28, [sp, #80]
  404c60:	fd4033e8 	ldr	d8, [sp, #96]
  404c64:	912243ff 	add	sp, sp, #0x890
  404c68:	d65f03c0 	ret
  404c6c:	9102c2e0 	add	x0, x23, #0xb0
  404c70:	52800021 	mov	w1, #0x1                   	// #1
  404c74:	71001c5f 	cmp	w2, #0x7
  404c78:	3862c803 	ldrb	w3, [x0, w2, sxtw]
  404c7c:	4b030020 	sub	w0, w1, w3
  404c80:	f860da80 	ldr	x0, [x20, w0, sxtw #3]
  404c84:	54000aa0 	b.eq	404dd8 <__gettextparse+0x328>  // b.none
  404c88:	54000c09 	b.ls	404e08 <__gettextparse+0x358>  // b.plast
  404c8c:	7100285f 	cmp	w2, #0xa
  404c90:	540019a0 	b.eq	404fc4 <__gettextparse+0x514>  // b.none
  404c94:	540009a9 	b.ls	404dc8 <__gettextparse+0x318>  // b.plast
  404c98:	7100305f 	cmp	w2, #0xc
  404c9c:	54001aa0 	b.eq	404ff0 <__gettextparse+0x540>  // b.none
  404ca0:	54001503 	b.cc	404f40 <__gettextparse+0x490>  // b.lo, b.ul, b.last
  404ca4:	7100345f 	cmp	w2, #0xd
  404ca8:	54000be1 	b.ne	404e24 <__gettextparse+0x374>  // b.any
  404cac:	f85f8280 	ldur	x0, [x20, #-8]
  404cb0:	d1001a73 	sub	x19, x19, #0x6
  404cb4:	d1006298 	sub	x24, x20, #0x18
  404cb8:	1280001a 	mov	w26, #0xffffffff            	// #-1
  404cbc:	52800042 	mov	w2, #0x2                   	// #2
  404cc0:	79c00267 	ldrsh	w7, [x19]
  404cc4:	91002314 	add	x20, x24, #0x8
  404cc8:	f9000700 	str	x0, [x24, #8]
  404ccc:	0b1a00e1 	add	w1, w7, w26
  404cd0:	7100d83f 	cmp	w1, #0x36
  404cd4:	54000088 	b.hi	404ce4 <__gettextparse+0x234>  // b.pmore
  404cd8:	38e1cac0 	ldrsb	w0, [x22, w1, sxtw]
  404cdc:	6b07001f 	cmp	w0, w7
  404ce0:	54000e80 	b.eq	404eb0 <__gettextparse+0x400>  // b.none
  404ce4:	910362e0 	add	x0, x23, #0xd8
  404ce8:	38e2c81a 	ldrsb	w26, [x0, w2, sxtw]
  404cec:	d37ffb61 	lsl	x1, x27, #1
  404cf0:	7900067a 	strh	w26, [x19, #2]
  404cf4:	d1000820 	sub	x0, x1, #0x2
  404cf8:	91000a73 	add	x19, x19, #0x2
  404cfc:	8b000320 	add	x0, x25, x0
  404d00:	eb00027f 	cmp	x19, x0
  404d04:	54000583 	b.cc	404db4 <__gettextparse+0x304>  // b.lo, b.ul, b.last
  404d08:	cb190274 	sub	x20, x19, x25
  404d0c:	d284e1e0 	mov	x0, #0x270f                	// #9999
  404d10:	eb00037f 	cmp	x27, x0
  404d14:	9341fe94 	asr	x20, x20, #1
  404d18:	91000694 	add	x20, x20, #0x1
  404d1c:	54001808 	b.hi	40501c <__gettextparse+0x56c>  // b.pmore
  404d20:	d284e206 	mov	x6, #0x2710                	// #10000
  404d24:	eb06003f 	cmp	x1, x6
  404d28:	9a86903b 	csel	x27, x1, x6, ls  // ls = plast
  404d2c:	8b1b0b60 	add	x0, x27, x27, lsl #2
  404d30:	d37ff800 	lsl	x0, x0, #1
  404d34:	91001c00 	add	x0, x0, #0x7
  404d38:	9400399a 	bl	4133a0 <__libc_malloc>
  404d3c:	aa0003fc 	mov	x28, x0
  404d40:	b40016e0 	cbz	x0, 40501c <__gettextparse+0x56c>
  404d44:	d37ffa93 	lsl	x19, x20, #1
  404d48:	aa1903e1 	mov	x1, x25
  404d4c:	aa1303e2 	mov	x2, x19
  404d50:	8b1b0418 	add	x24, x0, x27, lsl #1
  404d54:	97ffed33 	bl	400220 <.plt+0x10>
  404d58:	9e660101 	fmov	x1, d8
  404d5c:	d37df294 	lsl	x20, x20, #3
  404d60:	aa1803e0 	mov	x0, x24
  404d64:	aa1403e2 	mov	x2, x20
  404d68:	97ffed2e 	bl	400220 <.plt+0x10>
  404d6c:	9102e3e0 	add	x0, sp, #0xb8
  404d70:	d37ffb61 	lsl	x1, x27, #1
  404d74:	eb00033f 	cmp	x25, x0
  404d78:	540000a0 	b.eq	404d8c <__gettextparse+0x2dc>  // b.none
  404d7c:	aa1903e0 	mov	x0, x25
  404d80:	f9004be1 	str	x1, [sp, #144]
  404d84:	94003b1b 	bl	4139f0 <__free>
  404d88:	f9404be1 	ldr	x1, [sp, #144]
  404d8c:	d1000a73 	sub	x19, x19, #0x2
  404d90:	d1000821 	sub	x1, x1, #0x2
  404d94:	8b130393 	add	x19, x28, x19
  404d98:	8b010381 	add	x1, x28, x1
  404d9c:	d1002294 	sub	x20, x20, #0x8
  404da0:	eb01027f 	cmp	x19, x1
  404da4:	8b140314 	add	x20, x24, x20
  404da8:	54001fa2 	b.cs	40519c <__gettextparse+0x6ec>  // b.hs, b.nlast
  404dac:	aa1c03f9 	mov	x25, x28
  404db0:	9e670308 	fmov	d8, x24
  404db4:	7100275f 	cmp	w26, #0x9
  404db8:	54ffeb61 	b.ne	404b24 <__gettextparse+0x74>  // b.any
  404dbc:	aa1903f3 	mov	x19, x25
  404dc0:	52800014 	mov	w20, #0x0                   	// #0
  404dc4:	17ffff95 	b	404c18 <__gettextparse+0x168>
  404dc8:	7100205f 	cmp	w2, #0x8
  404dcc:	54000060 	b.eq	404dd8 <__gettextparse+0x328>  // b.none
  404dd0:	7100245f 	cmp	w2, #0x9
  404dd4:	54000281 	b.ne	404e24 <__gettextparse+0x374>  // b.any
  404dd8:	b85f8281 	ldur	w1, [x20, #-8]
  404ddc:	d1006298 	sub	x24, x20, #0x18
  404de0:	f85f0283 	ldur	x3, [x20, #-16]
  404de4:	910283e2 	add	x2, sp, #0xa0
  404de8:	f9400287 	ldr	x7, [x20]
  404dec:	52800040 	mov	w0, #0x2                   	// #2
  404df0:	a90a1fe3 	stp	x3, x7, [sp, #160]
  404df4:	97fffef3 	bl	4049c0 <new_exp>
  404df8:	1280001a 	mov	w26, #0xffffffff            	// #-1
  404dfc:	d1001a73 	sub	x19, x19, #0x6
  404e00:	52800042 	mov	w2, #0x2                   	// #2
  404e04:	17ffffaf 	b	404cc0 <__gettextparse+0x210>
  404e08:	7100105f 	cmp	w2, #0x4
  404e0c:	54000d00 	b.eq	404fac <__gettextparse+0x4fc>  // b.none
  404e10:	540001a9 	b.ls	404e44 <__gettextparse+0x394>  // b.plast
  404e14:	7100145f 	cmp	w2, #0x5
  404e18:	54000a60 	b.eq	404f64 <__gettextparse+0x4b4>  // b.none
  404e1c:	7100185f 	cmp	w2, #0x6
  404e20:	54fffdc0 	b.eq	404dd8 <__gettextparse+0x328>  // b.none
  404e24:	910302e7 	add	x7, x23, #0xc0
  404e28:	910342e1 	add	x1, x23, #0xd0
  404e2c:	cb030e98 	sub	x24, x20, x3, lsl #3
  404e30:	cb030673 	sub	x19, x19, x3, lsl #1
  404e34:	3862c8e2 	ldrb	w2, [x7, w2, sxtw]
  404e38:	51004042 	sub	w2, w2, #0x10
  404e3c:	38e2c83a 	ldrsb	w26, [x1, w2, sxtw]
  404e40:	17ffffa0 	b	404cc0 <__gettextparse+0x210>
  404e44:	7100085f 	cmp	w2, #0x2
  404e48:	540006a0 	b.eq	404f1c <__gettextparse+0x46c>  // b.none
  404e4c:	71000c5f 	cmp	w2, #0x3
  404e50:	54fffea1 	b.ne	404e24 <__gettextparse+0x374>  // b.any
  404e54:	f85f0283 	ldur	x3, [x20, #-16]
  404e58:	2a0203e0 	mov	w0, w2
  404e5c:	f9400287 	ldr	x7, [x20]
  404e60:	910283e2 	add	x2, sp, #0xa0
  404e64:	f85e0281 	ldur	x1, [x20, #-32]
  404e68:	a90a0fe1 	stp	x1, x3, [sp, #160]
  404e6c:	52800201 	mov	w1, #0x10                  	// #16
  404e70:	f9005be7 	str	x7, [sp, #176]
  404e74:	97fffed3 	bl	4049c0 <new_exp>
  404e78:	d100a298 	sub	x24, x20, #0x28
  404e7c:	1280001a 	mov	w26, #0xffffffff            	// #-1
  404e80:	d1002a73 	sub	x19, x19, #0xa
  404e84:	52800042 	mov	w2, #0x2                   	// #2
  404e88:	17ffff8e 	b	404cc0 <__gettextparse+0x210>
  404e8c:	52800008 	mov	w8, #0x0                   	// #0
  404e90:	52800015 	mov	w21, #0x0                   	// #0
  404e94:	17ffff2f 	b	404b50 <__gettextparse+0xa0>
  404e98:	12800035 	mov	w21, #0xfffffffe            	// #-2
  404e9c:	17ffff53 	b	404be8 <__gettextparse+0x138>
  404ea0:	aa1403f8 	mov	x24, x20
  404ea4:	128001e2 	mov	w2, #0xfffffff0            	// #-16
  404ea8:	f9400680 	ldr	x0, [x20, #8]
  404eac:	17ffff85 	b	404cc0 <__gettextparse+0x210>
  404eb0:	f9403be0 	ldr	x0, [sp, #112]
  404eb4:	3861c81a 	ldrb	w26, [x0, w1, sxtw]
  404eb8:	17ffff8d 	b	404cec <__gettextparse+0x23c>
  404ebc:	f94043e0 	ldr	x0, [sp, #128]
  404ec0:	f9400003 	ldr	x3, [x0]
  404ec4:	39400060 	ldrb	w0, [x3]
  404ec8:	35000080 	cbnz	w0, 404ed8 <__gettextparse+0x428>
  404ecc:	1400000f 	b	404f08 <__gettextparse+0x458>
  404ed0:	38401c60 	ldrb	w0, [x3, #1]!
  404ed4:	340001a0 	cbz	w0, 404f08 <__gettextparse+0x458>
  404ed8:	7100801f 	cmp	w0, #0x20
  404edc:	7a491804 	ccmp	w0, #0x9, #0x4, ne  // ne = any
  404ee0:	54ffff80 	b.eq	404ed0 <__gettextparse+0x420>  // b.none
  404ee4:	7101f01f 	cmp	w0, #0x7c
  404ee8:	91000467 	add	x7, x3, #0x1
  404eec:	2a0003f5 	mov	w21, w0
  404ef0:	54000469 	b.ls	404f7c <__gettextparse+0x4cc>  // b.plast
  404ef4:	f94043e0 	ldr	x0, [sp, #128]
  404ef8:	52800028 	mov	w8, #0x1                   	// #1
  404efc:	52802015 	mov	w21, #0x100                 	// #256
  404f00:	f9000007 	str	x7, [x0]
  404f04:	17ffff12 	b	404b4c <__gettextparse+0x9c>
  404f08:	f94043e0 	ldr	x0, [sp, #128]
  404f0c:	52800008 	mov	w8, #0x0                   	// #0
  404f10:	52800015 	mov	w21, #0x0                   	// #0
  404f14:	f9000003 	str	x3, [x0]
  404f18:	17ffff0e 	b	404b50 <__gettextparse+0xa0>
  404f1c:	f9400287 	ldr	x7, [x20]
  404f20:	b4001607 	cbz	x7, 4051e0 <__gettextparse+0x730>
  404f24:	2a0103e2 	mov	w2, w1
  404f28:	d1002298 	sub	x24, x20, #0x8
  404f2c:	f94043e1 	ldr	x1, [sp, #128]
  404f30:	d1000a73 	sub	x19, x19, #0x2
  404f34:	1280013a 	mov	w26, #0xfffffff6            	// #-10
  404f38:	f9000427 	str	x7, [x1, #8]
  404f3c:	17ffff61 	b	404cc0 <__gettextparse+0x210>
  404f40:	d2800002 	mov	x2, #0x0                   	// #0
  404f44:	52800001 	mov	w1, #0x0                   	// #0
  404f48:	52800000 	mov	w0, #0x0                   	// #0
  404f4c:	97fffe9d 	bl	4049c0 <new_exp>
  404f50:	d1002298 	sub	x24, x20, #0x8
  404f54:	1280001a 	mov	w26, #0xffffffff            	// #-1
  404f58:	d1000a73 	sub	x19, x19, #0x2
  404f5c:	52800042 	mov	w2, #0x2                   	// #2
  404f60:	17ffff58 	b	404cc0 <__gettextparse+0x210>
  404f64:	d1006298 	sub	x24, x20, #0x18
  404f68:	910283e2 	add	x2, sp, #0xa0
  404f6c:	528001c1 	mov	w1, #0xe                   	// #14
  404f70:	f85f0283 	ldur	x3, [x20, #-16]
  404f74:	f9400287 	ldr	x7, [x20]
  404f78:	17ffff9d 	b	404dec <__gettextparse+0x33c>
  404f7c:	90000268 	adrp	x8, 450000 <free_mem+0x48>
  404f80:	91194108 	add	x8, x8, #0x650
  404f84:	38604904 	ldrb	w4, [x8, w0, uxtw]
  404f88:	10000065 	adr	x5, 404f94 <__gettextparse+0x4e4>
  404f8c:	8b2488a4 	add	x4, x5, w4, sxtb #2
  404f90:	d61f0080 	br	x4
  404f94:	52800060 	mov	w0, #0x3                   	// #3
  404f98:	b9007fe0 	str	w0, [sp, #124]
  404f9c:	f9404fe0 	ldr	x0, [sp, #152]
  404fa0:	91002294 	add	x20, x20, #0x8
  404fa4:	f9000280 	str	x0, [x20]
  404fa8:	17ffff51 	b	404cec <__gettextparse+0x23c>
  404fac:	d1006298 	sub	x24, x20, #0x18
  404fb0:	910283e2 	add	x2, sp, #0xa0
  404fb4:	528001e1 	mov	w1, #0xf                   	// #15
  404fb8:	f85f0283 	ldur	x3, [x20, #-16]
  404fbc:	f9400287 	ldr	x7, [x20]
  404fc0:	17ffff8b 	b	404dec <__gettextparse+0x33c>
  404fc4:	aa1403f8 	mov	x24, x20
  404fc8:	2a0103e0 	mov	w0, w1
  404fcc:	910283e2 	add	x2, sp, #0xa0
  404fd0:	52800041 	mov	w1, #0x2                   	// #2
  404fd4:	1280001a 	mov	w26, #0xffffffff            	// #-1
  404fd8:	d1001273 	sub	x19, x19, #0x4
  404fdc:	f85f0707 	ldr	x7, [x24], #-16
  404fe0:	f90053e7 	str	x7, [sp, #160]
  404fe4:	97fffe77 	bl	4049c0 <new_exp>
  404fe8:	52800042 	mov	w2, #0x2                   	// #2
  404fec:	17ffff35 	b	404cc0 <__gettextparse+0x210>
  404ff0:	d2800002 	mov	x2, #0x0                   	// #0
  404ff4:	52800000 	mov	w0, #0x0                   	// #0
  404ff8:	d1002298 	sub	x24, x20, #0x8
  404ffc:	97fffe71 	bl	4049c0 <new_exp>
  405000:	d1000a73 	sub	x19, x19, #0x2
  405004:	b4000c60 	cbz	x0, 405190 <__gettextparse+0x6e0>
  405008:	f9400281 	ldr	x1, [x20]
  40500c:	1280001a 	mov	w26, #0xffffffff            	// #-1
  405010:	52800042 	mov	w2, #0x2                   	// #2
  405014:	f9000401 	str	x1, [x0, #8]
  405018:	17ffff2a 	b	404cc0 <__gettextparse+0x210>
  40501c:	aa1903f3 	mov	x19, x25
  405020:	52800054 	mov	w20, #0x2                   	// #2
  405024:	17fffefd 	b	404c18 <__gettextparse+0x168>
  405028:	39400468 	ldrb	w8, [x3, #1]
  40502c:	6b00011f 	cmp	w8, w0
  405030:	54fff621 	b.ne	404ef4 <__gettextparse+0x444>  // b.any
  405034:	91000867 	add	x7, x3, #0x2
  405038:	f94043e0 	ldr	x0, [sp, #128]
  40503c:	f9000007 	str	x7, [x0]
  405040:	17fffebf 	b	404b3c <__gettextparse+0x8c>
  405044:	d28000c0 	mov	x0, #0x6                   	// #6
  405048:	f9404fe3 	ldr	x3, [sp, #152]
  40504c:	52800108 	mov	w8, #0x8                   	// #8
  405050:	52802095 	mov	w21, #0x104                 	// #260
  405054:	b3407c03 	bfxil	x3, x0, #0, #32
  405058:	f9004fe3 	str	x3, [sp, #152]
  40505c:	f94043e0 	ldr	x0, [sp, #128]
  405060:	f9000007 	str	x7, [x0]
  405064:	17fffeba 	b	404b4c <__gettextparse+0x9c>
  405068:	d2800060 	mov	x0, #0x3                   	// #3
  40506c:	f9404fe3 	ldr	x3, [sp, #152]
  405070:	52800128 	mov	w8, #0x9                   	// #9
  405074:	528020b5 	mov	w21, #0x105                 	// #261
  405078:	b3407c03 	bfxil	x3, x0, #0, #32
  40507c:	f9004fe3 	str	x3, [sp, #152]
  405080:	f94043e0 	ldr	x0, [sp, #128]
  405084:	f9000007 	str	x7, [x0]
  405088:	17fffeb1 	b	404b4c <__gettextparse+0x9c>
  40508c:	39400460 	ldrb	w0, [x3, #1]
  405090:	7100f41f 	cmp	w0, #0x3d
  405094:	540009e0 	b.eq	4051d0 <__gettextparse+0x720>  // b.none
  405098:	d2800100 	mov	x0, #0x8                   	// #8
  40509c:	f9404fe3 	ldr	x3, [sp, #152]
  4050a0:	528000e8 	mov	w8, #0x7                   	// #7
  4050a4:	52802075 	mov	w21, #0x103                 	// #259
  4050a8:	b3407c03 	bfxil	x3, x0, #0, #32
  4050ac:	f9004fe3 	str	x3, [sp, #152]
  4050b0:	f94043e0 	ldr	x0, [sp, #128]
  4050b4:	f9000007 	str	x7, [x0]
  4050b8:	17fffea5 	b	404b4c <__gettextparse+0x9c>
  4050bc:	39400468 	ldrb	w8, [x3, #1]
  4050c0:	5100c000 	sub	w0, w0, #0x30
  4050c4:	5100c103 	sub	w3, w8, #0x30
  4050c8:	93407c00 	sxtw	x0, w0
  4050cc:	12001c68 	and	w8, w3, #0xff
  4050d0:	7100251f 	cmp	w8, #0x9
  4050d4:	54000128 	b.hi	4050f8 <__gettextparse+0x648>  // b.pmore
  4050d8:	38401ce8 	ldrb	w8, [x7, #1]!
  4050dc:	93407c69 	sxtw	x9, w3
  4050e0:	8b000800 	add	x0, x0, x0, lsl #2
  4050e4:	5100c103 	sub	w3, w8, #0x30
  4050e8:	12001c68 	and	w8, w3, #0xff
  4050ec:	8b000520 	add	x0, x9, x0, lsl #1
  4050f0:	7100251f 	cmp	w8, #0x9
  4050f4:	54ffff29 	b.ls	4050d8 <__gettextparse+0x628>  // b.plast
  4050f8:	f9004fe0 	str	x0, [sp, #152]
  4050fc:	52800168 	mov	w8, #0xb                   	// #11
  405100:	f94043e0 	ldr	x0, [sp, #128]
  405104:	528020d5 	mov	w21, #0x106                 	// #262
  405108:	f9000007 	str	x7, [x0]
  40510c:	17fffe90 	b	404b4c <__gettextparse+0x9c>
  405110:	d2800080 	mov	x0, #0x4                   	// #4
  405114:	17ffffd6 	b	40506c <__gettextparse+0x5bc>
  405118:	d28000e0 	mov	x0, #0x7                   	// #7
  40511c:	17ffffcb 	b	405048 <__gettextparse+0x598>
  405120:	39400460 	ldrb	w0, [x3, #1]
  405124:	7100f41f 	cmp	w0, #0x3d
  405128:	54000400 	b.eq	4051a8 <__gettextparse+0x6f8>  // b.none
  40512c:	d2800120 	mov	x0, #0x9                   	// #9
  405130:	17ffffdb 	b	40509c <__gettextparse+0x5ec>
  405134:	39400460 	ldrb	w0, [x3, #1]
  405138:	7100f41f 	cmp	w0, #0x3d
  40513c:	54ffedc1 	b.ne	404ef4 <__gettextparse+0x444>  // b.any
  405140:	d2800180 	mov	x0, #0xc                   	// #12
  405144:	f9404fe4 	ldr	x4, [sp, #152]
  405148:	91000863 	add	x3, x3, #0x2
  40514c:	528000c8 	mov	w8, #0x6                   	// #6
  405150:	52802055 	mov	w21, #0x102                 	// #258
  405154:	b3407c04 	bfxil	x4, x0, #0, #32
  405158:	f9004fe4 	str	x4, [sp, #152]
  40515c:	f94043e0 	ldr	x0, [sp, #128]
  405160:	f9000003 	str	x3, [x0]
  405164:	17fffe7a 	b	404b4c <__gettextparse+0x9c>
  405168:	d28000a0 	mov	x0, #0x5                   	// #5
  40516c:	17ffffc0 	b	40506c <__gettextparse+0x5bc>
  405170:	39400460 	ldrb	w0, [x3, #1]
  405174:	7100f41f 	cmp	w0, #0x3d
  405178:	54000300 	b.eq	4051d8 <__gettextparse+0x728>  // b.none
  40517c:	f94043e0 	ldr	x0, [sp, #128]
  405180:	52800148 	mov	w8, #0xa                   	// #10
  405184:	52800435 	mov	w21, #0x21                  	// #33
  405188:	f9000007 	str	x7, [x0]
  40518c:	17fffe70 	b	404b4c <__gettextparse+0x9c>
  405190:	1280001a 	mov	w26, #0xffffffff            	// #-1
  405194:	52800042 	mov	w2, #0x2                   	// #2
  405198:	17fffeca 	b	404cc0 <__gettextparse+0x210>
  40519c:	aa1c03f3 	mov	x19, x28
  4051a0:	52800034 	mov	w20, #0x1                   	// #1
  4051a4:	17fffea0 	b	404c24 <__gettextparse+0x174>
  4051a8:	d2800160 	mov	x0, #0xb                   	// #11
  4051ac:	f9404fe4 	ldr	x4, [sp, #152]
  4051b0:	91000863 	add	x3, x3, #0x2
  4051b4:	528000e8 	mov	w8, #0x7                   	// #7
  4051b8:	52802075 	mov	w21, #0x103                 	// #259
  4051bc:	b3407c04 	bfxil	x4, x0, #0, #32
  4051c0:	f9004fe4 	str	x4, [sp, #152]
  4051c4:	f94043e0 	ldr	x0, [sp, #128]
  4051c8:	f9000003 	str	x3, [x0]
  4051cc:	17fffe60 	b	404b4c <__gettextparse+0x9c>
  4051d0:	d2800140 	mov	x0, #0xa                   	// #10
  4051d4:	17fffff6 	b	4051ac <__gettextparse+0x6fc>
  4051d8:	d28001a0 	mov	x0, #0xd                   	// #13
  4051dc:	17ffffda 	b	405144 <__gettextparse+0x694>
  4051e0:	aa1903f3 	mov	x19, x25
  4051e4:	2a0103f4 	mov	w20, w1
  4051e8:	17fffe8c 	b	404c18 <__gettextparse+0x168>
  4051ec:	94005507 	bl	41a608 <__stack_chk_fail>

00000000004051f0 <__gettext_extract_plural>:
  4051f0:	a9ba7bfd 	stp	x29, x30, [sp, #-96]!
  4051f4:	910003fd 	mov	x29, sp
  4051f8:	f9001bf7 	str	x23, [sp, #48]
  4051fc:	90000417 	adrp	x23, 485000 <__FRAME_END__+0x103b0>
  405200:	912342f7 	add	x23, x23, #0x8d0
  405204:	a90153f3 	stp	x19, x20, [sp, #16]
  405208:	f94002e3 	ldr	x3, [x23]
  40520c:	f9002fe3 	str	x3, [sp, #88]
  405210:	d2800003 	mov	x3, #0x0                   	// #0
  405214:	a9025bf5 	stp	x21, x22, [sp, #32]
  405218:	aa0203f4 	mov	x20, x2
  40521c:	aa0103f5 	mov	x21, x1
  405220:	b40003a0 	cbz	x0, 405294 <__gettext_extract_plural+0xa4>
  405224:	aa0003f3 	mov	x19, x0
  405228:	f0000241 	adrp	x1, 450000 <free_mem+0x48>
  40522c:	91246021 	add	x1, x1, #0x918
  405230:	94004228 	bl	415ad0 <strstr>
  405234:	f0000241 	adrp	x1, 450000 <free_mem+0x48>
  405238:	aa0003f6 	mov	x22, x0
  40523c:	91248021 	add	x1, x1, #0x920
  405240:	aa1303e0 	mov	x0, x19
  405244:	94004223 	bl	415ad0 <strstr>
  405248:	f10002df 	cmp	x22, #0x0
  40524c:	fa401804 	ccmp	x0, #0x0, #0x4, ne  // ne = any
  405250:	54000220 	b.eq	405294 <__gettext_extract_plural+0xa4>  // b.none
  405254:	39402401 	ldrb	w1, [x0, #9]
  405258:	91002413 	add	x19, x0, #0x9
  40525c:	340001c1 	cbz	w1, 405294 <__gettext_extract_plural+0xa4>
  405260:	90000402 	adrp	x2, 485000 <__FRAME_END__+0x103b0>
  405264:	f947d042 	ldr	x2, [x2, #4000]
  405268:	d53bd043 	mrs	x3, tpidr_el0
  40526c:	d37f1c20 	ubfiz	x0, x1, #1, #8
  405270:	f8626862 	ldr	x2, [x3, x2]
  405274:	78606840 	ldrh	w0, [x2, x0]
  405278:	376800a0 	tbnz	w0, #13, 40528c <__gettext_extract_plural+0x9c>
  40527c:	14000015 	b	4052d0 <__gettext_extract_plural+0xe0>
  405280:	d37f1c20 	ubfiz	x0, x1, #1, #8
  405284:	78606840 	ldrh	w0, [x2, x0]
  405288:	36680240 	tbz	w0, #13, 4052d0 <__gettext_extract_plural+0xe0>
  40528c:	38401e61 	ldrb	w1, [x19, #1]!
  405290:	35ffff81 	cbnz	w1, 405280 <__gettext_extract_plural+0x90>
  405294:	f0000240 	adrp	x0, 450000 <free_mem+0x48>
  405298:	9122e000 	add	x0, x0, #0x8b8
  40529c:	f90002a0 	str	x0, [x21]
  4052a0:	d2800040 	mov	x0, #0x2                   	// #2
  4052a4:	f9000280 	str	x0, [x20]
  4052a8:	f9402fe0 	ldr	x0, [sp, #88]
  4052ac:	f94002e1 	ldr	x1, [x23]
  4052b0:	eb010000 	subs	x0, x0, x1
  4052b4:	d2800001 	mov	x1, #0x0                   	// #0
  4052b8:	54000341 	b.ne	405320 <__gettext_extract_plural+0x130>  // b.any
  4052bc:	a94153f3 	ldp	x19, x20, [sp, #16]
  4052c0:	a9425bf5 	ldp	x21, x22, [sp, #32]
  4052c4:	f9401bf7 	ldr	x23, [sp, #48]
  4052c8:	a8c67bfd 	ldp	x29, x30, [sp], #96
  4052cc:	d65f03c0 	ret
  4052d0:	5100c021 	sub	w1, w1, #0x30
  4052d4:	12001c21 	and	w1, w1, #0xff
  4052d8:	7100243f 	cmp	w1, #0x9
  4052dc:	54fffdc8 	b.hi	405294 <__gettext_extract_plural+0xa4>  // b.pmore
  4052e0:	910103e1 	add	x1, sp, #0x40
  4052e4:	52800142 	mov	w2, #0xa                   	// #10
  4052e8:	aa1303e0 	mov	x0, x19
  4052ec:	940003b9 	bl	4061d0 <__strtoul>
  4052f0:	f94023e1 	ldr	x1, [sp, #64]
  4052f4:	eb13003f 	cmp	x1, x19
  4052f8:	54fffce0 	b.eq	405294 <__gettext_extract_plural+0xa4>  // b.none
  4052fc:	f9000280 	str	x0, [x20]
  405300:	91001ed6 	add	x22, x22, #0x7
  405304:	910123e0 	add	x0, sp, #0x48
  405308:	f90027f6 	str	x22, [sp, #72]
  40530c:	97fffde9 	bl	404ab0 <__gettextparse>
  405310:	35fffc20 	cbnz	w0, 405294 <__gettext_extract_plural+0xa4>
  405314:	f9402be0 	ldr	x0, [sp, #80]
  405318:	f90002a0 	str	x0, [x21]
  40531c:	17ffffe3 	b	4052a8 <__gettext_extract_plural+0xb8>
  405320:	940054ba 	bl	41a608 <__stack_chk_fail>

0000000000405324 <.annobin___gettext_extract_plural.end>:
  405324:	d503201f 	nop

0000000000405328 <__hash_string>:
  405328:	aa0003e2 	mov	x2, x0
  40532c:	d2800000 	mov	x0, #0x0                   	// #0
  405330:	14000006 	b	405348 <__hash_string+0x20>
  405334:	8b001060 	add	x0, x3, x0, lsl #4
  405338:	f2640c01 	ands	x1, x0, #0xf0000000
  40533c:	9260ec03 	and	x3, x0, #0xffffffff0fffffff
  405340:	ca416061 	eor	x1, x3, x1, lsr #24
  405344:	9a810000 	csel	x0, x0, x1, eq  // eq = none
  405348:	39400041 	ldrb	w1, [x2]
  40534c:	91000442 	add	x2, x2, #0x1
  405350:	92401c23 	and	x3, x1, #0xff
  405354:	35ffff01 	cbnz	w1, 405334 <__hash_string+0xc>
  405358:	d65f03c0 	ret

000000000040535c <.annobin___hash_string.end>:
  40535c:	d503201f 	nop

0000000000405360 <setjmp>:
  405360:	d2800021 	mov	x1, #0x1                   	// #1
  405364:	14000007 	b	405380 <__sigsetjmp>
  405368:	d503201f 	nop
  40536c:	d503201f 	nop

0000000000405370 <_setjmp>:
  405370:	d2800001 	mov	x1, #0x0                   	// #0
  405374:	14000003 	b	405380 <__sigsetjmp>
  405378:	d503201f 	nop
  40537c:	d503201f 	nop

0000000000405380 <__sigsetjmp>:
  405380:	a9005013 	stp	x19, x20, [x0]
  405384:	a9015815 	stp	x21, x22, [x0, #16]
  405388:	a9026017 	stp	x23, x24, [x0, #32]
  40538c:	a9036819 	stp	x25, x26, [x0, #48]
  405390:	a904701b 	stp	x27, x28, [x0, #64]
  405394:	90000402 	adrp	x2, 485000 <__FRAME_END__+0x103b0>
  405398:	f9446c43 	ldr	x3, [x2, #2264]
  40539c:	ca0303c4 	eor	x4, x30, x3
  4053a0:	a905101d 	stp	x29, x4, [x0, #80]
  4053a4:	d503201f 	nop
  4053a8:	6d072408 	stp	d8, d9, [x0, #112]
  4053ac:	6d082c0a 	stp	d10, d11, [x0, #128]
  4053b0:	6d09340c 	stp	d12, d13, [x0, #144]
  4053b4:	6d0a3c0e 	stp	d14, d15, [x0, #160]
  4053b8:	910003e4 	mov	x4, sp
  4053bc:	90000402 	adrp	x2, 485000 <__FRAME_END__+0x103b0>
  4053c0:	f9446c43 	ldr	x3, [x2, #2264]
  4053c4:	ca030085 	eor	x5, x4, x3
  4053c8:	f9003405 	str	x5, [x0, #104]
  4053cc:	14000001 	b	4053d0 <__sigjmp_save>

00000000004053d0 <__sigjmp_save>:
  4053d0:	a9be7bfd 	stp	x29, x30, [sp, #-32]!
  4053d4:	910003fd 	mov	x29, sp
  4053d8:	f9000bf3 	str	x19, [sp, #16]
  4053dc:	aa0003f3 	mov	x19, x0
  4053e0:	350000c1 	cbnz	w1, 4053f8 <__sigjmp_save+0x28>
  4053e4:	b900b261 	str	w1, [x19, #176]
  4053e8:	52800000 	mov	w0, #0x0                   	// #0
  4053ec:	f9400bf3 	ldr	x19, [sp, #16]
  4053f0:	a8c27bfd 	ldp	x29, x30, [sp], #32
  4053f4:	d65f03c0 	ret
  4053f8:	9102e002 	add	x2, x0, #0xb8
  4053fc:	d2800001 	mov	x1, #0x0                   	// #0
  405400:	52800000 	mov	w0, #0x0                   	// #0
  405404:	94000043 	bl	405510 <__sigprocmask>
  405408:	7100001f 	cmp	w0, #0x0
  40540c:	52800000 	mov	w0, #0x0                   	// #0
  405410:	1a9f17e1 	cset	w1, eq  // eq = none
  405414:	b900b261 	str	w1, [x19, #176]
  405418:	f9400bf3 	ldr	x19, [sp, #16]
  40541c:	a8c27bfd 	ldp	x29, x30, [sp], #32
  405420:	d65f03c0 	ret

0000000000405424 <.annobin___sigjmp_save.end>:
  405424:	d503201f 	nop

0000000000405428 <raise>:
  405428:	a9ad7bfd 	stp	x29, x30, [sp, #-304]!
  40542c:	d2801002 	mov	x2, #0x80                  	// #128
  405430:	f0000241 	adrp	x1, 450000 <free_mem+0x48>
  405434:	910003fd 	mov	x29, sp
  405438:	a90153f3 	stp	x19, x20, [sp, #16]
  40543c:	90000413 	adrp	x19, 485000 <__FRAME_END__+0x103b0>
  405440:	91234273 	add	x19, x19, #0x8d0
  405444:	2a0003f4 	mov	w20, w0
  405448:	f9400260 	ldr	x0, [x19]
  40544c:	f90097e0 	str	x0, [sp, #296]
  405450:	d2800000 	mov	x0, #0x0                   	// #0
  405454:	9102a3e0 	add	x0, sp, #0xa8
  405458:	9124c021 	add	x1, x1, #0x930
  40545c:	97ffeb71 	bl	400220 <.plt+0x10>
  405460:	b25ff7e4 	mov	x4, #0xfffffffe7fffffff    	// #-6442450945
  405464:	9102a3e1 	add	x1, sp, #0xa8
  405468:	9100a3e2 	add	x2, sp, #0x28
  40546c:	d2800000 	mov	x0, #0x0                   	// #0
  405470:	d2800103 	mov	x3, #0x8                   	// #8
  405474:	d28010e8 	mov	x8, #0x87                  	// #135
  405478:	f90057e4 	str	x4, [sp, #168]
  40547c:	d4000001 	svc	#0x0
  405480:	d2801588 	mov	x8, #0xac                  	// #172
  405484:	d4000001 	svc	#0x0
  405488:	d2801648 	mov	x8, #0xb2                  	// #178
  40548c:	aa0003e3 	mov	x3, x0
  405490:	d4000001 	svc	#0x0
  405494:	d2801068 	mov	x8, #0x83                  	// #131
  405498:	93407c01 	sxtw	x1, w0
  40549c:	93407e82 	sxtw	x2, w20
  4054a0:	93407c60 	sxtw	x0, w3
  4054a4:	d4000001 	svc	#0x0
  4054a8:	b140041f 	cmn	x0, #0x1, lsl #12
  4054ac:	54000228 	b.hi	4054f0 <raise+0xc8>  // b.pmore
  4054b0:	2a0003e4 	mov	w4, w0
  4054b4:	9100a3e1 	add	x1, sp, #0x28
  4054b8:	d2800040 	mov	x0, #0x2                   	// #2
  4054bc:	d2800002 	mov	x2, #0x0                   	// #0
  4054c0:	d2800103 	mov	x3, #0x8                   	// #8
  4054c4:	d28010e8 	mov	x8, #0x87                  	// #135
  4054c8:	d4000001 	svc	#0x0
  4054cc:	2a0403e0 	mov	w0, w4
  4054d0:	f94097e1 	ldr	x1, [sp, #296]
  4054d4:	f9400262 	ldr	x2, [x19]
  4054d8:	eb020021 	subs	x1, x1, x2
  4054dc:	d2800002 	mov	x2, #0x0                   	// #0
  4054e0:	54000161 	b.ne	40550c <raise+0xe4>  // b.any
  4054e4:	a94153f3 	ldp	x19, x20, [sp, #16]
  4054e8:	a8d37bfd 	ldp	x29, x30, [sp], #304
  4054ec:	d65f03c0 	ret
  4054f0:	90000401 	adrp	x1, 485000 <__FRAME_END__+0x103b0>
  4054f4:	f947c021 	ldr	x1, [x1, #3968]
  4054f8:	d53bd042 	mrs	x2, tpidr_el0
  4054fc:	4b0003e0 	neg	w0, w0
  405500:	12800004 	mov	w4, #0xffffffff            	// #-1
  405504:	b8216840 	str	w0, [x2, x1]
  405508:	17ffffeb 	b	4054b4 <raise+0x8c>
  40550c:	9400543f 	bl	41a608 <__stack_chk_fail>

0000000000405510 <__sigprocmask>:
  405510:	a9b47bfd 	stp	x29, x30, [sp, #-192]!
  405514:	910003fd 	mov	x29, sp
  405518:	a90153f3 	stp	x19, x20, [sp, #16]
  40551c:	90000413 	adrp	x19, 485000 <__FRAME_END__+0x103b0>
  405520:	91234273 	add	x19, x19, #0x8d0
  405524:	f9400263 	ldr	x3, [x19]
  405528:	f9005fe3 	str	x3, [sp, #184]
  40552c:	d2800003 	mov	x3, #0x0                   	// #0
  405530:	a9025bf5 	stp	x21, x22, [sp, #32]
  405534:	aa0203f4 	mov	x20, x2
  405538:	2a0003f5 	mov	w21, w0
  40553c:	d2800002 	mov	x2, #0x0                   	// #0
  405540:	b40000a1 	cbz	x1, 405554 <__sigprocmask+0x44>
  405544:	f9400036 	ldr	x22, [x1]
  405548:	f26106df 	tst	x22, #0x180000000
  40554c:	54000261 	b.ne	405598 <__sigprocmask+0x88>  // b.any
  405550:	aa0103e2 	mov	x2, x1
  405554:	aa0203e1 	mov	x1, x2
  405558:	93407ea0 	sxtw	x0, w21
  40555c:	aa1403e2 	mov	x2, x20
  405560:	d2800103 	mov	x3, #0x8                   	// #8
  405564:	d28010e8 	mov	x8, #0x87                  	// #135
  405568:	d4000001 	svc	#0x0
  40556c:	b140041f 	cmn	x0, #0x1, lsl #12
  405570:	54000308 	b.hi	4055d0 <__sigprocmask+0xc0>  // b.pmore
  405574:	f9405fe1 	ldr	x1, [sp, #184]
  405578:	f9400262 	ldr	x2, [x19]
  40557c:	eb020021 	subs	x1, x1, x2
  405580:	d2800002 	mov	x2, #0x0                   	// #0
  405584:	54000341 	b.ne	4055ec <__sigprocmask+0xdc>  // b.any
  405588:	a94153f3 	ldp	x19, x20, [sp, #16]
  40558c:	a9425bf5 	ldp	x21, x22, [sp, #32]
  405590:	a8cc7bfd 	ldp	x29, x30, [sp], #192
  405594:	d65f03c0 	ret
  405598:	d2801002 	mov	x2, #0x80                  	// #128
  40559c:	9100e3e0 	add	x0, sp, #0x38
  4055a0:	97ffeb20 	bl	400220 <.plt+0x10>
  4055a4:	925ff6d6 	and	x22, x22, #0xfffffffe7fffffff
  4055a8:	9100e3e2 	add	x2, sp, #0x38
  4055ac:	93407ea0 	sxtw	x0, w21
  4055b0:	aa0203e1 	mov	x1, x2
  4055b4:	d2800103 	mov	x3, #0x8                   	// #8
  4055b8:	aa1403e2 	mov	x2, x20
  4055bc:	d28010e8 	mov	x8, #0x87                  	// #135
  4055c0:	f9001ff6 	str	x22, [sp, #56]
  4055c4:	d4000001 	svc	#0x0
  4055c8:	b140041f 	cmn	x0, #0x1, lsl #12
  4055cc:	54fffd49 	b.ls	405574 <__sigprocmask+0x64>  // b.plast
  4055d0:	90000401 	adrp	x1, 485000 <__FRAME_END__+0x103b0>
  4055d4:	f947c021 	ldr	x1, [x1, #3968]
  4055d8:	d53bd042 	mrs	x2, tpidr_el0
  4055dc:	4b0003e3 	neg	w3, w0
  4055e0:	12800000 	mov	w0, #0xffffffff            	// #-1
  4055e4:	b8216843 	str	w3, [x2, x1]
  4055e8:	17ffffe3 	b	405574 <__sigprocmask+0x64>
  4055ec:	94005407 	bl	41a608 <__stack_chk_fail>

00000000004055f0 <msort_with_tmp.part.0>:
  4055f0:	a9b87bfd 	stp	x29, x30, [sp, #-128]!
  4055f4:	f1000c5f 	cmp	x2, #0x3
  4055f8:	910003fd 	mov	x29, sp
  4055fc:	a90573fb 	stp	x27, x28, [sp, #80]
  405600:	f940001b 	ldr	x27, [x0]
  405604:	a90153f3 	stp	x19, x20, [sp, #16]
  405608:	d341fc54 	lsr	x20, x2, #1
  40560c:	a9025bf5 	stp	x21, x22, [sp, #32]
  405610:	cb14005c 	sub	x28, x2, x20
  405614:	a90363f7 	stp	x23, x24, [sp, #48]
  405618:	9b1b069b 	madd	x27, x20, x27, x1
  40561c:	aa0003f8 	mov	x24, x0
  405620:	a9046bf9 	stp	x25, x26, [sp, #64]
  405624:	aa0203f9 	mov	x25, x2
  405628:	aa0103fa 	mov	x26, x1
  40562c:	fd0033e8 	str	d8, [sp, #96]
  405630:	54000069 	b.ls	40563c <msort_with_tmp.part.0+0x4c>  // b.plast
  405634:	aa1403e2 	mov	x2, x20
  405638:	97ffffee 	bl	4055f0 <msort_with_tmp.part.0>
  40563c:	f100079f 	cmp	x28, #0x1
  405640:	540000a9 	b.ls	405654 <msort_with_tmp.part.0+0x64>  // b.plast
  405644:	aa1c03e2 	mov	x2, x28
  405648:	aa1b03e1 	mov	x1, x27
  40564c:	aa1803e0 	mov	x0, x24
  405650:	97ffffe8 	bl	4055f0 <msort_with_tmp.part.0>
  405654:	a9400316 	ldp	x22, x0, [x24]
  405658:	f100029f 	cmp	x20, #0x0
  40565c:	1a9f07e1 	cset	w1, ne  // ne = any
  405660:	f100039f 	cmp	x28, #0x0
  405664:	1a9f1021 	csel	w1, w1, wzr, ne  // ne = any
  405668:	f9400b17 	ldr	x23, [x24, #16]
  40566c:	f100041f 	cmp	x0, #0x1
  405670:	fd400f08 	ldr	d8, [x24, #24]
  405674:	f9401313 	ldr	x19, [x24, #32]
  405678:	54000fa0 	b.eq	40586c <msort_with_tmp.part.0+0x27c>  // b.none
  40567c:	b4000ca0 	cbz	x0, 405810 <msort_with_tmp.part.0+0x220>
  405680:	f100081f 	cmp	x0, #0x2
  405684:	54000800 	b.eq	405784 <msort_with_tmp.part.0+0x194>  // b.none
  405688:	aa1a03f5 	mov	x21, x26
  40568c:	f1000c1f 	cmp	x0, #0x3
  405690:	54000461 	b.ne	40571c <msort_with_tmp.part.0+0x12c>  // b.any
  405694:	35000281 	cbnz	w1, 4056e4 <msort_with_tmp.part.0+0xf4>
  405698:	b50006d4 	cbnz	x20, 405770 <msort_with_tmp.part.0+0x180>
  40569c:	cb1c0322 	sub	x2, x25, x28
  4056a0:	aa1a03e0 	mov	x0, x26
  4056a4:	a94153f3 	ldp	x19, x20, [sp, #16]
  4056a8:	9b167c42 	mul	x2, x2, x22
  4056ac:	fd4033e8 	ldr	d8, [sp, #96]
  4056b0:	a9425bf5 	ldp	x21, x22, [sp, #32]
  4056b4:	f9401301 	ldr	x1, [x24, #32]
  4056b8:	a94363f7 	ldp	x23, x24, [sp, #48]
  4056bc:	a9446bf9 	ldp	x25, x26, [sp, #64]
  4056c0:	a94573fb 	ldp	x27, x28, [sp, #80]
  4056c4:	a8c87bfd 	ldp	x29, x30, [sp], #128
  4056c8:	17ffead6 	b	400220 <.plt+0x10>
  4056cc:	f8408760 	ldr	x0, [x27], #8
  4056d0:	d100079c 	sub	x28, x28, #0x1
  4056d4:	f8008660 	str	x0, [x19], #8
  4056d8:	f100029f 	cmp	x20, #0x0
  4056dc:	fa401b84 	ccmp	x28, #0x0, #0x4, ne  // ne = any
  4056e0:	54fffdc0 	b.eq	405698 <msort_with_tmp.part.0+0xa8>  // b.none
  4056e4:	9e660102 	fmov	x2, d8
  4056e8:	f94002a0 	ldr	x0, [x21]
  4056ec:	f9400361 	ldr	x1, [x27]
  4056f0:	d63f02e0 	blr	x23
  4056f4:	7100001f 	cmp	w0, #0x0
  4056f8:	54fffeac 	b.gt	4056cc <msort_with_tmp.part.0+0xdc>
  4056fc:	d1000694 	sub	x20, x20, #0x1
  405700:	f84086a0 	ldr	x0, [x21], #8
  405704:	17fffff4 	b	4056d4 <msort_with_tmp.part.0+0xe4>
  405708:	aa1503e1 	mov	x1, x21
  40570c:	d1000694 	sub	x20, x20, #0x1
  405710:	94004244 	bl	416020 <__mempcpy>
  405714:	8b1602b5 	add	x21, x21, x22
  405718:	aa0003f3 	mov	x19, x0
  40571c:	f100029f 	cmp	x20, #0x0
  405720:	aa1b03e1 	mov	x1, x27
  405724:	fa401b84 	ccmp	x28, #0x0, #0x4, ne  // ne = any
  405728:	54fffb80 	b.eq	405698 <msort_with_tmp.part.0+0xa8>  // b.none
  40572c:	9e660102 	fmov	x2, d8
  405730:	aa1503e0 	mov	x0, x21
  405734:	d63f02e0 	blr	x23
  405738:	7100001f 	cmp	w0, #0x0
  40573c:	aa1b03e1 	mov	x1, x27
  405740:	aa1603e2 	mov	x2, x22
  405744:	aa1303e0 	mov	x0, x19
  405748:	54fffe0d 	b.le	405708 <msort_with_tmp.part.0+0x118>
  40574c:	94004235 	bl	416020 <__mempcpy>
  405750:	8b16037b 	add	x27, x27, x22
  405754:	d100079c 	sub	x28, x28, #0x1
  405758:	f100029f 	cmp	x20, #0x0
  40575c:	aa0003f3 	mov	x19, x0
  405760:	aa1b03e1 	mov	x1, x27
  405764:	fa401b84 	ccmp	x28, #0x0, #0x4, ne  // ne = any
  405768:	54fffe21 	b.ne	40572c <msort_with_tmp.part.0+0x13c>  // b.any
  40576c:	b4fff994 	cbz	x20, 40569c <msort_with_tmp.part.0+0xac>
  405770:	9b147ec2 	mul	x2, x22, x20
  405774:	aa1503e1 	mov	x1, x21
  405778:	aa1303e0 	mov	x0, x19
  40577c:	97ffeaa9 	bl	400220 <.plt+0x10>
  405780:	17ffffc7 	b	40569c <msort_with_tmp.part.0+0xac>
  405784:	d10006c3 	sub	x3, x22, #0x1
  405788:	aa1303e4 	mov	x4, x19
  40578c:	aa1a03f5 	mov	x21, x26
  405790:	d343fc63 	lsr	x3, x3, #3
  405794:	d503201f 	nop
  405798:	f100029f 	cmp	x20, #0x0
  40579c:	aa0403f3 	mov	x19, x4
  4057a0:	fa401b84 	ccmp	x28, #0x0, #0x4, ne  // ne = any
  4057a4:	54fff7a0 	b.eq	405698 <msort_with_tmp.part.0+0xa8>  // b.none
  4057a8:	9e660102 	fmov	x2, d8
  4057ac:	a9070fe4 	stp	x4, x3, [sp, #112]
  4057b0:	aa1b03e1 	mov	x1, x27
  4057b4:	aa1503e0 	mov	x0, x21
  4057b8:	d63f02e0 	blr	x23
  4057bc:	7100001f 	cmp	w0, #0x0
  4057c0:	a9470fe4 	ldp	x4, x3, [sp, #112]
  4057c4:	540001ed 	b.le	405800 <msort_with_tmp.part.0+0x210>
  4057c8:	aa1b03e2 	mov	x2, x27
  4057cc:	d100079c 	sub	x28, x28, #0x1
  4057d0:	8b16037b 	add	x27, x27, x22
  4057d4:	8b160084 	add	x4, x4, x22
  4057d8:	d2800000 	mov	x0, #0x0                   	// #0
  4057dc:	eb04027f 	cmp	x19, x4
  4057e0:	54fffdc2 	b.cs	405798 <msort_with_tmp.part.0+0x1a8>  // b.hs, b.nlast
  4057e4:	d503201f 	nop
  4057e8:	f8607841 	ldr	x1, [x2, x0, lsl #3]
  4057ec:	f8207a61 	str	x1, [x19, x0, lsl #3]
  4057f0:	eb00007f 	cmp	x3, x0
  4057f4:	91000400 	add	x0, x0, #0x1
  4057f8:	54ffff81 	b.ne	4057e8 <msort_with_tmp.part.0+0x1f8>  // b.any
  4057fc:	17ffffe7 	b	405798 <msort_with_tmp.part.0+0x1a8>
  405800:	aa1503e2 	mov	x2, x21
  405804:	d1000694 	sub	x20, x20, #0x1
  405808:	8b1602b5 	add	x21, x21, x22
  40580c:	17fffff2 	b	4057d4 <msort_with_tmp.part.0+0x1e4>
  405810:	aa1a03f5 	mov	x21, x26
  405814:	34fff421 	cbz	w1, 405698 <msort_with_tmp.part.0+0xa8>
  405818:	9e660102 	fmov	x2, d8
  40581c:	aa1b03e1 	mov	x1, x27
  405820:	aa1503e0 	mov	x0, x21
  405824:	d63f02e0 	blr	x23
  405828:	7100001f 	cmp	w0, #0x0
  40582c:	540001ad 	b.le	405860 <msort_with_tmp.part.0+0x270>
  405830:	b8404760 	ldr	w0, [x27], #4
  405834:	d100079c 	sub	x28, x28, #0x1
  405838:	b8004660 	str	w0, [x19], #4
  40583c:	f100029f 	cmp	x20, #0x0
  405840:	fa401b84 	ccmp	x28, #0x0, #0x4, ne  // ne = any
  405844:	54fff2a0 	b.eq	405698 <msort_with_tmp.part.0+0xa8>  // b.none
  405848:	9e660102 	fmov	x2, d8
  40584c:	aa1b03e1 	mov	x1, x27
  405850:	aa1503e0 	mov	x0, x21
  405854:	d63f02e0 	blr	x23
  405858:	7100001f 	cmp	w0, #0x0
  40585c:	54fffeac 	b.gt	405830 <msort_with_tmp.part.0+0x240>
  405860:	d1000694 	sub	x20, x20, #0x1
  405864:	b84046a0 	ldr	w0, [x21], #4
  405868:	17fffff4 	b	405838 <msort_with_tmp.part.0+0x248>
  40586c:	aa1a03f5 	mov	x21, x26
  405870:	34fff141 	cbz	w1, 405698 <msort_with_tmp.part.0+0xa8>
  405874:	9e660102 	fmov	x2, d8
  405878:	aa1b03e1 	mov	x1, x27
  40587c:	aa1503e0 	mov	x0, x21
  405880:	d63f02e0 	blr	x23
  405884:	7100001f 	cmp	w0, #0x0
  405888:	540001cd 	b.le	4058c0 <msort_with_tmp.part.0+0x2d0>
  40588c:	d503201f 	nop
  405890:	f8408760 	ldr	x0, [x27], #8
  405894:	d100079c 	sub	x28, x28, #0x1
  405898:	f8008660 	str	x0, [x19], #8
  40589c:	f100029f 	cmp	x20, #0x0
  4058a0:	fa401b84 	ccmp	x28, #0x0, #0x4, ne  // ne = any
  4058a4:	54ffefa0 	b.eq	405698 <msort_with_tmp.part.0+0xa8>  // b.none
  4058a8:	9e660102 	fmov	x2, d8
  4058ac:	aa1b03e1 	mov	x1, x27
  4058b0:	aa1503e0 	mov	x0, x21
  4058b4:	d63f02e0 	blr	x23
  4058b8:	7100001f 	cmp	w0, #0x0
  4058bc:	54fffeac 	b.gt	405890 <msort_with_tmp.part.0+0x2a0>
  4058c0:	d1000694 	sub	x20, x20, #0x1
  4058c4:	f84086a0 	ldr	x0, [x21], #8
  4058c8:	17fffff4 	b	405898 <msort_with_tmp.part.0+0x2a8>

00000000004058cc <.annobin___qsort_r.start>:
  4058cc:	d503201f 	nop

00000000004058d0 <__qsort_r>:
  4058d0:	a9b57bfd 	stp	x29, x30, [sp, #-176]!
  4058d4:	f100805f 	cmp	x2, #0x20
  4058d8:	910003fd 	mov	x29, sp
  4058dc:	a90363f7 	stp	x23, x24, [sp, #48]
  4058e0:	aa0103f8 	mov	x24, x1
  4058e4:	aa0003f7 	mov	x23, x0
  4058e8:	a9046bf9 	stp	x25, x26, [sp, #64]
  4058ec:	9000041a 	adrp	x26, 485000 <__FRAME_END__+0x103b0>
  4058f0:	9123435a 	add	x26, x26, #0x8d0
  4058f4:	f9400341 	ldr	x1, [x26]
  4058f8:	f90057a1 	str	x1, [x29, #168]
  4058fc:	d2800001 	mov	x1, #0x0                   	// #0
  405900:	a90153f3 	stp	x19, x20, [sp, #16]
  405904:	9b027f01 	mul	x1, x24, x2
  405908:	8b181053 	add	x19, x2, x24, lsl #4
  40590c:	a9025bf5 	stp	x21, x22, [sp, #32]
  405910:	9a818273 	csel	x19, x19, x1, hi  // hi = pmore
  405914:	a90573fb 	stp	x27, x28, [sp, #80]
  405918:	f10ffe7f 	cmp	x19, #0x3ff
  40591c:	aa0203fc 	mov	x28, x2
  405920:	54000688 	b.hi	4059f0 <__qsort_r+0x120>  // b.pmore
  405924:	91003e73 	add	x19, x19, #0xf
  405928:	910003e1 	mov	x1, sp
  40592c:	927cee73 	and	x19, x19, #0xfffffffffffffff0
  405930:	9274ce60 	and	x0, x19, #0xfffffffffffff000
  405934:	cb2063e0 	sub	x0, sp, x0
  405938:	eb00003f 	cmp	x1, x0
  40593c:	540000c0 	b.eq	405954 <__qsort_r+0x84>  // b.none
  405940:	d14007ff 	sub	sp, sp, #0x1, lsl #12
  405944:	910003e1 	mov	x1, sp
  405948:	eb00003f 	cmp	x1, x0
  40594c:	f907ffff 	str	xzr, [sp, #4088]
  405950:	54ffff81 	b.ne	405940 <__qsort_r+0x70>  // b.any
  405954:	f2402e60 	ands	x0, x19, #0xfff
  405958:	54000080 	b.eq	405968 <__qsort_r+0x98>  // b.none
  40595c:	cb2063ff 	sub	sp, sp, x0
  405960:	d1002000 	sub	x0, x0, #0x8
  405964:	f8206bff 	str	xzr, [sp, x0]
  405968:	b4000053 	cbz	x19, 405970 <__qsort_r+0xa0>
  40596c:	f90003ff 	str	xzr, [sp]
  405970:	910003e0 	mov	x0, sp
  405974:	f9003fbf 	str	xzr, [x29, #120]
  405978:	a90913a3 	stp	x3, x4, [x29, #144]
  40597c:	f100839f 	cmp	x28, #0x20
  405980:	f90053a0 	str	x0, [x29, #160]
  405984:	d2800080 	mov	x0, #0x4                   	// #4
  405988:	a90803bc 	stp	x28, x0, [x29, #128]
  40598c:	54000688 	b.hi	405a5c <__qsort_r+0x18c>  // b.pmore
  405990:	aa1c02e0 	orr	x0, x23, x28
  405994:	f240041f 	tst	x0, #0x3
  405998:	540010a0 	b.eq	405bac <__qsort_r+0x2dc>  // b.none
  40599c:	f100071f 	cmp	x24, #0x1
  4059a0:	540000a9 	b.ls	4059b4 <__qsort_r+0xe4>  // b.plast
  4059a4:	aa1803e2 	mov	x2, x24
  4059a8:	aa1703e1 	mov	x1, x23
  4059ac:	910203a0 	add	x0, x29, #0x80
  4059b0:	97ffff10 	bl	4055f0 <msort_with_tmp.part.0>
  4059b4:	f9403fa0 	ldr	x0, [x29, #120]
  4059b8:	9400380e 	bl	4139f0 <__free>
  4059bc:	f94057a0 	ldr	x0, [x29, #168]
  4059c0:	f9400341 	ldr	x1, [x26]
  4059c4:	eb010000 	subs	x0, x0, x1
  4059c8:	d2800001 	mov	x1, #0x0                   	// #0
