
merge-m5.x:     file format elf64-littleaarch64


Disassembly of section .init:

00000000004001f8 <_init>:
  4001f8:	a9bf7bfd 	stp	x29, x30, [sp, #-16]!
  4001fc:	910003fd 	mov	x29, sp
  400200:	940000dc 	bl	400570 <call_weak_fn>
  400204:	a8c17bfd 	ldp	x29, x30, [sp], #16
  400208:	d65f03c0 	ret

Disassembly of section .plt:

0000000000400210 <.plt>:
  400210:	d0000430 	adrp	x16, 486000 <.got.plt+0x18>
  400214:	f9400211 	ldr	x17, [x16]
  400218:	91000210 	add	x16, x16, #0x0
  40021c:	d61f0220 	br	x17
  400220:	d0000430 	adrp	x16, 486000 <.got.plt+0x18>
  400224:	f9400611 	ldr	x17, [x16, #8]
  400228:	91002210 	add	x16, x16, #0x8
  40022c:	d61f0220 	br	x17
  400230:	d0000430 	adrp	x16, 486000 <.got.plt+0x18>
  400234:	f9400a11 	ldr	x17, [x16, #16]
  400238:	91004210 	add	x16, x16, #0x10
  40023c:	d61f0220 	br	x17

Disassembly of section .text:

0000000000400240 <abort>:
  400240:	a9ac7bfd 	stp	x29, x30, [sp, #-320]!
  400244:	b0000420 	adrp	x0, 485000 <__FRAME_END__+0xfc98>
  400248:	91234000 	add	x0, x0, #0x8d0
  40024c:	910003fd 	mov	x29, sp
  400250:	a90153f3 	stp	x19, x20, [sp, #16]
  400254:	f0000c33 	adrp	x19, 587000 <temp+0x7f5e0>
  400258:	913d6273 	add	x19, x19, #0xf58
  40025c:	f9400001 	ldr	x1, [x0]
  400260:	f9009fe1 	str	x1, [sp, #312]
  400264:	d2800001 	mov	x1, #0x0                   	// #0
  400268:	d53bd054 	mrs	x20, tpidr_el0
  40026c:	d11c0294 	sub	x20, x20, #0x700
  400270:	f9400660 	ldr	x0, [x19, #8]
  400274:	eb14001f 	cmp	x0, x20
  400278:	54000120 	b.eq	40029c <abort+0x5c>  // b.none
  40027c:	aa1303e2 	mov	x2, x19
  400280:	52800021 	mov	w1, #0x1                   	// #1
  400284:	52800000 	mov	w0, #0x0                   	// #0
  400288:	94012a56 	bl	44abe0 <__aarch64_cas4_acq>
  40028c:	34000060 	cbz	w0, 400298 <abort+0x58>
  400290:	aa1303e0 	mov	x0, x19
  400294:	94003ad9 	bl	40edf8 <__lll_lock_wait_private>
  400298:	f9000674 	str	x20, [x19, #8]
  40029c:	b9400660 	ldr	w0, [x19, #4]
  4002a0:	b9401261 	ldr	w1, [x19, #16]
  4002a4:	11000400 	add	w0, w0, #0x1
  4002a8:	b9000660 	str	w0, [x19, #4]
  4002ac:	35000201 	cbnz	w1, 4002ec <abort+0xac>
  4002b0:	910083e1 	add	x1, sp, #0x20
  4002b4:	52800022 	mov	w2, #0x1                   	// #1
  4002b8:	d2800200 	mov	x0, #0x10                  	// #16
  4002bc:	b9001262 	str	w2, [x19, #16]
  4002c0:	d1000400 	sub	x0, x0, #0x1
  4002c4:	b100041f 	cmn	x0, #0x1
  4002c8:	54000060 	b.eq	4002d4 <abort+0x94>  // b.none
  4002cc:	f820783f 	str	xzr, [x1, x0, lsl #3]
  4002d0:	17fffffc 	b	4002c0 <abort+0x80>
  4002d4:	f94013e3 	ldr	x3, [sp, #32]
  4002d8:	d2800002 	mov	x2, #0x0                   	// #0
  4002dc:	52800020 	mov	w0, #0x1                   	// #1
  4002e0:	b27b0063 	orr	x3, x3, #0x20
  4002e4:	f90013e3 	str	x3, [sp, #32]
  4002e8:	9400165e 	bl	405c60 <__sigprocmask>
  4002ec:	b9401260 	ldr	w0, [x19, #16]
  4002f0:	7100041f 	cmp	w0, #0x1
  4002f4:	54000441 	b.ne	40037c <abort+0x13c>  // b.any
  4002f8:	b9400660 	ldr	w0, [x19, #4]
  4002fc:	b900127f 	str	wzr, [x19, #16]
  400300:	51000400 	sub	w0, w0, #0x1
  400304:	b9000660 	str	w0, [x19, #4]
  400308:	35000180 	cbnz	w0, 400338 <abort+0xf8>
  40030c:	f900067f 	str	xzr, [x19, #8]
  400310:	aa1303e1 	mov	x1, x19
  400314:	94012a9f 	bl	44ad90 <__aarch64_swp4_rel>
  400318:	7100041f 	cmp	w0, #0x1
  40031c:	540000ed 	b.le	400338 <abort+0xf8>
  400320:	aa1303e0 	mov	x0, x19
  400324:	d2801021 	mov	x1, #0x81                  	// #129
  400328:	d2800022 	mov	x2, #0x1                   	// #1
  40032c:	d2800003 	mov	x3, #0x0                   	// #0
  400330:	d2800c48 	mov	x8, #0x62                  	// #98
  400334:	d4000001 	svc	#0x0
  400338:	528000c0 	mov	w0, #0x6                   	// #6
  40033c:	9400160f 	bl	405b78 <raise>
  400340:	f9400660 	ldr	x0, [x19, #8]
  400344:	eb14001f 	cmp	x0, x20
  400348:	54000120 	b.eq	40036c <abort+0x12c>  // b.none
  40034c:	aa1303e2 	mov	x2, x19
  400350:	52800021 	mov	w1, #0x1                   	// #1
  400354:	52800000 	mov	w0, #0x0                   	// #0
  400358:	94012a22 	bl	44abe0 <__aarch64_cas4_acq>
  40035c:	34000060 	cbz	w0, 400368 <abort+0x128>
  400360:	aa1303e0 	mov	x0, x19
  400364:	94003aa5 	bl	40edf8 <__lll_lock_wait_private>
  400368:	f9000674 	str	x20, [x19, #8]
  40036c:	b9400660 	ldr	w0, [x19, #4]
  400370:	11000400 	add	w0, w0, #0x1
  400374:	b9000660 	str	w0, [x19, #4]
  400378:	14000003 	b	400384 <abort+0x144>
  40037c:	7100081f 	cmp	w0, #0x2
  400380:	54000261 	b.ne	4003cc <abort+0x18c>  // b.any
  400384:	910283e3 	add	x3, sp, #0xa0
  400388:	52800064 	mov	w4, #0x3                   	// #3
  40038c:	aa0303e0 	mov	x0, x3
  400390:	52800001 	mov	w1, #0x0                   	// #0
  400394:	d2801302 	mov	x2, #0x98                  	// #152
  400398:	b9001264 	str	w4, [x19, #16]
  40039c:	97ffffa5 	bl	400230 <.plt+0x20>
  4003a0:	aa0003e3 	mov	x3, x0
  4003a4:	92800001 	mov	x1, #0xffffffffffffffff    	// #-1
  4003a8:	d2800200 	mov	x0, #0x10                  	// #16
  4003ac:	f8207861 	str	x1, [x3, x0, lsl #3]
  4003b0:	f1000400 	subs	x0, x0, #0x1
  4003b4:	54ffffc1 	b.ne	4003ac <abort+0x16c>  // b.any
  4003b8:	aa0303e1 	mov	x1, x3
  4003bc:	d2800002 	mov	x2, #0x0                   	// #0
  4003c0:	528000c0 	mov	w0, #0x6                   	// #6
  4003c4:	b9012bff 	str	wzr, [sp, #296]
  4003c8:	94009b1a 	bl	427030 <__sigaction>
  4003cc:	b9401260 	ldr	w0, [x19, #16]
  4003d0:	71000c1f 	cmp	w0, #0x3
  4003d4:	540000a1 	b.ne	4003e8 <abort+0x1a8>  // b.any
  4003d8:	52800081 	mov	w1, #0x4                   	// #4
  4003dc:	528000c0 	mov	w0, #0x6                   	// #6
  4003e0:	b9001261 	str	w1, [x19, #16]
  4003e4:	940015e5 	bl	405b78 <raise>
  4003e8:	b9401260 	ldr	w0, [x19, #16]
  4003ec:	7100101f 	cmp	w0, #0x4
  4003f0:	54000081 	b.ne	400400 <abort+0x1c0>  // b.any
  4003f4:	528000a0 	mov	w0, #0x5                   	// #5
  4003f8:	b9001260 	str	w0, [x19, #16]
  4003fc:	d4207d00 	brk	#0x3e8
  400400:	b9401260 	ldr	w0, [x19, #16]
  400404:	7100141f 	cmp	w0, #0x5
  400408:	540000a1 	b.ne	40041c <abort+0x1dc>  // b.any
  40040c:	528000c1 	mov	w1, #0x6                   	// #6
  400410:	52800fe0 	mov	w0, #0x7f                  	// #127
  400414:	b9001261 	str	w1, [x19, #16]
  400418:	94005f90 	bl	418258 <_exit>
  40041c:	d4207d00 	brk	#0x3e8
  400420:	17ffffff 	b	40041c <abort+0x1dc>

0000000000400424 <_dl_start>:
  400424:	a9bf7bfd 	stp	x29, x30, [sp, #-16]!
  400428:	910003fd 	mov	x29, sp
  40042c:	97ffff85 	bl	400240 <abort>

0000000000400430 <main>:
  400430:	a9bb7bfd 	stp	x29, x30, [sp, #-80]!
  400434:	910003fd 	mov	x29, sp
  400438:	a90153f3 	stp	x19, x20, [sp, #16]
  40043c:	2a0003f3 	mov	w19, w0
  400440:	90000280 	adrp	x0, 450000 <buffer_free+0x40>
  400444:	9124e000 	add	x0, x0, #0x938
  400448:	f90013f5 	str	x21, [sp, #32]
  40044c:	aa0103f5 	mov	x21, x1
  400450:	94001dc2 	bl	407b58 <_IO_puts>
  400454:	9100c3e1 	add	x1, sp, #0x30
  400458:	52800020 	mov	w0, #0x1                   	// #1
  40045c:	94005f71 	bl	418220 <__clock_gettime>
  400460:	d0000434 	adrp	x20, 486000 <.got.plt+0x18>
  400464:	d2800001 	mov	x1, #0x0                   	// #0
  400468:	d2800000 	mov	x0, #0x0                   	// #0
  40046c:	940002ce 	bl	400fa4 <m5_reset_stats>
  400470:	9100c294 	add	x20, x20, #0x30
  400474:	12bfffc3 	mov	w3, #0x1ffff               	// #131071
  400478:	52800002 	mov	w2, #0x0                   	// #0
  40047c:	aa1403e0 	mov	x0, x20
  400480:	f0000821 	adrp	x1, 507000 <_dl_main_map+0xb0>
  400484:	91288021 	add	x1, x1, #0xa20
  400488:	9400015a 	bl	4009f0 <m_sort.part.0>
  40048c:	d2800001 	mov	x1, #0x0                   	// #0
  400490:	d2800000 	mov	x0, #0x0                   	// #0
  400494:	940002c6 	bl	400fac <m5_dump_stats>
  400498:	910103e1 	add	x1, sp, #0x40
  40049c:	52800020 	mov	w0, #0x1                   	// #1
  4004a0:	94005f60 	bl	418220 <__clock_gettime>
  4004a4:	a94307e4 	ldp	x4, x1, [sp, #48]
  4004a8:	d2d9aca0 	mov	x0, #0xcd6500000000        	// #225833675390976
  4004ac:	a9440be3 	ldp	x3, x2, [sp, #64]
  4004b0:	f2e839a0 	movk	x0, #0x41cd, lsl #48
  4004b4:	9e670003 	fmov	d3, x0
  4004b8:	d2d09000 	mov	x0, #0x848000000000        	// #145685290680320
  4004bc:	f2e825c0 	movk	x0, #0x412e, lsl #48
  4004c0:	9e670002 	fmov	d2, x0
  4004c4:	90000280 	adrp	x0, 450000 <buffer_free+0x40>
  4004c8:	91252000 	add	x0, x0, #0x948
  4004cc:	cb040063 	sub	x3, x3, x4
  4004d0:	cb010042 	sub	x2, x2, x1
  4004d4:	9e620061 	scvtf	d1, x3
  4004d8:	9e620040 	scvtf	d0, x2
  4004dc:	1f430020 	fmadd	d0, d1, d3, d0
  4004e0:	1e621800 	fdiv	d0, d0, d2
  4004e4:	94001aab 	bl	406f90 <_IO_printf>
  4004e8:	7100067f 	cmp	w19, #0x1
  4004ec:	5400010d 	b.le	40050c <main+0xdc>
  4004f0:	11000673 	add	w19, w19, #0x1
  4004f4:	90000280 	adrp	x0, 450000 <buffer_free+0x40>
  4004f8:	f94002a2 	ldr	x2, [x21]
  4004fc:	d3424a73 	ubfx	x19, x19, #2, #17
  400500:	9125a000 	add	x0, x0, #0x968
  400504:	b8737a81 	ldr	w1, [x20, x19, lsl #2]
  400508:	94001aa2 	bl	406f90 <_IO_printf>
  40050c:	a94153f3 	ldp	x19, x20, [sp, #16]
  400510:	52800000 	mov	w0, #0x0                   	// #0
  400514:	f94013f5 	ldr	x21, [sp, #32]
  400518:	a8c57bfd 	ldp	x29, x30, [sp], #80
  40051c:	d65f03c0 	ret

0000000000400520 <_start>:
  400520:	d280001d 	mov	x29, #0x0                   	// #0
  400524:	d280001e 	mov	x30, #0x0                   	// #0
  400528:	aa0003e5 	mov	x5, x0
  40052c:	f94003e1 	ldr	x1, [sp]
  400530:	910023e2 	add	x2, sp, #0x8
  400534:	910003e6 	mov	x6, sp
  400538:	d2e00000 	movz	x0, #0x0, lsl #48
  40053c:	f2c00000 	movk	x0, #0x0, lsl #32
  400540:	f2a00800 	movk	x0, #0x40, lsl #16
  400544:	f2808600 	movk	x0, #0x430
  400548:	d2e00003 	movz	x3, #0x0, lsl #48
  40054c:	f2c00003 	movk	x3, #0x0, lsl #32
  400550:	f2a00803 	movk	x3, #0x40, lsl #16
  400554:	f282e903 	movk	x3, #0x1748
  400558:	d2e00004 	movz	x4, #0x0, lsl #48
  40055c:	f2c00004 	movk	x4, #0x0, lsl #32
  400560:	f2a00804 	movk	x4, #0x40, lsl #16
  400564:	f2830104 	movk	x4, #0x1808
  400568:	940002ca 	bl	401090 <__libc_start_main>
  40056c:	97ffff35 	bl	400240 <abort>

0000000000400570 <call_weak_fn>:
  400570:	b0000420 	adrp	x0, 485000 <__FRAME_END__+0xfc98>
  400574:	f947f000 	ldr	x0, [x0, #4064]
  400578:	b4000040 	cbz	x0, 400580 <call_weak_fn+0x10>
  40057c:	d503201f 	nop
  400580:	d65f03c0 	ret
  400584:	d503201f 	nop
  400588:	d503201f 	nop
  40058c:	d503201f 	nop

0000000000400590 <deregister_tm_clones>:
  400590:	f0000820 	adrp	x0, 507000 <_dl_main_map+0xb0>
  400594:	91276000 	add	x0, x0, #0x9d8
  400598:	f0000821 	adrp	x1, 507000 <_dl_main_map+0xb0>
  40059c:	91276021 	add	x1, x1, #0x9d8
  4005a0:	eb00003f 	cmp	x1, x0
  4005a4:	540000c0 	b.eq	4005bc <deregister_tm_clones+0x2c>  // b.none
  4005a8:	b0000421 	adrp	x1, 485000 <__FRAME_END__+0xfc98>
  4005ac:	f947cc21 	ldr	x1, [x1, #3992]
  4005b0:	b4000061 	cbz	x1, 4005bc <deregister_tm_clones+0x2c>
  4005b4:	aa0103f0 	mov	x16, x1
  4005b8:	d61f0200 	br	x16
  4005bc:	d65f03c0 	ret

00000000004005c0 <register_tm_clones>:
  4005c0:	f0000820 	adrp	x0, 507000 <_dl_main_map+0xb0>
  4005c4:	91276000 	add	x0, x0, #0x9d8
  4005c8:	f0000821 	adrp	x1, 507000 <_dl_main_map+0xb0>
  4005cc:	91276021 	add	x1, x1, #0x9d8
  4005d0:	cb000021 	sub	x1, x1, x0
  4005d4:	d37ffc22 	lsr	x2, x1, #63
  4005d8:	8b810c41 	add	x1, x2, x1, asr #3
  4005dc:	9341fc21 	asr	x1, x1, #1
  4005e0:	b40000c1 	cbz	x1, 4005f8 <register_tm_clones+0x38>
  4005e4:	b0000422 	adrp	x2, 485000 <__FRAME_END__+0xfc98>
  4005e8:	f947b842 	ldr	x2, [x2, #3952]
  4005ec:	b4000062 	cbz	x2, 4005f8 <register_tm_clones+0x38>
  4005f0:	aa0203f0 	mov	x16, x2
  4005f4:	d61f0200 	br	x16
  4005f8:	d65f03c0 	ret
  4005fc:	d503201f 	nop

0000000000400600 <__do_global_dtors_aux>:
  400600:	a9be7bfd 	stp	x29, x30, [sp, #-32]!
  400604:	910003fd 	mov	x29, sp
  400608:	f9000bf3 	str	x19, [sp, #16]
  40060c:	f0000833 	adrp	x19, 507000 <_dl_main_map+0xb0>
  400610:	39678260 	ldrb	w0, [x19, #2528]
  400614:	35000140 	cbnz	w0, 40063c <__do_global_dtors_aux+0x3c>
  400618:	97ffffde 	bl	400590 <deregister_tm_clones>
  40061c:	b0000420 	adrp	x0, 485000 <__FRAME_END__+0xfc98>
  400620:	f947b400 	ldr	x0, [x0, #3944]
  400624:	b4000080 	cbz	x0, 400634 <__do_global_dtors_aux+0x34>
  400628:	d0000340 	adrp	x0, 46a000 <__PRETTY_FUNCTION__.9884+0x20>
  40062c:	9125e000 	add	x0, x0, #0x978
  400630:	94013b65 	bl	44f3c4 <__deregister_frame_info>
  400634:	52800020 	mov	w0, #0x1                   	// #1
  400638:	39278260 	strb	w0, [x19, #2528]
  40063c:	f9400bf3 	ldr	x19, [sp, #16]
  400640:	a8c27bfd 	ldp	x29, x30, [sp], #32
  400644:	d65f03c0 	ret
  400648:	d503201f 	nop
  40064c:	d503201f 	nop

0000000000400650 <frame_dummy>:
  400650:	b0000420 	adrp	x0, 485000 <__FRAME_END__+0xfc98>
  400654:	f947e800 	ldr	x0, [x0, #4048]
  400658:	b4000140 	cbz	x0, 400680 <frame_dummy+0x30>
  40065c:	a9bf7bfd 	stp	x29, x30, [sp, #-16]!
  400660:	f0000821 	adrp	x1, 507000 <_dl_main_map+0xb0>
  400664:	d0000340 	adrp	x0, 46a000 <__PRETTY_FUNCTION__.9884+0x20>
  400668:	910003fd 	mov	x29, sp
  40066c:	9127a021 	add	x1, x1, #0x9e8
  400670:	9125e000 	add	x0, x0, #0x978
  400674:	94013a4b 	bl	44efa0 <__register_frame_info>
  400678:	a8c17bfd 	ldp	x29, x30, [sp], #16
  40067c:	17ffffd1 	b	4005c0 <register_tm_clones>
  400680:	17ffffd0 	b	4005c0 <register_tm_clones>
  400684:	d503201f 	nop
  400688:	d503201f 	nop
  40068c:	d503201f 	nop

0000000000400690 <merge>:
  400690:	5100046d 	sub	w13, w3, #0x1
  400694:	2a0203e7 	mov	w7, w2
  400698:	6b0201bf 	cmp	w13, w2
  40069c:	4b02008c 	sub	w12, w4, w2
  4006a0:	7a44a060 	ccmp	w3, w4, #0x0, ge  // ge = tcont
  4006a4:	5400040c 	b.gt	400724 <merge+0x94>
  4006a8:	11000446 	add	w6, w2, #0x1
  4006ac:	93407c45 	sxtw	x5, w2
  4006b0:	2a0303e8 	mov	w8, w3
  4006b4:	93407c62 	sxtw	x2, w3
  4006b8:	93407cc6 	sxtw	x6, w6
  4006bc:	d100102e 	sub	x14, x1, #0x4
  4006c0:	b865780a 	ldr	w10, [x0, x5, lsl #2]
  4006c4:	2a0603eb 	mov	w11, w6
  4006c8:	b8627809 	ldr	w9, [x0, x2, lsl #2]
  4006cc:	6b0a013f 	cmp	w9, w10
  4006d0:	540001ab 	b.lt	400704 <merge+0x74>  // b.tstop
  4006d4:	b82679ca 	str	w10, [x14, x6, lsl #2]
  4006d8:	110004e7 	add	w7, w7, #0x1
  4006dc:	6b08009f 	cmp	w4, w8
  4006e0:	910004c6 	add	x6, x6, #0x1
  4006e4:	7a47a1a1 	ccmp	w13, w7, #0x1, ge  // ge = tcont
  4006e8:	5400024b 	b.lt	400730 <merge+0xa0>  // b.tstop
  4006ec:	93407ce5 	sxtw	x5, w7
  4006f0:	b8627809 	ldr	w9, [x0, x2, lsl #2]
  4006f4:	2a0603eb 	mov	w11, w6
  4006f8:	b865780a 	ldr	w10, [x0, x5, lsl #2]
  4006fc:	6b0a013f 	cmp	w9, w10
  400700:	54fffeaa 	b.ge	4006d4 <merge+0x44>  // b.tcont
  400704:	11000508 	add	w8, w8, #0x1
  400708:	b82679c9 	str	w9, [x14, x6, lsl #2]
  40070c:	6b08009f 	cmp	w4, w8
  400710:	910004c6 	add	x6, x6, #0x1
  400714:	7a47a1a1 	ccmp	w13, w7, #0x1, ge  // ge = tcont
  400718:	540000cb 	b.lt	400730 <merge+0xa0>  // b.tstop
  40071c:	93407d02 	sxtw	x2, w8
  400720:	17ffffe8 	b	4006c0 <merge+0x30>
  400724:	2a0203eb 	mov	w11, w2
  400728:	2a0303e8 	mov	w8, w3
  40072c:	d503201f 	nop
  400730:	6b0701bf 	cmp	w13, w7
  400734:	5400032b 	b.lt	400798 <merge+0x108>  // b.tstop
  400738:	4b070066 	sub	w6, w3, w7
  40073c:	93407ce5 	sxtw	x5, w7
  400740:	510004c2 	sub	w2, w6, #0x1
  400744:	93407d63 	sxtw	x3, w11
  400748:	7100145f 	cmp	w2, #0x5
  40074c:	54000129 	b.ls	400770 <merge+0xe0>  // b.plast
  400750:	910004a2 	add	x2, x5, #0x1
  400754:	8b2bc829 	add	x9, x1, w11, sxtw #2
  400758:	93407d63 	sxtw	x3, w11
  40075c:	d37ef442 	lsl	x2, x2, #2
  400760:	8b02000a 	add	x10, x0, x2
  400764:	cb0a012a 	sub	x10, x9, x10
  400768:	f100215f 	cmp	x10, #0x8
  40076c:	54000b68 	b.hi	4008d8 <merge+0x248>  // b.pmore
  400770:	d37ef463 	lsl	x3, x3, #2
  400774:	aa0503e2 	mov	x2, x5
  400778:	cb050863 	sub	x3, x3, x5, lsl #2
  40077c:	8b030023 	add	x3, x1, x3
  400780:	b8627805 	ldr	w5, [x0, x2, lsl #2]
  400784:	b8227865 	str	w5, [x3, x2, lsl #2]
  400788:	91000442 	add	x2, x2, #0x1
  40078c:	6b0201bf 	cmp	w13, w2
  400790:	54ffff8a 	b.ge	400780 <merge+0xf0>  // b.tcont
  400794:	0b06016b 	add	w11, w11, w6
  400798:	6b08009f 	cmp	w4, w8
  40079c:	540002cb 	b.lt	4007f4 <merge+0x164>  // b.tstop
  4007a0:	4b080087 	sub	w7, w4, w8
  4007a4:	93407d02 	sxtw	x2, w8
  4007a8:	93407d63 	sxtw	x3, w11
  4007ac:	710014ff 	cmp	w7, #0x5
  4007b0:	54000129 	b.ls	4007d4 <merge+0x144>  // b.plast
  4007b4:	91000445 	add	x5, x2, #0x1
  4007b8:	8b2bc826 	add	x6, x1, w11, sxtw #2
  4007bc:	93407d63 	sxtw	x3, w11
  4007c0:	d37ef4a5 	lsl	x5, x5, #2
  4007c4:	8b050009 	add	x9, x0, x5
  4007c8:	cb0900c9 	sub	x9, x6, x9
  4007cc:	f100213f 	cmp	x9, #0x8
  4007d0:	54000408 	b.hi	400850 <merge+0x1c0>  // b.pmore
  4007d4:	d37ef463 	lsl	x3, x3, #2
  4007d8:	cb020863 	sub	x3, x3, x2, lsl #2
  4007dc:	8b030023 	add	x3, x1, x3
  4007e0:	b8627805 	ldr	w5, [x0, x2, lsl #2]
  4007e4:	b8227865 	str	w5, [x3, x2, lsl #2]
  4007e8:	91000442 	add	x2, x2, #0x1
  4007ec:	6b02009f 	cmp	w4, w2
  4007f0:	54ffff8a 	b.ge	4007e0 <merge+0x150>  // b.tcont
  4007f4:	37f802cc 	tbnz	w12, #31, 40084c <merge+0x1bc>
  4007f8:	93407c83 	sxtw	x3, w4
  4007fc:	7100159f 	cmp	w12, #0x5
  400800:	54000149 	b.ls	400828 <merge+0x198>  // b.plast
  400804:	937e7c82 	sbfiz	x2, x4, #2, #32
  400808:	93407c83 	sxtw	x3, w4
  40080c:	d1001046 	sub	x6, x2, #0x4
  400810:	8b020005 	add	x5, x0, x2
  400814:	8b060026 	add	x6, x1, x6
  400818:	cb0600a5 	sub	x5, x5, x6
  40081c:	910020a5 	add	x5, x5, #0x8
  400820:	f10020bf 	cmp	x5, #0x8
  400824:	54000a08 	b.hi	400964 <merge+0x2d4>  // b.pmore
  400828:	d1000462 	sub	x2, x3, #0x1
  40082c:	cb2cc04c 	sub	x12, x2, w12, sxtw
  400830:	14000002 	b	400838 <merge+0x1a8>
  400834:	d1000442 	sub	x2, x2, #0x1
  400838:	b8637824 	ldr	w4, [x1, x3, lsl #2]
  40083c:	b8237804 	str	w4, [x0, x3, lsl #2]
  400840:	aa0203e3 	mov	x3, x2
  400844:	eb02019f 	cmp	x12, x2
  400848:	54ffff61 	b.ne	400834 <merge+0x1a4>  // b.any
  40084c:	d65f03c0 	ret
  400850:	110004e7 	add	w7, w7, #0x1
  400854:	d10010a3 	sub	x3, x5, #0x4
  400858:	8b030003 	add	x3, x0, x3
  40085c:	d2800002 	mov	x2, #0x0                   	// #0
  400860:	53027ce5 	lsr	w5, w7, #2
  400864:	d37ceca5 	lsl	x5, x5, #4
  400868:	3ce26860 	ldr	q0, [x3, x2]
  40086c:	3ca268c0 	str	q0, [x6, x2]
  400870:	91004042 	add	x2, x2, #0x10
  400874:	eb05005f 	cmp	x2, x5
  400878:	54ffff81 	b.ne	400868 <merge+0x1d8>  // b.any
  40087c:	121e74e2 	and	w2, w7, #0xfffffffc
  400880:	0b020108 	add	w8, w8, w2
  400884:	0b02016b 	add	w11, w11, w2
  400888:	f24004ff 	tst	x7, #0x3
  40088c:	54fffb40 	b.eq	4007f4 <merge+0x164>  // b.none
  400890:	b868d803 	ldr	w3, [x0, w8, sxtw #2]
  400894:	11000502 	add	w2, w8, #0x1
  400898:	b82bd823 	str	w3, [x1, w11, sxtw #2]
  40089c:	1100056b 	add	w11, w11, #0x1
  4008a0:	6b02009f 	cmp	w4, w2
  4008a4:	54fffa8b 	b.lt	4007f4 <merge+0x164>  // b.tstop
  4008a8:	b862d803 	ldr	w3, [x0, w2, sxtw #2]
  4008ac:	11000908 	add	w8, w8, #0x2
  4008b0:	b82bd823 	str	w3, [x1, w11, sxtw #2]
  4008b4:	937e7c42 	sbfiz	x2, x2, #2, #32
  4008b8:	937e7d6b 	sbfiz	x11, x11, #2, #32
  4008bc:	6b08009f 	cmp	w4, w8
  4008c0:	54fff9ab 	b.lt	4007f4 <merge+0x164>  // b.tstop
  4008c4:	8b020002 	add	x2, x0, x2
  4008c8:	8b0b002b 	add	x11, x1, x11
  4008cc:	b9400442 	ldr	w2, [x2, #4]
  4008d0:	b9000562 	str	w2, [x11, #4]
  4008d4:	17ffffc8 	b	4007f4 <merge+0x164>
  4008d8:	53027cc5 	lsr	w5, w6, #2
  4008dc:	d1001043 	sub	x3, x2, #0x4
  4008e0:	8b030003 	add	x3, x0, x3
  4008e4:	d2800002 	mov	x2, #0x0                   	// #0
  4008e8:	d37ceca5 	lsl	x5, x5, #4
  4008ec:	d503201f 	nop
  4008f0:	3ce26860 	ldr	q0, [x3, x2]
  4008f4:	3ca26920 	str	q0, [x9, x2]
  4008f8:	91004042 	add	x2, x2, #0x10
  4008fc:	eb0200bf 	cmp	x5, x2
  400900:	54ffff81 	b.ne	4008f0 <merge+0x260>  // b.any
  400904:	121e74c2 	and	w2, w6, #0xfffffffc
  400908:	0b0200e7 	add	w7, w7, w2
  40090c:	0b020162 	add	w2, w11, w2
  400910:	f24004df 	tst	x6, #0x3
  400914:	54fff400 	b.eq	400794 <merge+0x104>  // b.none
  400918:	b867d805 	ldr	w5, [x0, w7, sxtw #2]
  40091c:	110004e3 	add	w3, w7, #0x1
  400920:	b822d825 	str	w5, [x1, w2, sxtw #2]
  400924:	11000442 	add	w2, w2, #0x1
  400928:	6b0301bf 	cmp	w13, w3
  40092c:	54fff34b 	b.lt	400794 <merge+0x104>  // b.tstop
  400930:	b863d805 	ldr	w5, [x0, w3, sxtw #2]
  400934:	110008e7 	add	w7, w7, #0x2
  400938:	b822d825 	str	w5, [x1, w2, sxtw #2]
  40093c:	937e7c63 	sbfiz	x3, x3, #2, #32
  400940:	937e7c42 	sbfiz	x2, x2, #2, #32
  400944:	6b0d00ff 	cmp	w7, w13
  400948:	54fff26c 	b.gt	400794 <merge+0x104>
  40094c:	8b030003 	add	x3, x0, x3
  400950:	8b020022 	add	x2, x1, x2
  400954:	0b06016b 	add	w11, w11, w6
  400958:	b9400463 	ldr	w3, [x3, #4]
  40095c:	b9000443 	str	w3, [x2, #4]
  400960:	17ffff8e 	b	400798 <merge+0x108>
  400964:	11000587 	add	w7, w12, #0x1
  400968:	d1003042 	sub	x2, x2, #0xc
  40096c:	8b020026 	add	x6, x1, x2
  400970:	8b020003 	add	x3, x0, x2
  400974:	53027ce5 	lsr	w5, w7, #2
  400978:	d2800002 	mov	x2, #0x0                   	// #0
  40097c:	cb0513e5 	neg	x5, x5, lsl #4
  400980:	3ce268c0 	ldr	q0, [x6, x2]
  400984:	3ca26860 	str	q0, [x3, x2]
  400988:	d1004042 	sub	x2, x2, #0x10
  40098c:	eb05005f 	cmp	x2, x5
  400990:	54ffff81 	b.ne	400980 <merge+0x2f0>  // b.any
  400994:	121e74e2 	and	w2, w7, #0xfffffffc
  400998:	4b020084 	sub	w4, w4, w2
  40099c:	f24004ff 	tst	x7, #0x3
  4009a0:	54fff560 	b.eq	40084c <merge+0x1bc>  // b.none
  4009a4:	93407c83 	sxtw	x3, w4
  4009a8:	51000484 	sub	w4, w4, #0x1
  4009ac:	b8637825 	ldr	w5, [x1, x3, lsl #2]
  4009b0:	b8237805 	str	w5, [x0, x3, lsl #2]
  4009b4:	6b02019f 	cmp	w12, w2
  4009b8:	54fff4ad 	b.le	40084c <merge+0x1bc>
  4009bc:	93407c83 	sxtw	x3, w4
  4009c0:	11000842 	add	w2, w2, #0x2
  4009c4:	937e7c84 	sbfiz	x4, x4, #2, #32
  4009c8:	b8637825 	ldr	w5, [x1, x3, lsl #2]
  4009cc:	b8237805 	str	w5, [x0, x3, lsl #2]
  4009d0:	6b02019f 	cmp	w12, w2
  4009d4:	54fff3cb 	b.lt	40084c <merge+0x1bc>  // b.tstop
  4009d8:	d1001082 	sub	x2, x4, #0x4
  4009dc:	b8626821 	ldr	w1, [x1, x2]
  4009e0:	b8226801 	str	w1, [x0, x2]
  4009e4:	d65f03c0 	ret
  4009e8:	d503201f 	nop
  4009ec:	d503201f 	nop

00000000004009f0 <m_sort.part.0>:
  4009f0:	a9bb7bfd 	stp	x29, x30, [sp, #-80]!
  4009f4:	910003fd 	mov	x29, sp
  4009f8:	a90153f3 	stp	x19, x20, [sp, #16]
  4009fc:	0b020073 	add	w19, w3, w2
  400a00:	2a0303f4 	mov	w20, w3
  400a04:	0b537e73 	add	w19, w19, w19, lsr #31
  400a08:	a9025bf5 	stp	x21, x22, [sp, #32]
  400a0c:	2a0203f5 	mov	w21, w2
  400a10:	13017e73 	asr	w19, w19, #1
  400a14:	a90363f7 	stp	x23, x24, [sp, #48]
  400a18:	aa0003f6 	mov	x22, x0
  400a1c:	aa0103f7 	mov	x23, x1
  400a20:	6b13005f 	cmp	w2, w19
  400a24:	540001cb 	b.lt	400a5c <m_sort.part.0+0x6c>  // b.tstop
  400a28:	11000673 	add	w19, w19, #0x1
  400a2c:	6b13029f 	cmp	w20, w19
  400a30:	5400038c 	b.gt	400aa0 <m_sort.part.0+0xb0>
  400a34:	2a1403e4 	mov	w4, w20
  400a38:	2a1303e3 	mov	w3, w19
  400a3c:	a94153f3 	ldp	x19, x20, [sp, #16]
  400a40:	2a1503e2 	mov	w2, w21
  400a44:	aa1703e1 	mov	x1, x23
  400a48:	aa1603e0 	mov	x0, x22
  400a4c:	a9425bf5 	ldp	x21, x22, [sp, #32]
  400a50:	a94363f7 	ldp	x23, x24, [sp, #48]
  400a54:	a8c57bfd 	ldp	x29, x30, [sp], #80
  400a58:	17ffff0e 	b	400690 <merge>
  400a5c:	0b130058 	add	w24, w2, w19
  400a60:	0b587f18 	add	w24, w24, w24, lsr #31
  400a64:	13017f18 	asr	w24, w24, #1
  400a68:	6b18005f 	cmp	w2, w24
  400a6c:	5400038b 	b.lt	400adc <m_sort.part.0+0xec>  // b.tstop
  400a70:	11000718 	add	w24, w24, #0x1
  400a74:	6b18027f 	cmp	w19, w24
  400a78:	5400058c 	b.gt	400b28 <m_sort.part.0+0x138>
  400a7c:	2a1303e4 	mov	w4, w19
  400a80:	2a1803e3 	mov	w3, w24
  400a84:	2a1503e2 	mov	w2, w21
  400a88:	aa1703e1 	mov	x1, x23
  400a8c:	aa1603e0 	mov	x0, x22
  400a90:	11000673 	add	w19, w19, #0x1
  400a94:	97fffeff 	bl	400690 <merge>
  400a98:	6b13029f 	cmp	w20, w19
  400a9c:	54fffccd 	b.le	400a34 <m_sort.part.0+0x44>
  400aa0:	0b130298 	add	w24, w20, w19
  400aa4:	0b587f18 	add	w24, w24, w24, lsr #31
  400aa8:	13017f18 	asr	w24, w24, #1
  400aac:	6b18027f 	cmp	w19, w24
  400ab0:	5400080b 	b.lt	400bb0 <m_sort.part.0+0x1c0>  // b.tstop
  400ab4:	11000718 	add	w24, w24, #0x1
  400ab8:	6b18029f 	cmp	w20, w24
  400abc:	5400058c 	b.gt	400b6c <m_sort.part.0+0x17c>
  400ac0:	2a1803e3 	mov	w3, w24
  400ac4:	2a1403e4 	mov	w4, w20
  400ac8:	2a1303e2 	mov	w2, w19
  400acc:	aa1703e1 	mov	x1, x23
  400ad0:	aa1603e0 	mov	x0, x22
  400ad4:	97fffeef 	bl	400690 <merge>
  400ad8:	17ffffd7 	b	400a34 <m_sort.part.0+0x44>
  400adc:	f90023f9 	str	x25, [sp, #64]
  400ae0:	0b180059 	add	w25, w2, w24
  400ae4:	0b597f39 	add	w25, w25, w25, lsr #31
  400ae8:	13017f39 	asr	w25, w25, #1
  400aec:	6b19005f 	cmp	w2, w25
  400af0:	5400082b 	b.lt	400bf4 <m_sort.part.0+0x204>  // b.tstop
  400af4:	11000739 	add	w25, w25, #0x1
  400af8:	6b19031f 	cmp	w24, w25
  400afc:	54000cac 	b.gt	400c90 <m_sort.part.0+0x2a0>
  400b00:	2a1903e3 	mov	w3, w25
  400b04:	2a1803e4 	mov	w4, w24
  400b08:	2a1503e2 	mov	w2, w21
  400b0c:	aa1703e1 	mov	x1, x23
  400b10:	aa1603e0 	mov	x0, x22
  400b14:	11000718 	add	w24, w24, #0x1
  400b18:	97fffede 	bl	400690 <merge>
  400b1c:	f94023f9 	ldr	x25, [sp, #64]
  400b20:	6b18027f 	cmp	w19, w24
  400b24:	54fffacd 	b.le	400a7c <m_sort.part.0+0x8c>
  400b28:	f90023f9 	str	x25, [sp, #64]
  400b2c:	0b180279 	add	w25, w19, w24
  400b30:	0b597f39 	add	w25, w25, w25, lsr #31
  400b34:	13017f39 	asr	w25, w25, #1
  400b38:	6b19031f 	cmp	w24, w25
  400b3c:	540006eb 	b.lt	400c18 <m_sort.part.0+0x228>  // b.tstop
  400b40:	11000739 	add	w25, w25, #0x1
  400b44:	6b19027f 	cmp	w19, w25
  400b48:	540005cc 	b.gt	400c00 <m_sort.part.0+0x210>
  400b4c:	2a1903e3 	mov	w3, w25
  400b50:	2a1303e4 	mov	w4, w19
  400b54:	2a1803e2 	mov	w2, w24
  400b58:	aa1703e1 	mov	x1, x23
  400b5c:	aa1603e0 	mov	x0, x22
  400b60:	97fffecc 	bl	400690 <merge>
  400b64:	f94023f9 	ldr	x25, [sp, #64]
  400b68:	17ffffc5 	b	400a7c <m_sort.part.0+0x8c>
  400b6c:	f90023f9 	str	x25, [sp, #64]
  400b70:	0b180299 	add	w25, w20, w24
  400b74:	0b597f39 	add	w25, w25, w25, lsr #31
  400b78:	13017f39 	asr	w25, w25, #1
  400b7c:	6b19031f 	cmp	w24, w25
  400b80:	540007cb 	b.lt	400c78 <m_sort.part.0+0x288>  // b.tstop
  400b84:	11000739 	add	w25, w25, #0x1
  400b88:	6b19029f 	cmp	w20, w25
  400b8c:	540006ac 	b.gt	400c60 <m_sort.part.0+0x270>
  400b90:	2a1903e3 	mov	w3, w25
  400b94:	2a1403e4 	mov	w4, w20
  400b98:	2a1803e2 	mov	w2, w24
  400b9c:	aa1703e1 	mov	x1, x23
  400ba0:	aa1603e0 	mov	x0, x22
  400ba4:	97fffebb 	bl	400690 <merge>
  400ba8:	f94023f9 	ldr	x25, [sp, #64]
  400bac:	17ffffc5 	b	400ac0 <m_sort.part.0+0xd0>
  400bb0:	f90023f9 	str	x25, [sp, #64]
  400bb4:	0b180279 	add	w25, w19, w24
  400bb8:	0b597f39 	add	w25, w25, w25, lsr #31
  400bbc:	13017f39 	asr	w25, w25, #1
  400bc0:	6b19027f 	cmp	w19, w25
  400bc4:	5400042b 	b.lt	400c48 <m_sort.part.0+0x258>  // b.tstop
  400bc8:	11000739 	add	w25, w25, #0x1
  400bcc:	6b19031f 	cmp	w24, w25
  400bd0:	5400030c 	b.gt	400c30 <m_sort.part.0+0x240>
  400bd4:	2a1903e3 	mov	w3, w25
  400bd8:	2a1803e4 	mov	w4, w24
  400bdc:	2a1303e2 	mov	w2, w19
  400be0:	aa1703e1 	mov	x1, x23
  400be4:	aa1603e0 	mov	x0, x22
  400be8:	97fffeaa 	bl	400690 <merge>
  400bec:	f94023f9 	ldr	x25, [sp, #64]
  400bf0:	17ffffb1 	b	400ab4 <m_sort.part.0+0xc4>
  400bf4:	2a1903e3 	mov	w3, w25
  400bf8:	97ffff7e 	bl	4009f0 <m_sort.part.0>
  400bfc:	17ffffbe 	b	400af4 <m_sort.part.0+0x104>
  400c00:	2a1303e3 	mov	w3, w19
  400c04:	2a1903e2 	mov	w2, w25
  400c08:	aa1703e1 	mov	x1, x23
  400c0c:	aa1603e0 	mov	x0, x22
  400c10:	97ffff78 	bl	4009f0 <m_sort.part.0>
  400c14:	17ffffce 	b	400b4c <m_sort.part.0+0x15c>
  400c18:	2a1903e3 	mov	w3, w25
  400c1c:	2a1803e2 	mov	w2, w24
  400c20:	aa1703e1 	mov	x1, x23
  400c24:	aa1603e0 	mov	x0, x22
  400c28:	97ffff72 	bl	4009f0 <m_sort.part.0>
  400c2c:	17ffffc5 	b	400b40 <m_sort.part.0+0x150>
  400c30:	2a1803e3 	mov	w3, w24
  400c34:	2a1903e2 	mov	w2, w25
  400c38:	aa1703e1 	mov	x1, x23
  400c3c:	aa1603e0 	mov	x0, x22
  400c40:	97ffff6c 	bl	4009f0 <m_sort.part.0>
  400c44:	17ffffe4 	b	400bd4 <m_sort.part.0+0x1e4>
  400c48:	2a1903e3 	mov	w3, w25
  400c4c:	2a1303e2 	mov	w2, w19
  400c50:	aa1703e1 	mov	x1, x23
  400c54:	aa1603e0 	mov	x0, x22
  400c58:	97ffff66 	bl	4009f0 <m_sort.part.0>
  400c5c:	17ffffdb 	b	400bc8 <m_sort.part.0+0x1d8>
  400c60:	2a1403e3 	mov	w3, w20
  400c64:	2a1903e2 	mov	w2, w25
  400c68:	aa1703e1 	mov	x1, x23
  400c6c:	aa1603e0 	mov	x0, x22
  400c70:	97ffff60 	bl	4009f0 <m_sort.part.0>
  400c74:	17ffffc7 	b	400b90 <m_sort.part.0+0x1a0>
  400c78:	2a1903e3 	mov	w3, w25
  400c7c:	2a1803e2 	mov	w2, w24
  400c80:	aa1703e1 	mov	x1, x23
  400c84:	aa1603e0 	mov	x0, x22
  400c88:	97ffff5a 	bl	4009f0 <m_sort.part.0>
  400c8c:	17ffffbe 	b	400b84 <m_sort.part.0+0x194>
  400c90:	2a1803e3 	mov	w3, w24
  400c94:	2a1903e2 	mov	w2, w25
  400c98:	aa1703e1 	mov	x1, x23
  400c9c:	aa1603e0 	mov	x0, x22
  400ca0:	97ffff54 	bl	4009f0 <m_sort.part.0>
  400ca4:	17ffff97 	b	400b00 <m_sort.part.0+0x110>
  400ca8:	d503201f 	nop
  400cac:	d503201f 	nop

0000000000400cb0 <m_sort>:
  400cb0:	6b02007f 	cmp	w3, w2
  400cb4:	5400004c 	b.gt	400cbc <m_sort+0xc>
  400cb8:	d65f03c0 	ret
  400cbc:	a9bd7bfd 	stp	x29, x30, [sp, #-48]!
  400cc0:	2a0303ef 	mov	w15, w3
  400cc4:	2a0203f2 	mov	w18, w2
  400cc8:	910003fd 	mov	x29, sp
  400ccc:	a90153f3 	stp	x19, x20, [sp, #16]
  400cd0:	0b020073 	add	w19, w3, w2
  400cd4:	aa0003f4 	mov	x20, x0
  400cd8:	0b537e73 	add	w19, w19, w19, lsr #31
  400cdc:	a9025bf5 	stp	x21, x22, [sp, #32]
  400ce0:	aa0103f5 	mov	x21, x1
  400ce4:	13017e73 	asr	w19, w19, #1
  400ce8:	6b13005f 	cmp	w2, w19
  400cec:	540001ab 	b.lt	400d20 <m_sort+0x70>  // b.tstop
  400cf0:	11000673 	add	w19, w19, #0x1
  400cf4:	6b1301ff 	cmp	w15, w19
  400cf8:	5400036c 	b.gt	400d64 <m_sort+0xb4>
  400cfc:	2a1303e3 	mov	w3, w19
  400d00:	aa1503e1 	mov	x1, x21
  400d04:	a9425bf5 	ldp	x21, x22, [sp, #32]
  400d08:	aa1403e0 	mov	x0, x20
  400d0c:	a94153f3 	ldp	x19, x20, [sp, #16]
  400d10:	2a0f03e4 	mov	w4, w15
  400d14:	a8c37bfd 	ldp	x29, x30, [sp], #48
  400d18:	2a1203e2 	mov	w2, w18
  400d1c:	17fffe5d 	b	400690 <merge>
  400d20:	0b130056 	add	w22, w2, w19
  400d24:	0b567ed6 	add	w22, w22, w22, lsr #31
  400d28:	13017ed6 	asr	w22, w22, #1
  400d2c:	6b16005f 	cmp	w2, w22
  400d30:	5400038b 	b.lt	400da0 <m_sort+0xf0>  // b.tstop
  400d34:	110006d6 	add	w22, w22, #0x1
  400d38:	6b16027f 	cmp	w19, w22
  400d3c:	5400050c 	b.gt	400ddc <m_sort+0x12c>
  400d40:	2a1303e4 	mov	w4, w19
  400d44:	2a1603e3 	mov	w3, w22
  400d48:	2a1203e2 	mov	w2, w18
  400d4c:	aa1503e1 	mov	x1, x21
  400d50:	aa1403e0 	mov	x0, x20
  400d54:	11000673 	add	w19, w19, #0x1
  400d58:	97fffe4e 	bl	400690 <merge>
  400d5c:	6b1301ff 	cmp	w15, w19
  400d60:	54fffced 	b.le	400cfc <m_sort+0x4c>
  400d64:	0b1301f6 	add	w22, w15, w19
  400d68:	0b567ed6 	add	w22, w22, w22, lsr #31
  400d6c:	13017ed6 	asr	w22, w22, #1
  400d70:	6b16027f 	cmp	w19, w22
  400d74:	5400028b 	b.lt	400dc4 <m_sort+0x114>  // b.tstop
  400d78:	110006d6 	add	w22, w22, #0x1
  400d7c:	6b1601ff 	cmp	w15, w22
  400d80:	5400016c 	b.gt	400dac <m_sort+0xfc>
  400d84:	2a1603e3 	mov	w3, w22
  400d88:	2a0f03e4 	mov	w4, w15
  400d8c:	2a1303e2 	mov	w2, w19
  400d90:	aa1503e1 	mov	x1, x21
  400d94:	aa1403e0 	mov	x0, x20
  400d98:	97fffe3e 	bl	400690 <merge>
  400d9c:	17ffffd8 	b	400cfc <m_sort+0x4c>
  400da0:	2a1603e3 	mov	w3, w22
  400da4:	97ffff13 	bl	4009f0 <m_sort.part.0>
  400da8:	17ffffe3 	b	400d34 <m_sort+0x84>
  400dac:	2a0f03e3 	mov	w3, w15
  400db0:	2a1603e2 	mov	w2, w22
  400db4:	aa1503e1 	mov	x1, x21
  400db8:	aa1403e0 	mov	x0, x20
  400dbc:	97ffff0d 	bl	4009f0 <m_sort.part.0>
  400dc0:	17fffff1 	b	400d84 <m_sort+0xd4>
  400dc4:	2a1603e3 	mov	w3, w22
  400dc8:	2a1303e2 	mov	w2, w19
  400dcc:	aa1503e1 	mov	x1, x21
  400dd0:	aa1403e0 	mov	x0, x20
  400dd4:	97ffff07 	bl	4009f0 <m_sort.part.0>
  400dd8:	17ffffe8 	b	400d78 <m_sort+0xc8>
  400ddc:	2a1303e3 	mov	w3, w19
  400de0:	2a1603e2 	mov	w2, w22
  400de4:	aa1503e1 	mov	x1, x21
  400de8:	aa1403e0 	mov	x0, x20
  400dec:	97ffff01 	bl	4009f0 <m_sort.part.0>
  400df0:	17ffffd4 	b	400d40 <m_sort+0x90>

0000000000400df4 <mergeSort>:
  400df4:	5100044f 	sub	w15, w2, #0x1
  400df8:	710001ff 	cmp	w15, #0x0
  400dfc:	5400004c 	b.gt	400e04 <mergeSort+0x10>
  400e00:	d65f03c0 	ret
  400e04:	a9bd7bfd 	stp	x29, x30, [sp, #-48]!
  400e08:	aa0103f2 	mov	x18, x1
  400e0c:	910003fd 	mov	x29, sp
  400e10:	a90153f3 	stp	x19, x20, [sp, #16]
  400e14:	aa0003f3 	mov	x19, x0
  400e18:	52800034 	mov	w20, #0x1                   	// #1
  400e1c:	6b1401ff 	cmp	w15, w20
  400e20:	54000121 	b.ne	400e44 <mergeSort+0x50>  // b.any
  400e24:	2a1403e3 	mov	w3, w20
  400e28:	aa1303e0 	mov	x0, x19
  400e2c:	a94153f3 	ldp	x19, x20, [sp, #16]
  400e30:	2a0f03e4 	mov	w4, w15
  400e34:	a8c37bfd 	ldp	x29, x30, [sp], #48
  400e38:	aa1203e1 	mov	x1, x18
  400e3c:	52800002 	mov	w2, #0x0                   	// #0
  400e40:	17fffe14 	b	400690 <merge>
  400e44:	f90013f5 	str	x21, [sp, #32]
  400e48:	71000dff 	cmp	w15, #0x3
  400e4c:	5400034c 	b.gt	400eb4 <mergeSort+0xc0>
  400e50:	2a1403e4 	mov	w4, w20
  400e54:	2a1403e3 	mov	w3, w20
  400e58:	52800002 	mov	w2, #0x0                   	// #0
  400e5c:	97fffe0d 	bl	400690 <merge>
  400e60:	52800075 	mov	w21, #0x3                   	// #3
  400e64:	52800054 	mov	w20, #0x2                   	// #2
  400e68:	6b1501ff 	cmp	w15, w21
  400e6c:	54000201 	b.ne	400eac <mergeSort+0xb8>  // b.any
  400e70:	2a1503e3 	mov	w3, w21
  400e74:	2a0f03e4 	mov	w4, w15
  400e78:	2a1403e2 	mov	w2, w20
  400e7c:	aa1203e1 	mov	x1, x18
  400e80:	aa1303e0 	mov	x0, x19
  400e84:	97fffe03 	bl	400690 <merge>
  400e88:	f94013f5 	ldr	x21, [sp, #32]
  400e8c:	2a1403e3 	mov	w3, w20
  400e90:	aa1303e0 	mov	x0, x19
  400e94:	2a0f03e4 	mov	w4, w15
  400e98:	a94153f3 	ldp	x19, x20, [sp, #16]
  400e9c:	aa1203e1 	mov	x1, x18
  400ea0:	a8c37bfd 	ldp	x29, x30, [sp], #48
  400ea4:	52800002 	mov	w2, #0x0                   	// #0
  400ea8:	17fffdfa 	b	400690 <merge>
  400eac:	f94013f5 	ldr	x21, [sp, #32]
  400eb0:	17ffffdd 	b	400e24 <mergeSort+0x30>
  400eb4:	13027de3 	asr	w3, w15, #2
  400eb8:	52800002 	mov	w2, #0x0                   	// #0
  400ebc:	11000475 	add	w21, w3, #0x1
  400ec0:	13017df4 	asr	w20, w15, #1
  400ec4:	97fffecb 	bl	4009f0 <m_sort.part.0>
  400ec8:	6b15029f 	cmp	w20, w21
  400ecc:	540000cd 	b.le	400ee4 <mergeSort+0xf0>
  400ed0:	2a1403e3 	mov	w3, w20
  400ed4:	2a1503e2 	mov	w2, w21
  400ed8:	aa1203e1 	mov	x1, x18
  400edc:	aa1303e0 	mov	x0, x19
  400ee0:	97fffec4 	bl	4009f0 <m_sort.part.0>
  400ee4:	2a1403e4 	mov	w4, w20
  400ee8:	2a1503e3 	mov	w3, w21
  400eec:	11000694 	add	w20, w20, #0x1
  400ef0:	aa1203e1 	mov	x1, x18
  400ef4:	aa1303e0 	mov	x0, x19
  400ef8:	52800002 	mov	w2, #0x0                   	// #0
  400efc:	97fffde5 	bl	400690 <merge>
  400f00:	6b1401ff 	cmp	w15, w20
  400f04:	54fffd4d 	b.le	400eac <mergeSort+0xb8>
  400f08:	0b1401f5 	add	w21, w15, w20
  400f0c:	13017eb5 	asr	w21, w21, #1
  400f10:	6b15029f 	cmp	w20, w21
  400f14:	540000aa 	b.ge	400f28 <mergeSort+0x134>  // b.tcont
  400f18:	2a1503e3 	mov	w3, w21
  400f1c:	2a1403e2 	mov	w2, w20
  400f20:	aa1203e1 	mov	x1, x18
  400f24:	97fffeb3 	bl	4009f0 <m_sort.part.0>
  400f28:	110006b5 	add	w21, w21, #0x1
  400f2c:	6b1501ff 	cmp	w15, w21
  400f30:	54fffa0d 	b.le	400e70 <mergeSort+0x7c>
  400f34:	2a0f03e3 	mov	w3, w15
  400f38:	2a1503e2 	mov	w2, w21
  400f3c:	aa1203e1 	mov	x1, x18
  400f40:	aa1303e0 	mov	x0, x19
  400f44:	97fffeab 	bl	4009f0 <m_sort.part.0>
  400f48:	17ffffca 	b	400e70 <mergeSort+0x7c>

0000000000400f4c <m5_arm>:
  400f4c:	ff000110 	.word	0xff000110
  400f50:	d65f03c0 	ret

0000000000400f54 <m5_quiesce>:
  400f54:	ff010110 	.word	0xff010110
  400f58:	d65f03c0 	ret

0000000000400f5c <m5_quiesce_ns>:
  400f5c:	ff020110 	.word	0xff020110
  400f60:	d65f03c0 	ret

0000000000400f64 <m5_quiesce_cycle>:
  400f64:	ff030110 	.word	0xff030110
  400f68:	d65f03c0 	ret

0000000000400f6c <m5_quiesce_time>:
  400f6c:	ff040110 	.word	0xff040110
  400f70:	d65f03c0 	ret

0000000000400f74 <m5_rpns>:
  400f74:	ff070110 	.word	0xff070110
  400f78:	d65f03c0 	ret

0000000000400f7c <m5_wake_cpu>:
  400f7c:	ff090110 	.word	0xff090110
  400f80:	d65f03c0 	ret

0000000000400f84 <m5_exit>:
  400f84:	ff210110 	.word	0xff210110
  400f88:	d65f03c0 	ret

0000000000400f8c <m5_fail>:
  400f8c:	ff220110 	.word	0xff220110
  400f90:	d65f03c0 	ret

0000000000400f94 <m5_init_param>:
  400f94:	ff300110 	.word	0xff300110
  400f98:	d65f03c0 	ret

0000000000400f9c <m5_load_symbol>:
  400f9c:	ff310110 	.word	0xff310110
  400fa0:	d65f03c0 	ret

0000000000400fa4 <m5_reset_stats>:
  400fa4:	ff400110 	.word	0xff400110
  400fa8:	d65f03c0 	ret

0000000000400fac <m5_dump_stats>:
  400fac:	ff410110 	.word	0xff410110
  400fb0:	d65f03c0 	ret

0000000000400fb4 <m5_dump_reset_stats>:
  400fb4:	ff420110 	.word	0xff420110
  400fb8:	d65f03c0 	ret

0000000000400fbc <m5_checkpoint>:
  400fbc:	ff430110 	.word	0xff430110
  400fc0:	d65f03c0 	ret

0000000000400fc4 <m5_read_file>:
  400fc4:	ff500110 	.word	0xff500110
  400fc8:	d65f03c0 	ret

0000000000400fcc <m5_write_file>:
  400fcc:	ff4f0110 	.word	0xff4f0110
  400fd0:	d65f03c0 	ret

0000000000400fd4 <m5_debug_break>:
  400fd4:	ff510110 	.word	0xff510110
  400fd8:	d65f03c0 	ret

0000000000400fdc <m5_switch_cpu>:
  400fdc:	ff520110 	.word	0xff520110
  400fe0:	d65f03c0 	ret

0000000000400fe4 <m5_add_symbol>:
  400fe4:	ff530110 	.word	0xff530110
  400fe8:	d65f03c0 	ret

0000000000400fec <m5_panic>:
  400fec:	ff540110 	.word	0xff540110
  400ff0:	d65f03c0 	ret

0000000000400ff4 <m5_work_begin>:
  400ff4:	ff5a0110 	.word	0xff5a0110
  400ff8:	d65f03c0 	ret

0000000000400ffc <m5_work_end>:
  400ffc:	ff5b0110 	.word	0xff5b0110
  401000:	d65f03c0 	ret

0000000000401004 <m5_dist_toggle_sync>:
  401004:	ff620110 	.word	0xff620110
  401008:	d65f03c0 	ret

000000000040100c <m5a_bsm>:
  40100c:	ff551110 	.word	0xff551110
  401010:	d65f03c0 	ret

0000000000401014 <m5a_esm>:
  401014:	ff552110 	.word	0xff552110
  401018:	d65f03c0 	ret

000000000040101c <m5a_begin>:
  40101c:	ff553110 	.word	0xff553110
  401020:	d65f03c0 	ret

0000000000401024 <m5a_end>:
  401024:	ff554110 	.word	0xff554110
  401028:	d65f03c0 	ret

000000000040102c <m5a_q>:
  40102c:	ff556110 	.word	0xff556110
  401030:	d65f03c0 	ret

0000000000401034 <m5a_dq>:
  401034:	ff557110 	.word	0xff557110
  401038:	d65f03c0 	ret

000000000040103c <m5a_wf>:
  40103c:	ff558110 	.word	0xff558110
  401040:	d65f03c0 	ret

0000000000401044 <m5a_we>:
  401044:	ff559110 	.word	0xff559110
  401048:	d65f03c0 	ret

000000000040104c <m5a_rq>:
  40104c:	ff55a110 	.word	0xff55a110
  401050:	d65f03c0 	ret

0000000000401054 <m5a_ws>:
  401054:	ff55b110 	.word	0xff55b110
  401058:	d65f03c0 	ret

000000000040105c <m5a_sq>:
  40105c:	ff55c110 	.word	0xff55c110
  401060:	d65f03c0 	ret

0000000000401064 <m5a_aq>:
  401064:	ff55d110 	.word	0xff55d110
  401068:	d65f03c0 	ret

000000000040106c <m5a_pq>:
  40106c:	ff55e110 	.word	0xff55e110
  401070:	d65f03c0 	ret

0000000000401074 <m5a_l>:
  401074:	ff55f110 	.word	0xff55f110
  401078:	d65f03c0 	ret

000000000040107c <m5a_identify>:
  40107c:	ff550110 	.word	0xff550110
  401080:	d65f03c0 	ret

0000000000401084 <m5a_getid>:
  401084:	ff551110 	.word	0xff551110
  401088:	d65f03c0 	ret
  40108c:	d503201f 	nop

0000000000401090 <__libc_start_main>:
  401090:	a9ab7bfd 	stp	x29, x30, [sp, #-336]!
  401094:	f0000267 	adrp	x7, 450000 <buffer_free+0x40>
  401098:	910003fd 	mov	x29, sp
  40109c:	a90603e2 	stp	x2, x0, [sp, #96]
  4010a0:	f944fce0 	ldr	x0, [x7, #2552]
  4010a4:	a90153f3 	stp	x19, x20, [sp, #16]
  4010a8:	aa0303f3 	mov	x19, x3
  4010ac:	a9025bf5 	stp	x21, x22, [sp, #32]
  4010b0:	aa0403f4 	mov	x20, x4
  4010b4:	aa0503f5 	mov	x21, x5
  4010b8:	a90363f7 	stp	x23, x24, [sp, #48]
  4010bc:	f90023f9 	str	x25, [sp, #64]
  4010c0:	b9005fe1 	str	w1, [sp, #92]
  4010c4:	52800001 	mov	w1, #0x0                   	// #0
  4010c8:	b4000080 	cbz	x0, 4010d8 <__libc_start_main+0x48>
  4010cc:	b9400000 	ldr	w0, [x0]
  4010d0:	7100001f 	cmp	w0, #0x0
  4010d4:	1a9f17e1 	cset	w1, eq  // eq = none
  4010d8:	f94033e5 	ldr	x5, [sp, #96]
  4010dc:	f0000c23 	adrp	x3, 588000 <initial+0x70>
  4010e0:	b9405fe0 	ldr	w0, [sp, #92]
  4010e4:	d0000824 	adrp	x4, 507000 <_dl_main_map+0xb0>
  4010e8:	90000422 	adrp	x2, 485000 <__FRAME_END__+0xfc98>
  4010ec:	b905a881 	str	w1, [x4, #1448]
  4010f0:	8b20cca0 	add	x0, x5, w0, sxtw #3
  4010f4:	f9077446 	str	x6, [x2, #3816]
  4010f8:	91002000 	add	x0, x0, #0x8
  4010fc:	f9023460 	str	x0, [x3, #1128]
  401100:	f8408401 	ldr	x1, [x0], #8
  401104:	b5ffffe1 	cbnz	x1, 401100 <__libc_start_main+0x70>
  401108:	94006b54 	bl	41be58 <_dl_aux_init>
  40110c:	f0000c21 	adrp	x1, 588000 <initial+0x70>
  401110:	f0000260 	adrp	x0, 450000 <buffer_free+0x40>
  401114:	f9475422 	ldr	x2, [x1, #3752]
  401118:	f9450000 	ldr	x0, [x0, #2560]
  40111c:	f100005f 	cmp	x2, #0x0
  401120:	fa400804 	ccmp	x0, #0x0, #0x4, eq  // eq = none
  401124:	540007a1 	b.ne	401218 <__libc_start_main+0x188>  // b.any
  401128:	94006e72 	bl	41caf0 <__libc_init_secure>
  40112c:	f0000c20 	adrp	x0, 588000 <initial+0x70>
  401130:	f9423400 	ldr	x0, [x0, #1128]
  401134:	940068c9 	bl	41b458 <__tunables_init>
  401138:	d2800002 	mov	x2, #0x0                   	// #0
  40113c:	9101c3e1 	add	x1, sp, #0x70
  401140:	52800080 	mov	w0, #0x4                   	// #4
  401144:	94006a51 	bl	41ba88 <__tunable_get_val>
  401148:	f9403bf6 	ldr	x22, [sp, #112]
  40114c:	b4000196 	cbz	x22, 40117c <__libc_start_main+0xec>
  401150:	f0000278 	adrp	x24, 450000 <buffer_free+0x40>
  401154:	91260318 	add	x24, x24, #0x980
  401158:	d2800017 	mov	x23, #0x0                   	// #0
  40115c:	d37ceee1 	lsl	x1, x23, #4
  401160:	aa1603e0 	mov	x0, x22
  401164:	f8786821 	ldr	x1, [x1, x24]
  401168:	94004fe6 	bl	415100 <strcmp>
  40116c:	34000fc0 	cbz	w0, 401364 <__libc_start_main+0x2d4>
  401170:	910006f7 	add	x23, x23, #0x1
  401174:	f1001eff 	cmp	x23, #0x7
  401178:	54ffff21 	b.ne	40115c <__libc_start_main+0xcc>  // b.any
  40117c:	f0000c20 	adrp	x0, 588000 <initial+0x70>
  401180:	f9424401 	ldr	x1, [x0, #1160]
  401184:	92750020 	and	x0, x1, #0x800
  401188:	36580041 	tbz	w1, #11, 401190 <__libc_start_main+0x100>
  40118c:	d5380000 	mrs	x0, midr_el1
  401190:	f0000c21 	adrp	x1, 588000 <initial+0x70>
  401194:	91124022 	add	x2, x1, #0x490
  401198:	f9024820 	str	x0, [x1, #1168]
  40119c:	d53b00e0 	mrs	x0, dczid_el0
  4011a0:	372000a0 	tbnz	w0, #4, 4011b4 <__libc_start_main+0x124>
  4011a4:	12000c00 	and	w0, w0, #0xf
  4011a8:	52800081 	mov	w1, #0x4                   	// #4
  4011ac:	1ac02020 	lsl	w0, w1, w0
  4011b0:	b9000840 	str	w0, [x2, #8]
  4011b4:	f0000c20 	adrp	x0, 588000 <initial+0x70>
  4011b8:	aa0003f8 	mov	x24, x0
  4011bc:	f0000c21 	adrp	x1, 588000 <initial+0x70>
  4011c0:	f0000262 	adrp	x2, 450000 <buffer_free+0x40>
  4011c4:	f9424400 	ldr	x0, [x0, #1160]
  4011c8:	f0000279 	adrp	x25, 450000 <buffer_free+0x40>
  4011cc:	f944f856 	ldr	x22, [x2, #2544]
  4011d0:	53165800 	ubfx	w0, w0, #22, #1
  4011d4:	39127020 	strb	w0, [x1, #1180]
  4011d8:	14000006 	b	4011f0 <__libc_start_main+0x160>
  4011dc:	f9424700 	ldr	x0, [x24, #1160]
  4011e0:	910062d6 	add	x22, x22, #0x18
  4011e4:	f85f82c1 	ldur	x1, [x22, #-8]
  4011e8:	d63f0020 	blr	x1
  4011ec:	f90002e0 	str	x0, [x23]
  4011f0:	f9450720 	ldr	x0, [x25, #2568]
  4011f4:	eb0002df 	cmp	x22, x0
  4011f8:	54000342 	b.cs	401260 <__libc_start_main+0x1d0>  // b.hs, b.nlast
  4011fc:	b9400ac0 	ldr	w0, [x22, #8]
  401200:	f94002d7 	ldr	x23, [x22]
  401204:	f110201f 	cmp	x0, #0x408
  401208:	54fffea0 	b.eq	4011dc <__libc_start_main+0x14c>  // b.none
  40120c:	f0000260 	adrp	x0, 450000 <buffer_free+0x40>
  401210:	9129a000 	add	x0, x0, #0xa68
  401214:	94002369 	bl	409fb8 <__libc_fatal>
  401218:	79406c02 	ldrh	w2, [x0, #54]
  40121c:	7100e05f 	cmp	w2, #0x38
  401220:	54000120 	b.eq	401244 <__libc_start_main+0x1b4>  // b.none
  401224:	f0000263 	adrp	x3, 450000 <buffer_free+0x40>
  401228:	f0000261 	adrp	x1, 450000 <buffer_free+0x40>
  40122c:	f0000260 	adrp	x0, 450000 <buffer_free+0x40>
  401230:	912b6063 	add	x3, x3, #0xad8
  401234:	91288021 	add	x1, x1, #0xa20
  401238:	528016c2 	mov	w2, #0xb6                  	// #182
  40123c:	9128e000 	add	x0, x0, #0xa38
  401240:	940001e4 	bl	4019d0 <__assert_fail>
  401244:	f9401002 	ldr	x2, [x0, #32]
  401248:	f0000c23 	adrp	x3, 588000 <initial+0x70>
  40124c:	79407004 	ldrh	w4, [x0, #56]
  401250:	f9077064 	str	x4, [x3, #3808]
  401254:	8b000040 	add	x0, x2, x0
  401258:	f9075420 	str	x0, [x1, #3752]
  40125c:	17ffffb3 	b	401128 <__libc_start_main+0x98>
  401260:	940000a8 	bl	401500 <__libc_setup_tls>
  401264:	90000420 	adrp	x0, 485000 <__FRAME_END__+0xfc98>
  401268:	d0000821 	adrp	x1, 507000 <_dl_main_map+0xb0>
  40126c:	90000422 	adrp	x2, 485000 <__FRAME_END__+0xfc98>
  401270:	f9473000 	ldr	x0, [x0, #3680]
  401274:	b945a821 	ldr	w1, [x1, #1448]
  401278:	f9400000 	ldr	x0, [x0]
  40127c:	9278dc00 	and	x0, x0, #0xffffffffffffff00
  401280:	f9046840 	str	x0, [x2, #2256]
  401284:	340007a1 	cbz	w1, 401378 <__libc_start_main+0x2e8>
  401288:	f0000260 	adrp	x0, 450000 <buffer_free+0x40>
  40128c:	f9450800 	ldr	x0, [x0, #2576]
  401290:	b4000040 	cbz	x0, 401298 <__libc_start_main+0x208>
  401294:	d503201f 	nop
  401298:	90000421 	adrp	x1, 485000 <__FRAME_END__+0xfc98>
  40129c:	90000420 	adrp	x0, 485000 <__FRAME_END__+0xfc98>
  4012a0:	f9473021 	ldr	x1, [x1, #3680]
  4012a4:	f9400421 	ldr	x1, [x1, #8]
  4012a8:	f9046c01 	str	x1, [x0, #2264]
  4012ac:	b40000b5 	cbz	x21, 4012c0 <__libc_start_main+0x230>
  4012b0:	aa1503e0 	mov	x0, x21
  4012b4:	d2800002 	mov	x2, #0x0                   	// #0
  4012b8:	d2800001 	mov	x1, #0x0                   	// #0
  4012bc:	94001583 	bl	4068c8 <__cxa_atexit>
  4012c0:	52800020 	mov	w0, #0x1                   	// #1
  4012c4:	94006e23 	bl	41cb50 <__libc_early_init>
  4012c8:	f0000c22 	adrp	x2, 588000 <initial+0x70>
  4012cc:	b9405fe0 	ldr	w0, [sp, #92]
  4012d0:	f94033e1 	ldr	x1, [sp, #96]
  4012d4:	f9423442 	ldr	x2, [x2, #1128]
  4012d8:	94006e20 	bl	41cb58 <__libc_init_first>
  4012dc:	b40000b4 	cbz	x20, 4012f0 <__libc_start_main+0x260>
  4012e0:	aa1403e0 	mov	x0, x20
  4012e4:	d2800002 	mov	x2, #0x0                   	// #0
  4012e8:	d2800001 	mov	x1, #0x0                   	// #0
  4012ec:	94001577 	bl	4068c8 <__cxa_atexit>
  4012f0:	90000420 	adrp	x0, 485000 <__FRAME_END__+0xfc98>
  4012f4:	b94ef000 	ldr	w0, [x0, #3824]
  4012f8:	35000780 	cbnz	w0, 4013e8 <__libc_start_main+0x358>
  4012fc:	b40000d3 	cbz	x19, 401314 <__libc_start_main+0x284>
  401300:	f0000c22 	adrp	x2, 588000 <initial+0x70>
  401304:	b9405fe0 	ldr	w0, [sp, #92]
  401308:	f94033e1 	ldr	x1, [sp, #96]
  40130c:	f9423442 	ldr	x2, [x2, #1128]
  401310:	d63f0260 	blr	x19
  401314:	d2800001 	mov	x1, #0x0                   	// #0
  401318:	d2800000 	mov	x0, #0x0                   	// #0
  40131c:	94006585 	bl	41a930 <_dl_debug_initialize>
  401320:	9101e3e0 	add	x0, sp, #0x78
  401324:	940011e7 	bl	405ac0 <_setjmp>
  401328:	35000440 	cbnz	w0, 4013b0 <__libc_start_main+0x320>
  40132c:	d53bd040 	mrs	x0, tpidr_el0
  401330:	f0000c21 	adrp	x1, 588000 <initial+0x70>
  401334:	d11c0000 	sub	x0, x0, #0x700
  401338:	9101e3e3 	add	x3, sp, #0x78
  40133c:	f9423422 	ldr	x2, [x1, #1128]
  401340:	f9408004 	ldr	x4, [x0, #256]
  401344:	f9008003 	str	x3, [x0, #256]
  401348:	f9407c03 	ldr	x3, [x0, #248]
  40134c:	a9130fe4 	stp	x4, x3, [sp, #304]
  401350:	b9405fe0 	ldr	w0, [sp, #92]
  401354:	f94033e1 	ldr	x1, [sp, #96]
  401358:	f94037e3 	ldr	x3, [sp, #104]
  40135c:	d63f0060 	blr	x3
  401360:	940014cc 	bl	406690 <exit>
  401364:	8b37d318 	add	x24, x24, w23, sxtw #4
  401368:	f9400700 	ldr	x0, [x24, #8]
  40136c:	b100041f 	cmn	x0, #0x1
  401370:	54fff101 	b.ne	401190 <__libc_start_main+0x100>  // b.any
  401374:	17ffff82 	b	40117c <__libc_start_main+0xec>
  401378:	94006d92 	bl	41c9c0 <_dl_discover_osversion>
  40137c:	37f80400 	tbnz	w0, #31, 4013fc <__libc_start_main+0x36c>
  401380:	f0000c21 	adrp	x1, 588000 <initial+0x70>
  401384:	b94f0021 	ldr	w1, [x1, #3840]
  401388:	35000341 	cbnz	w1, 4013f0 <__libc_start_main+0x360>
  40138c:	f0000c21 	adrp	x1, 588000 <initial+0x70>
  401390:	b90f0020 	str	w0, [x1, #3840]
  401394:	5280dfe1 	mov	w1, #0x6ff                 	// #1791
  401398:	72a00061 	movk	w1, #0x3, lsl #16
  40139c:	6b01001f 	cmp	w0, w1
  4013a0:	54fff74c 	b.gt	401288 <__libc_start_main+0x1f8>
  4013a4:	f0000260 	adrp	x0, 450000 <buffer_free+0x40>
  4013a8:	912a6000 	add	x0, x0, #0xa98
  4013ac:	94002303 	bl	409fb8 <__libc_fatal>
  4013b0:	d503201f 	nop
  4013b4:	f0000261 	adrp	x1, 450000 <buffer_free+0x40>
  4013b8:	12800000 	mov	w0, #0xffffffff            	// #-1
  4013bc:	f9450c21 	ldr	x1, [x1, #2584]
  4013c0:	94012650 	bl	44ad00 <__aarch64_ldadd4_acq>
  4013c4:	7100041f 	cmp	w0, #0x1
  4013c8:	540000c0 	b.eq	4013e0 <__libc_start_main+0x350>  // b.none
  4013cc:	d2800ba1 	mov	x1, #0x5d                  	// #93
  4013d0:	d2800000 	mov	x0, #0x0                   	// #0
  4013d4:	aa0103e8 	mov	x8, x1
  4013d8:	d4000001 	svc	#0x0
  4013dc:	17fffffd 	b	4013d0 <__libc_start_main+0x340>
  4013e0:	52800000 	mov	w0, #0x0                   	// #0
  4013e4:	940014ab 	bl	406690 <exit>
  4013e8:	9400003a 	bl	4014d0 <__libc_check_standard_fds>
  4013ec:	17ffffc4 	b	4012fc <__libc_start_main+0x26c>
  4013f0:	6b00003f 	cmp	w1, w0
  4013f4:	54fffd09 	b.ls	401394 <__libc_start_main+0x304>  // b.plast
  4013f8:	17ffffe5 	b	40138c <__libc_start_main+0x2fc>
  4013fc:	f0000260 	adrp	x0, 450000 <buffer_free+0x40>
  401400:	912ac000 	add	x0, x0, #0xab0
  401404:	940022ed 	bl	409fb8 <__libc_fatal>

0000000000401408 <check_one_fd>:
  401408:	a9b57bfd 	stp	x29, x30, [sp, #-176]!
  40140c:	910003fd 	mov	x29, sp
  401410:	a90153f3 	stp	x19, x20, [sp, #16]
  401414:	2a0103f4 	mov	w20, w1
  401418:	2a0003f3 	mov	w19, w0
  40141c:	52800021 	mov	w1, #0x1                   	// #1
  401420:	94005f5a 	bl	419188 <__fcntl64_nocancel>
  401424:	3100041f 	cmn	w0, #0x1
  401428:	54000080 	b.eq	401438 <check_one_fd+0x30>  // b.none
  40142c:	a94153f3 	ldp	x19, x20, [sp, #16]
  401430:	a8cb7bfd 	ldp	x29, x30, [sp], #176
  401434:	d65f03c0 	ret
  401438:	90000420 	adrp	x0, 485000 <__FRAME_END__+0xfc98>
  40143c:	f947c000 	ldr	x0, [x0, #3968]
  401440:	d53bd041 	mrs	x1, tpidr_el0
  401444:	b8606820 	ldr	w0, [x1, x0]
  401448:	7100241f 	cmp	w0, #0x9
  40144c:	54ffff01 	b.ne	40142c <check_one_fd+0x24>  // b.any
  401450:	f90013f5 	str	x21, [sp, #32]
  401454:	7140229f 	cmp	w20, #0x8, lsl #12
  401458:	54000301 	b.ne	4014b8 <check_one_fd+0xb0>  // b.any
  40145c:	f0000260 	adrp	x0, 450000 <buffer_free+0x40>
  401460:	912d4000 	add	x0, x0, #0xb50
  401464:	d2802075 	mov	x21, #0x103                 	// #259
  401468:	2a1403e1 	mov	w1, w20
  40146c:	52800002 	mov	w2, #0x0                   	// #0
  401470:	94005f5e 	bl	4191e8 <__open64_nocancel>
  401474:	6b00027f 	cmp	w19, w0
  401478:	540001a1 	b.ne	4014ac <check_one_fd+0xa4>  // b.any
  40147c:	2a1303e1 	mov	w1, w19
  401480:	9100c3e2 	add	x2, sp, #0x30
  401484:	52800000 	mov	w0, #0x0                   	// #0
  401488:	94005c9c 	bl	4186f8 <__fxstat>
  40148c:	35000100 	cbnz	w0, 4014ac <check_one_fd+0xa4>
  401490:	b94043e0 	ldr	w0, [sp, #64]
  401494:	12140c00 	and	w0, w0, #0xf000
  401498:	7140081f 	cmp	w0, #0x2, lsl #12
  40149c:	54000081 	b.ne	4014ac <check_one_fd+0xa4>  // b.any
  4014a0:	f9402be0 	ldr	x0, [sp, #80]
  4014a4:	eb15001f 	cmp	x0, x21
  4014a8:	54000100 	b.eq	4014c8 <check_one_fd+0xc0>  // b.none
  4014ac:	d4207d00 	brk	#0x3e8
  4014b0:	d4207d00 	brk	#0x3e8
  4014b4:	17fffffe 	b	4014ac <check_one_fd+0xa4>
  4014b8:	f0000260 	adrp	x0, 450000 <buffer_free+0x40>
  4014bc:	d28020f5 	mov	x21, #0x107                 	// #263
  4014c0:	912d0000 	add	x0, x0, #0xb40
  4014c4:	17ffffe9 	b	401468 <check_one_fd+0x60>
  4014c8:	f94013f5 	ldr	x21, [sp, #32]
  4014cc:	17ffffd8 	b	40142c <check_one_fd+0x24>

00000000004014d0 <__libc_check_standard_fds>:
  4014d0:	a9bf7bfd 	stp	x29, x30, [sp, #-16]!
  4014d4:	52900021 	mov	w1, #0x8001                	// #32769
  4014d8:	52800000 	mov	w0, #0x0                   	// #0
  4014dc:	910003fd 	mov	x29, sp
  4014e0:	97ffffca 	bl	401408 <check_one_fd>
  4014e4:	52900001 	mov	w1, #0x8000                	// #32768
  4014e8:	52800020 	mov	w0, #0x1                   	// #1
  4014ec:	97ffffc7 	bl	401408 <check_one_fd>
  4014f0:	a8c17bfd 	ldp	x29, x30, [sp], #16
  4014f4:	52900001 	mov	w1, #0x8000                	// #32768
  4014f8:	52800040 	mov	w0, #0x2                   	// #2
  4014fc:	17ffffc3 	b	401408 <check_one_fd>

0000000000401500 <__libc_setup_tls>:
  401500:	a9b97bfd 	stp	x29, x30, [sp, #-112]!
  401504:	f0000c20 	adrp	x0, 588000 <initial+0x70>
  401508:	d0000821 	adrp	x1, 507000 <_dl_main_map+0xb0>
  40150c:	910003fd 	mov	x29, sp
  401510:	f9475400 	ldr	x0, [x0, #3752]
  401514:	a90153f3 	stp	x19, x20, [sp, #16]
  401518:	a9025bf5 	stp	x21, x22, [sp, #32]
  40151c:	a90363f7 	stp	x23, x24, [sp, #48]
  401520:	a9046bf9 	stp	x25, x26, [sp, #64]
  401524:	a90573fb 	stp	x27, x28, [sp, #80]
  401528:	6d0627e8 	stp	d8, d9, [sp, #96]
  40152c:	f9426c35 	ldr	x21, [x1, #1240]
  401530:	b4000c80 	cbz	x0, 4016c0 <__libc_setup_tls+0x1c0>
  401534:	f0000c21 	adrp	x1, 588000 <initial+0x70>
  401538:	f9477021 	ldr	x1, [x1, #3808]
  40153c:	d37df022 	lsl	x2, x1, #3
  401540:	cb010042 	sub	x2, x2, x1
  401544:	8b020c02 	add	x2, x0, x2, lsl #3
  401548:	eb02001f 	cmp	x0, x2
  40154c:	540000a3 	b.cc	401560 <__libc_setup_tls+0x60>  // b.lo, b.ul, b.last
  401550:	1400005c 	b	4016c0 <__libc_setup_tls+0x1c0>
  401554:	9100e000 	add	x0, x0, #0x38
  401558:	eb02001f 	cmp	x0, x2
  40155c:	54000b22 	b.cs	4016c0 <__libc_setup_tls+0x1c0>  // b.hs, b.nlast
  401560:	b9400001 	ldr	w1, [x0]
  401564:	71001c3f 	cmp	w1, #0x7
  401568:	54ffff61 	b.ne	401554 <__libc_setup_tls+0x54>  // b.any
  40156c:	a942dc13 	ldp	x19, x23, [x0, #40]
  401570:	f94002ba 	ldr	x26, [x21]
  401574:	f9400801 	ldr	x1, [x0, #16]
  401578:	f10042ff 	cmp	x23, #0x10
  40157c:	8b01035a 	add	x26, x26, x1
  401580:	fd401008 	ldr	d8, [x0, #32]
  401584:	54000ba8 	b.hi	4016f8 <__libc_setup_tls+0x1f8>  // b.pmore
  401588:	d2800000 	mov	x0, #0x0                   	// #0
  40158c:	9400651f 	bl	41aa08 <_dl_tls_static_surplus_init>
  401590:	91004260 	add	x0, x19, #0x10
  401594:	b4000c17 	cbz	x23, 401714 <__libc_setup_tls+0x214>
  401598:	d28001f9 	mov	x25, #0xf                   	// #15
  40159c:	928001f8 	mov	x24, #0xfffffffffffffff0    	// #-16
  4015a0:	d280021b 	mov	x27, #0x10                  	// #16
  4015a4:	91003ef6 	add	x22, x23, #0xf
  4015a8:	aa1703fc 	mov	x28, x23
  4015ac:	9ad70ad6 	udiv	x22, x22, x23
  4015b0:	9b177ed6 	mul	x22, x22, x23
  4015b4:	9e6702c9 	fmov	d9, x22
  4015b8:	f0000c24 	adrp	x4, 588000 <initial+0x70>
  4015bc:	8b160000 	add	x0, x0, x22
  4015c0:	f946f881 	ldr	x1, [x4, #3568]
  4015c4:	911c0021 	add	x1, x1, #0x700
  4015c8:	8b000020 	add	x0, x1, x0
  4015cc:	94005f95 	bl	419420 <__sbrk>
  4015d0:	911c0014 	add	x20, x0, #0x700
  4015d4:	f0000c21 	adrp	x1, 588000 <initial+0x70>
  4015d8:	8b190294 	add	x20, x20, x25
  4015dc:	91274023 	add	x3, x1, #0x9d0
  4015e0:	d28007c2 	mov	x2, #0x3e                  	// #62
  4015e4:	8a180294 	and	x20, x20, x24
  4015e8:	f904e822 	str	x2, [x1, #2512]
  4015ec:	9e660102 	fmov	x2, d8
  4015f0:	8b160285 	add	x5, x20, x22
  4015f4:	a9027c65 	stp	x5, xzr, [x3, #32]
  4015f8:	aa0503e0 	mov	x0, x5
  4015fc:	aa1a03e1 	mov	x1, x26
  401600:	fd023ea9 	str	d9, [x21, #1144]
  401604:	97fffb07 	bl	400220 <.plt+0x10>
  401608:	f0000c20 	adrp	x0, 588000 <initial+0x70>
  40160c:	91278000 	add	x0, x0, #0x9e0
  401610:	f9000280 	str	x0, [x20]
  401614:	d51bd054 	msr	tpidr_el0, x20
  401618:	8b170260 	add	x0, x19, x23
  40161c:	f10002ff 	cmp	x23, #0x0
  401620:	d1000400 	sub	x0, x0, #0x1
  401624:	f90232b3 	str	x19, [x21, #1120]
  401628:	9a931013 	csel	x19, x0, x19, ne  // ne = any
  40162c:	f0000c24 	adrp	x4, 588000 <initial+0x70>
  401630:	d0000c23 	adrp	x3, 587000 <temp+0x7f5e0>
  401634:	91288062 	add	x2, x3, #0xa20
  401638:	f946f880 	ldr	x0, [x4, #3568]
  40163c:	f0000c21 	adrp	x1, 588000 <initial+0x70>
  401640:	9adc0a73 	udiv	x19, x19, x28
  401644:	f0000c28 	adrp	x8, 588000 <initial+0x70>
  401648:	91003c00 	add	x0, x0, #0xf
  40164c:	f0000c27 	adrp	x7, 588000 <initial+0x70>
  401650:	f0000c26 	adrp	x6, 588000 <initial+0x70>
  401654:	f0000c25 	adrp	x5, 588000 <initial+0x70>
  401658:	f904e11b 	str	x27, [x8, #2496]
  40165c:	f0000c24 	adrp	x4, 588000 <initial+0x70>
  401660:	9b1c5a73 	madd	x19, x19, x28, x22
  401664:	f9001455 	str	x21, [x2, #40]
  401668:	f904d833 	str	x19, [x1, #2480]
  40166c:	d2800021 	mov	x1, #0x1                   	// #1
  401670:	8b130000 	add	x0, x0, x19
  401674:	f9022aba 	str	x26, [x21, #1104]
  401678:	fd022ea8 	str	d8, [x21, #1112]
  40167c:	927cec00 	and	x0, x0, #0xfffffffffffffff0
  401680:	f90236b7 	str	x23, [x21, #1128]
  401684:	a94153f3 	ldp	x19, x20, [sp, #16]
  401688:	f906ecc2 	str	x2, [x6, #3544]
  40168c:	a94363f7 	ldp	x23, x24, [sp, #48]
  401690:	d2800806 	mov	x6, #0x40                  	// #64
  401694:	a9446bf9 	ldp	x25, x26, [sp, #64]
  401698:	f9051066 	str	x6, [x3, #2592]
  40169c:	a94573fb 	ldp	x27, x28, [sp, #80]
  4016a0:	f906e8e0 	str	x0, [x7, #3536]
  4016a4:	6d4627e8 	ldp	d8, d9, [sp, #96]
  4016a8:	f90242a1 	str	x1, [x21, #1152]
  4016ac:	f904e4a1 	str	x1, [x5, #2504]
  4016b0:	f906fc81 	str	x1, [x4, #3576]
  4016b4:	a9425bf5 	ldp	x21, x22, [sp, #32]
  4016b8:	a8c77bfd 	ldp	x29, x30, [sp], #112
  4016bc:	d65f03c0 	ret
  4016c0:	d2800000 	mov	x0, #0x0                   	// #0
  4016c4:	940064d1 	bl	41aa08 <_dl_tls_static_surplus_init>
  4016c8:	d2800200 	mov	x0, #0x10                  	// #16
  4016cc:	d28001f9 	mov	x25, #0xf                   	// #15
  4016d0:	928001f8 	mov	x24, #0xfffffffffffffff0    	// #-16
  4016d4:	d2800017 	mov	x23, #0x0                   	// #0
  4016d8:	aa0003f6 	mov	x22, x0
  4016dc:	9e670009 	fmov	d9, x0
  4016e0:	aa0003fb 	mov	x27, x0
  4016e4:	d280001a 	mov	x26, #0x0                   	// #0
  4016e8:	9e6703e8 	fmov	d8, xzr
  4016ec:	d2800013 	mov	x19, #0x0                   	// #0
  4016f0:	d280003c 	mov	x28, #0x1                   	// #1
  4016f4:	17ffffb1 	b	4015b8 <__libc_setup_tls+0xb8>
  4016f8:	d2800000 	mov	x0, #0x0                   	// #0
  4016fc:	940064c3 	bl	41aa08 <_dl_tls_static_surplus_init>
  401700:	cb1703f8 	neg	x24, x23
  401704:	d10006f9 	sub	x25, x23, #0x1
  401708:	8b170260 	add	x0, x19, x23
  40170c:	aa1703fb 	mov	x27, x23
  401710:	17ffffa5 	b	4015a4 <__libc_setup_tls+0xa4>
  401714:	d2800216 	mov	x22, #0x10                  	// #16
  401718:	d28001f9 	mov	x25, #0xf                   	// #15
  40171c:	9e6702c9 	fmov	d9, x22
  401720:	aa1603fb 	mov	x27, x22
  401724:	928001f8 	mov	x24, #0xfffffffffffffff0    	// #-16
  401728:	d280003c 	mov	x28, #0x1                   	// #1
  40172c:	17ffffa3 	b	4015b8 <__libc_setup_tls+0xb8>

0000000000401730 <__tls_get_addr>:
  401730:	d53bd041 	mrs	x1, tpidr_el0
  401734:	f9400400 	ldr	x0, [x0, #8]
  401738:	f9400021 	ldr	x1, [x1]
  40173c:	f9400821 	ldr	x1, [x1, #16]
  401740:	8b000020 	add	x0, x1, x0
  401744:	d65f03c0 	ret

0000000000401748 <__libc_csu_init>:
  401748:	a9bc7bfd 	stp	x29, x30, [sp, #-64]!
  40174c:	910003fd 	mov	x29, sp
  401750:	a90363f7 	stp	x23, x24, [sp, #48]
  401754:	90000437 	adrp	x23, 485000 <__FRAME_END__+0xfc98>
  401758:	90000438 	adrp	x24, 485000 <__FRAME_END__+0xfc98>
  40175c:	912302f7 	add	x23, x23, #0x8c0
  401760:	91230318 	add	x24, x24, #0x8c0
  401764:	cb1802f7 	sub	x23, x23, x24
  401768:	a90153f3 	stp	x19, x20, [sp, #16]
  40176c:	2a0003f4 	mov	w20, w0
  401770:	a9025bf5 	stp	x21, x22, [sp, #32]
  401774:	9343fef7 	asr	x23, x23, #3
  401778:	aa0103f5 	mov	x21, x1
  40177c:	aa0203f6 	mov	x22, x2
  401780:	b4000157 	cbz	x23, 4017a8 <__libc_csu_init+0x60>
  401784:	d2800013 	mov	x19, #0x0                   	// #0
  401788:	f8737b03 	ldr	x3, [x24, x19, lsl #3]
  40178c:	aa1603e2 	mov	x2, x22
  401790:	91000673 	add	x19, x19, #0x1
  401794:	aa1503e1 	mov	x1, x21
  401798:	2a1403e0 	mov	w0, w20
  40179c:	d63f0060 	blr	x3
  4017a0:	eb1302ff 	cmp	x23, x19
  4017a4:	54ffff21 	b.ne	401788 <__libc_csu_init+0x40>  // b.any
  4017a8:	90000437 	adrp	x23, 485000 <__FRAME_END__+0xfc98>
  4017ac:	90000438 	adrp	x24, 485000 <__FRAME_END__+0xfc98>
  4017b0:	912322f7 	add	x23, x23, #0x8c8
  4017b4:	91230318 	add	x24, x24, #0x8c0
  4017b8:	cb1802f7 	sub	x23, x23, x24
  4017bc:	97fffa8f 	bl	4001f8 <_init>
  4017c0:	9343fef7 	asr	x23, x23, #3
  4017c4:	b4000177 	cbz	x23, 4017f0 <__libc_csu_init+0xa8>
  4017c8:	d2800013 	mov	x19, #0x0                   	// #0
  4017cc:	d503201f 	nop
  4017d0:	f8737b03 	ldr	x3, [x24, x19, lsl #3]
  4017d4:	aa1603e2 	mov	x2, x22
  4017d8:	91000673 	add	x19, x19, #0x1
  4017dc:	aa1503e1 	mov	x1, x21
  4017e0:	2a1403e0 	mov	w0, w20
  4017e4:	d63f0060 	blr	x3
  4017e8:	eb1302ff 	cmp	x23, x19
  4017ec:	54ffff21 	b.ne	4017d0 <__libc_csu_init+0x88>  // b.any
  4017f0:	a94153f3 	ldp	x19, x20, [sp, #16]
  4017f4:	a9425bf5 	ldp	x21, x22, [sp, #32]
  4017f8:	a94363f7 	ldp	x23, x24, [sp, #48]
  4017fc:	a8c47bfd 	ldp	x29, x30, [sp], #64
  401800:	d65f03c0 	ret

0000000000401804 <.annobin___libc_csu_fini.start>:
  401804:	d503201f 	nop

0000000000401808 <__libc_csu_fini>:
  401808:	a9be7bfd 	stp	x29, x30, [sp, #-32]!
  40180c:	90000420 	adrp	x0, 485000 <__FRAME_END__+0xfc98>
  401810:	91234000 	add	x0, x0, #0x8d0
  401814:	910003fd 	mov	x29, sp
  401818:	a90153f3 	stp	x19, x20, [sp, #16]
  40181c:	90000434 	adrp	x20, 485000 <__FRAME_END__+0xfc98>
  401820:	91232294 	add	x20, x20, #0x8c8
  401824:	cb140000 	sub	x0, x0, x20
  401828:	9343fc00 	asr	x0, x0, #3
  40182c:	b4000100 	cbz	x0, 40184c <__libc_csu_fini+0x44>
  401830:	d1000413 	sub	x19, x0, #0x1
  401834:	d503201f 	nop
  401838:	f8737a80 	ldr	x0, [x20, x19, lsl #3]
  40183c:	d1000673 	sub	x19, x19, #0x1
  401840:	d63f0000 	blr	x0
  401844:	b100067f 	cmn	x19, #0x1
  401848:	54ffff81 	b.ne	401838 <__libc_csu_fini+0x30>  // b.any
  40184c:	a94153f3 	ldp	x19, x20, [sp, #16]
  401850:	a8c27bfd 	ldp	x29, x30, [sp], #32
  401854:	14013c30 	b	450914 <_fini>

0000000000401858 <__assert_fail_base>:
  401858:	d101c3ff 	sub	sp, sp, #0x70
  40185c:	f0000266 	adrp	x6, 450000 <buffer_free+0x40>
  401860:	90000425 	adrp	x5, 485000 <__FRAME_END__+0xfc98>
  401864:	912340a5 	add	x5, x5, #0x8d0
  401868:	a9017bfd 	stp	x29, x30, [sp, #16]
  40186c:	910043fd 	add	x29, sp, #0x10
  401870:	a90253f3 	stp	x19, x20, [sp, #32]
  401874:	aa0003f4 	mov	x20, x0
  401878:	aa0403f3 	mov	x19, x4
  40187c:	f945b0c0 	ldr	x0, [x6, #2912]
  401880:	f94000a6 	ldr	x6, [x5]
  401884:	f90037e6 	str	x6, [sp, #104]
  401888:	d2800006 	mov	x6, #0x0                   	// #0
  40188c:	f9001bf5 	str	x21, [sp, #48]
  401890:	aa0103f5 	mov	x21, x1
  401894:	b4000100 	cbz	x0, 4018b4 <__assert_fail_base+0x5c>
  401898:	d2800001 	mov	x1, #0x0                   	// #0
  40189c:	52800020 	mov	w0, #0x1                   	// #1
  4018a0:	f90023e2 	str	x2, [sp, #64]
  4018a4:	b9004fe3 	str	w3, [sp, #76]
  4018a8:	d503201f 	nop
  4018ac:	b9404fe3 	ldr	w3, [sp, #76]
  4018b0:	f94023e2 	ldr	x2, [sp, #64]
  4018b4:	b0000821 	adrp	x1, 506000 <randArr+0x7ffd0>
  4018b8:	90000300 	adrp	x0, 461000 <step1_jumps.14991+0xa0>
  4018bc:	f0000267 	adrp	x7, 450000 <buffer_free+0x40>
  4018c0:	f9479c21 	ldr	x1, [x1, #3896]
  4018c4:	9113a000 	add	x0, x0, #0x4e8
  4018c8:	912da0e7 	add	x7, x7, #0xb68
  4018cc:	39400024 	ldrb	w4, [x1]
  4018d0:	7100009f 	cmp	w4, #0x0
  4018d4:	9a8010e8 	csel	x8, x7, x0, ne  // ne = any
  4018d8:	b4000753 	cbz	x19, 4019c0 <__assert_fail_base+0x168>
  4018dc:	910173e0 	add	x0, sp, #0x5c
  4018e0:	a90003f5 	stp	x21, x0, [sp]
  4018e4:	2a0303e5 	mov	w5, w3
  4018e8:	aa0203e4 	mov	x4, x2
  4018ec:	aa1303e6 	mov	x6, x19
  4018f0:	aa0103e2 	mov	x2, x1
  4018f4:	aa0803e3 	mov	x3, x8
  4018f8:	aa1403e1 	mov	x1, x20
  4018fc:	910183e0 	add	x0, sp, #0x60
  401900:	940015d2 	bl	407048 <___asprintf>
  401904:	37f80520 	tbnz	w0, #31, 4019a8 <__assert_fail_base+0x150>
  401908:	f94033e2 	ldr	x2, [sp, #96]
  40190c:	90000341 	adrp	x1, 469000 <_itowa_lower_digits+0xcb0>
  401910:	d2800000 	mov	x0, #0x0                   	// #0
  401914:	91186021 	add	x1, x1, #0x618
  401918:	94001670 	bl	4072d8 <__fxprintf>
  40191c:	b0000820 	adrp	x0, 506000 <randArr+0x7ffd0>
  401920:	f942ec00 	ldr	x0, [x0, #1496]
  401924:	940017d3 	bl	407870 <_IO_fflush>
  401928:	b0000820 	adrp	x0, 506000 <randArr+0x7ffd0>
  40192c:	b9405fe1 	ldr	w1, [sp, #92]
  401930:	d2800005 	mov	x5, #0x0                   	// #0
  401934:	12800004 	mov	w4, #0xffffffff            	// #-1
  401938:	f947a400 	ldr	x0, [x0, #3912]
  40193c:	52800443 	mov	w3, #0x22                  	// #34
  401940:	52800062 	mov	w2, #0x3                   	// #3
  401944:	0b000021 	add	w1, w1, w0
  401948:	4b0003e6 	neg	w6, w0
  40194c:	11001021 	add	w1, w1, #0x4
  401950:	d2800000 	mov	x0, #0x0                   	// #0
  401954:	0a060021 	and	w1, w1, w6
  401958:	b9005fe1 	str	w1, [sp, #92]
  40195c:	93407c21 	sxtw	x1, w1
  401960:	94005f06 	bl	419578 <__mmap64>
  401964:	aa0003f3 	mov	x19, x0
  401968:	b100041f 	cmn	x0, #0x1
  40196c:	54000180 	b.eq	40199c <__assert_fail_base+0x144>  // b.none
  401970:	b9405fe2 	ldr	w2, [sp, #92]
  401974:	f94033e1 	ldr	x1, [sp, #96]
  401978:	b8004402 	str	w2, [x0], #4
  40197c:	94004e21 	bl	415200 <strcpy>
  401980:	d0000c21 	adrp	x1, 587000 <temp+0x7f5e0>
  401984:	aa1303e0 	mov	x0, x19
  401988:	913dc021 	add	x1, x1, #0xf70
  40198c:	940124e9 	bl	44ad30 <__aarch64_swp8_acq>
  401990:	b4000060 	cbz	x0, 40199c <__assert_fail_base+0x144>
  401994:	b9400001 	ldr	w1, [x0]
  401998:	94005f12 	bl	4195e0 <__munmap>
  40199c:	f94033e0 	ldr	x0, [sp, #96]
  4019a0:	940048b2 	bl	413c68 <__free>
  4019a4:	97fffa27 	bl	400240 <abort>
  4019a8:	f0000261 	adrp	x1, 450000 <buffer_free+0x40>
  4019ac:	912e8021 	add	x1, x1, #0xba0
  4019b0:	d2800242 	mov	x2, #0x12                  	// #18
  4019b4:	52800040 	mov	w0, #0x2                   	// #2
  4019b8:	94005be2 	bl	418940 <__libc_write>
  4019bc:	97fffa21 	bl	400240 <abort>
  4019c0:	aa0003f3 	mov	x19, x0
  4019c4:	aa0003e7 	mov	x7, x0
  4019c8:	17ffffc5 	b	4018dc <__assert_fail_base+0x84>

00000000004019cc <.annobin___assert_fail.start>:
  4019cc:	d503201f 	nop

00000000004019d0 <__assert_fail>:
  4019d0:	a9bc7bfd 	stp	x29, x30, [sp, #-64]!
  4019d4:	910003fd 	mov	x29, sp
  4019d8:	a90153f3 	stp	x19, x20, [sp, #16]
  4019dc:	aa0003f3 	mov	x19, x0
  4019e0:	aa0103f4 	mov	x20, x1
  4019e4:	f00002e0 	adrp	x0, 460000 <translit_from_idx+0xae0>
  4019e8:	f0000261 	adrp	x1, 450000 <buffer_free+0x40>
  4019ec:	912b8000 	add	x0, x0, #0xae0
  4019f0:	912dc021 	add	x1, x1, #0xb70
  4019f4:	f90013f5 	str	x21, [sp, #32]
  4019f8:	2a0203f5 	mov	w21, w2
  4019fc:	528000a2 	mov	w2, #0x5                   	// #5
  401a00:	f9001fe3 	str	x3, [sp, #56]
  401a04:	94000007 	bl	401a20 <__dcgettext>
  401a08:	f9401fe3 	ldr	x3, [sp, #56]
  401a0c:	aa1403e2 	mov	x2, x20
  401a10:	aa1303e1 	mov	x1, x19
  401a14:	aa0303e4 	mov	x4, x3
  401a18:	2a1503e3 	mov	w3, w21
  401a1c:	97ffff8f 	bl	401858 <__assert_fail_base>

0000000000401a20 <__dcgettext>:
  401a20:	2a0203e5 	mov	w5, w2
  401a24:	d2800004 	mov	x4, #0x0                   	// #0
  401a28:	52800003 	mov	w3, #0x0                   	// #0
  401a2c:	d2800002 	mov	x2, #0x0                   	// #0
  401a30:	140002fa 	b	402618 <__dcigettext>

0000000000401a34 <.annobin___dcgettext.end>:
  401a34:	d503201f 	nop

0000000000401a38 <plural_eval>:
  401a38:	a9bd7bfd 	stp	x29, x30, [sp, #-48]!
  401a3c:	910003fd 	mov	x29, sp
  401a40:	a90153f3 	stp	x19, x20, [sp, #16]
  401a44:	aa0003f3 	mov	x19, x0
  401a48:	f90013f5 	str	x21, [sp, #32]
  401a4c:	aa0103f5 	mov	x21, x1
  401a50:	b9400260 	ldr	w0, [x19]
  401a54:	7100041f 	cmp	w0, #0x1
  401a58:	54000220 	b.eq	401a9c <plural_eval+0x64>  // b.none
  401a5c:	5400034d 	b.le	401ac4 <plural_eval+0x8c>
  401a60:	aa1503e1 	mov	x1, x21
  401a64:	7100081f 	cmp	w0, #0x2
  401a68:	54000460 	b.eq	401af4 <plural_eval+0xbc>  // b.none
  401a6c:	71000c1f 	cmp	w0, #0x3
  401a70:	54000361 	b.ne	401adc <plural_eval+0xa4>  // b.any
  401a74:	f9400660 	ldr	x0, [x19, #8]
  401a78:	97fffff0 	bl	401a38 <plural_eval>
  401a7c:	f100001f 	cmp	x0, #0x0
  401a80:	1a9f17e0 	cset	w0, eq  // eq = none
  401a84:	11000400 	add	w0, w0, #0x1
  401a88:	8b20ce73 	add	x19, x19, w0, sxtw #3
  401a8c:	f9400673 	ldr	x19, [x19, #8]
  401a90:	b9400260 	ldr	w0, [x19]
  401a94:	7100041f 	cmp	w0, #0x1
  401a98:	54fffe21 	b.ne	401a5c <plural_eval+0x24>  // b.any
  401a9c:	f9400660 	ldr	x0, [x19, #8]
  401aa0:	aa1503e1 	mov	x1, x21
  401aa4:	97ffffe5 	bl	401a38 <plural_eval>
  401aa8:	f100001f 	cmp	x0, #0x0
  401aac:	9a9f17f4 	cset	x20, eq  // eq = none
  401ab0:	aa1403e0 	mov	x0, x20
  401ab4:	a94153f3 	ldp	x19, x20, [sp, #16]
  401ab8:	f94013f5 	ldr	x21, [sp, #32]
  401abc:	a8c37bfd 	ldp	x29, x30, [sp], #48
  401ac0:	d65f03c0 	ret
  401ac4:	350000c0 	cbnz	w0, 401adc <plural_eval+0xa4>
  401ac8:	b9400660 	ldr	w0, [x19, #4]
  401acc:	aa1503f4 	mov	x20, x21
  401ad0:	34ffff00 	cbz	w0, 401ab0 <plural_eval+0x78>
  401ad4:	7100041f 	cmp	w0, #0x1
  401ad8:	54000420 	b.eq	401b5c <plural_eval+0x124>  // b.none
  401adc:	d2800014 	mov	x20, #0x0                   	// #0
  401ae0:	aa1403e0 	mov	x0, x20
  401ae4:	a94153f3 	ldp	x19, x20, [sp, #16]
  401ae8:	f94013f5 	ldr	x21, [sp, #32]
  401aec:	a8c37bfd 	ldp	x29, x30, [sp], #48
  401af0:	d65f03c0 	ret
  401af4:	f9400660 	ldr	x0, [x19, #8]
  401af8:	97ffffd0 	bl	401a38 <plural_eval>
  401afc:	aa0003f4 	mov	x20, x0
  401b00:	b9400660 	ldr	w0, [x19, #4]
  401b04:	71003c1f 	cmp	w0, #0xf
  401b08:	540002e0 	b.eq	401b64 <plural_eval+0x12c>  // b.none
  401b0c:	7100381f 	cmp	w0, #0xe
  401b10:	54000760 	b.eq	401bfc <plural_eval+0x1c4>  // b.none
  401b14:	f9400a60 	ldr	x0, [x19, #16]
  401b18:	aa1503e1 	mov	x1, x21
  401b1c:	97ffffc7 	bl	401a38 <plural_eval>
  401b20:	aa0003f5 	mov	x21, x0
  401b24:	b9400660 	ldr	w0, [x19, #4]
  401b28:	7100201f 	cmp	w0, #0x8
  401b2c:	54000960 	b.eq	401c58 <plural_eval+0x220>  // b.none
  401b30:	54000348 	b.hi	401b98 <plural_eval+0x160>  // b.pmore
  401b34:	7100141f 	cmp	w0, #0x5
  401b38:	54000880 	b.eq	401c48 <plural_eval+0x210>  // b.none
  401b3c:	540001a8 	b.hi	401b70 <plural_eval+0x138>  // b.pmore
  401b40:	71000c1f 	cmp	w0, #0x3
  401b44:	540007e0 	b.eq	401c40 <plural_eval+0x208>  // b.none
  401b48:	7100101f 	cmp	w0, #0x4
  401b4c:	54fffc81 	b.ne	401adc <plural_eval+0xa4>  // b.any
  401b50:	b4000655 	cbz	x21, 401c18 <plural_eval+0x1e0>
  401b54:	9ad50a94 	udiv	x20, x20, x21
  401b58:	17ffffd6 	b	401ab0 <plural_eval+0x78>
  401b5c:	f9400674 	ldr	x20, [x19, #8]
  401b60:	17ffffd4 	b	401ab0 <plural_eval+0x78>
  401b64:	b40004f4 	cbz	x20, 401c00 <plural_eval+0x1c8>
  401b68:	d2800034 	mov	x20, #0x1                   	// #1
  401b6c:	17ffffd1 	b	401ab0 <plural_eval+0x78>
  401b70:	7100181f 	cmp	w0, #0x6
  401b74:	540007e0 	b.eq	401c70 <plural_eval+0x238>  // b.none
  401b78:	cb150294 	sub	x20, x20, x21
  401b7c:	71001c1f 	cmp	w0, #0x7
  401b80:	54fffae1 	b.ne	401adc <plural_eval+0xa4>  // b.any
  401b84:	aa1403e0 	mov	x0, x20
  401b88:	a94153f3 	ldp	x19, x20, [sp, #16]
  401b8c:	f94013f5 	ldr	x21, [sp, #32]
  401b90:	a8c37bfd 	ldp	x29, x30, [sp], #48
  401b94:	d65f03c0 	ret
  401b98:	71002c1f 	cmp	w0, #0xb
  401b9c:	54000460 	b.eq	401c28 <plural_eval+0x1f0>  // b.none
  401ba0:	54000188 	b.hi	401bd0 <plural_eval+0x198>  // b.pmore
  401ba4:	7100241f 	cmp	w0, #0x9
  401ba8:	54000460 	b.eq	401c34 <plural_eval+0x1fc>  // b.none
  401bac:	eb15029f 	cmp	x20, x21
  401bb0:	9a9f87f4 	cset	x20, ls  // ls = plast
  401bb4:	7100281f 	cmp	w0, #0xa
  401bb8:	54fff921 	b.ne	401adc <plural_eval+0xa4>  // b.any
  401bbc:	aa1403e0 	mov	x0, x20
  401bc0:	a94153f3 	ldp	x19, x20, [sp, #16]
  401bc4:	f94013f5 	ldr	x21, [sp, #32]
  401bc8:	a8c37bfd 	ldp	x29, x30, [sp], #48
  401bcc:	d65f03c0 	ret
  401bd0:	7100301f 	cmp	w0, #0xc
  401bd4:	54000480 	b.eq	401c64 <plural_eval+0x22c>  // b.none
  401bd8:	eb15029f 	cmp	x20, x21
  401bdc:	9a9f07f4 	cset	x20, ne  // ne = any
  401be0:	7100341f 	cmp	w0, #0xd
  401be4:	54fff7c1 	b.ne	401adc <plural_eval+0xa4>  // b.any
  401be8:	aa1403e0 	mov	x0, x20
  401bec:	a94153f3 	ldp	x19, x20, [sp, #16]
  401bf0:	f94013f5 	ldr	x21, [sp, #32]
  401bf4:	a8c37bfd 	ldp	x29, x30, [sp], #48
  401bf8:	d65f03c0 	ret
  401bfc:	b4fff5b4 	cbz	x20, 401ab0 <plural_eval+0x78>
  401c00:	f9400a60 	ldr	x0, [x19, #16]
  401c04:	aa1503e1 	mov	x1, x21
  401c08:	97ffff8c 	bl	401a38 <plural_eval>
  401c0c:	f100001f 	cmp	x0, #0x0
  401c10:	9a9f07f4 	cset	x20, ne  // ne = any
  401c14:	17ffffa7 	b	401ab0 <plural_eval+0x78>
  401c18:	52800100 	mov	w0, #0x8                   	// #8
  401c1c:	94000fd7 	bl	405b78 <raise>
  401c20:	9ad50a94 	udiv	x20, x20, x21
  401c24:	17ffffa3 	b	401ab0 <plural_eval+0x78>
  401c28:	eb15029f 	cmp	x20, x21
  401c2c:	9a9f37f4 	cset	x20, cs  // cs = hs, nlast
  401c30:	17ffffa0 	b	401ab0 <plural_eval+0x78>
  401c34:	eb15029f 	cmp	x20, x21
  401c38:	9a9f97f4 	cset	x20, hi  // hi = pmore
  401c3c:	17ffff9d 	b	401ab0 <plural_eval+0x78>
  401c40:	9b157e94 	mul	x20, x20, x21
  401c44:	17ffff9b 	b	401ab0 <plural_eval+0x78>
  401c48:	b4000195 	cbz	x21, 401c78 <plural_eval+0x240>
  401c4c:	9ad50a80 	udiv	x0, x20, x21
  401c50:	9b15d014 	msub	x20, x0, x21, x20
  401c54:	17ffff97 	b	401ab0 <plural_eval+0x78>
  401c58:	eb15029f 	cmp	x20, x21
  401c5c:	9a9f27f4 	cset	x20, cc  // cc = lo, ul, last
  401c60:	17ffff94 	b	401ab0 <plural_eval+0x78>
  401c64:	eb15029f 	cmp	x20, x21
  401c68:	9a9f17f4 	cset	x20, eq  // eq = none
  401c6c:	17ffff91 	b	401ab0 <plural_eval+0x78>
  401c70:	8b150294 	add	x20, x20, x21
  401c74:	17ffff8f 	b	401ab0 <plural_eval+0x78>
  401c78:	52800100 	mov	w0, #0x8                   	// #8
  401c7c:	94000fbf 	bl	405b78 <raise>
  401c80:	17fffff3 	b	401c4c <plural_eval+0x214>

0000000000401c84 <.annobin_plural_eval.end>:
  401c84:	d503201f 	nop

0000000000401c88 <transcmp>:
  401c88:	a9be7bfd 	stp	x29, x30, [sp, #-32]!
  401c8c:	910003fd 	mov	x29, sp
  401c90:	a90153f3 	stp	x19, x20, [sp, #16]
  401c94:	aa0003f4 	mov	x20, x0
  401c98:	aa0103f3 	mov	x19, x1
  401c9c:	f9401000 	ldr	x0, [x0, #32]
  401ca0:	b40002e0 	cbz	x0, 401cfc <transcmp+0x74>
  401ca4:	9100e280 	add	x0, x20, #0x38
  401ca8:	f9401261 	ldr	x1, [x19, #32]
  401cac:	b4000241 	cbz	x1, 401cf4 <transcmp+0x6c>
  401cb0:	9100e261 	add	x1, x19, #0x38
  401cb4:	94004d13 	bl	415100 <strcmp>
  401cb8:	35000180 	cbnz	w0, 401ce8 <transcmp+0x60>
  401cbc:	f9400261 	ldr	x1, [x19]
  401cc0:	f9400280 	ldr	x0, [x20]
  401cc4:	94004d0f 	bl	415100 <strcmp>
  401cc8:	35000100 	cbnz	w0, 401ce8 <transcmp+0x60>
  401ccc:	f9400a61 	ldr	x1, [x19, #16]
  401cd0:	f9400a80 	ldr	x0, [x20, #16]
  401cd4:	94004d0b 	bl	415100 <strcmp>
  401cd8:	35000080 	cbnz	w0, 401ce8 <transcmp+0x60>
  401cdc:	b9400a61 	ldr	w1, [x19, #8]
  401ce0:	b9400a80 	ldr	w0, [x20, #8]
  401ce4:	4b010000 	sub	w0, w0, w1
  401ce8:	a94153f3 	ldp	x19, x20, [sp, #16]
  401cec:	a8c27bfd 	ldp	x29, x30, [sp], #32
  401cf0:	d65f03c0 	ret
  401cf4:	f9401e61 	ldr	x1, [x19, #56]
  401cf8:	17ffffef 	b	401cb4 <transcmp+0x2c>
  401cfc:	f9401e80 	ldr	x0, [x20, #56]
  401d00:	17ffffea 	b	401ca8 <transcmp+0x20>

0000000000401d04 <.annobin_plural_lookup.isra.2.start>:
  401d04:	d503201f 	nop

0000000000401d08 <plural_lookup.isra.2>:
  401d08:	a9bd7bfd 	stp	x29, x30, [sp, #-48]!
  401d0c:	910003fd 	mov	x29, sp
  401d10:	a9025bf5 	stp	x21, x22, [sp, #32]
  401d14:	aa0003f6 	mov	x22, x0
  401d18:	aa0203f5 	mov	x21, x2
  401d1c:	f9405c00 	ldr	x0, [x0, #184]
  401d20:	a90153f3 	stp	x19, x20, [sp, #16]
  401d24:	aa0303f4 	mov	x20, x3
  401d28:	97ffff44 	bl	401a38 <plural_eval>
  401d2c:	aa0003f3 	mov	x19, x0
  401d30:	f94062c0 	ldr	x0, [x22, #192]
  401d34:	eb00027f 	cmp	x19, x0
  401d38:	540001a2 	b.cs	401d6c <plural_lookup.isra.2+0x64>  // b.hs, b.nlast
  401d3c:	8b1402b4 	add	x20, x21, x20
  401d40:	aa1503e2 	mov	x2, x21
  401d44:	d503201f 	nop
  401d48:	d1000673 	sub	x19, x19, #0x1
  401d4c:	aa0203e0 	mov	x0, x2
  401d50:	52800001 	mov	w1, #0x0                   	// #0
  401d54:	b100067f 	cmn	x19, #0x1
  401d58:	54000140 	b.eq	401d80 <plural_lookup.isra.2+0x78>  // b.none
  401d5c:	9400522d 	bl	416610 <__rawmemchr>
  401d60:	91000402 	add	x2, x0, #0x1
  401d64:	eb14005f 	cmp	x2, x20
  401d68:	54ffff03 	b.cc	401d48 <plural_lookup.isra.2+0x40>  // b.lo, b.ul, b.last
  401d6c:	aa1503e0 	mov	x0, x21
  401d70:	a94153f3 	ldp	x19, x20, [sp, #16]
  401d74:	a9425bf5 	ldp	x21, x22, [sp, #32]
  401d78:	a8c37bfd 	ldp	x29, x30, [sp], #48
  401d7c:	d65f03c0 	ret
  401d80:	aa0203f5 	mov	x21, x2
  401d84:	17fffffa 	b	401d6c <plural_lookup.isra.2+0x64>

0000000000401d88 <_nl_find_msg>:
  401d88:	a9b27bfd 	stp	x29, x30, [sp, #-224]!
  401d8c:	910003fd 	mov	x29, sp
  401d90:	a90153f3 	stp	x19, x20, [sp, #16]
  401d94:	90000434 	adrp	x20, 485000 <__FRAME_END__+0xfc98>
  401d98:	91234285 	add	x5, x20, #0x8d0
  401d9c:	fd0033e8 	str	d8, [sp, #96]
  401da0:	9e670048 	fmov	d8, x2
  401da4:	f94000a2 	ldr	x2, [x5]
  401da8:	f9006fa2 	str	x2, [x29, #216]
  401dac:	d2800002 	mov	x2, #0x0                   	// #0
  401db0:	a9025bf5 	stp	x21, x22, [sp, #32]
  401db4:	b9400802 	ldr	w2, [x0, #8]
  401db8:	a90363f7 	stp	x23, x24, [sp, #48]
  401dbc:	7100005f 	cmp	w2, #0x0
  401dc0:	a9046bf9 	stp	x25, x26, [sp, #64]
  401dc4:	a90573fb 	stp	x27, x28, [sp, #80]
  401dc8:	a90813a1 	stp	x1, x4, [x29, #128]
  401dcc:	b90093a3 	str	w3, [x29, #144]
  401dd0:	a90983a5 	stp	x5, x0, [x29, #152]
  401dd4:	5400108d 	b.le	401fe4 <_nl_find_msg+0x25c>
  401dd8:	f94053a0 	ldr	x0, [x29, #160]
  401ddc:	f940081b 	ldr	x27, [x0, #16]
  401de0:	b4000d5b 	cbz	x27, 401f88 <_nl_find_msg+0x200>
  401de4:	f9403360 	ldr	x0, [x27, #96]
  401de8:	b9402b73 	ldr	w19, [x27, #40]
  401dec:	b40009a0 	cbz	x0, 401f20 <_nl_find_msg+0x198>
  401df0:	9e660100 	fmov	x0, d8
  401df4:	94004de3 	bl	415580 <__strlen>
  401df8:	aa0003f8 	mov	x24, x0
  401dfc:	9e660100 	fmov	x0, d8
  401e00:	94000f1e 	bl	405a78 <__hash_string>
  401e04:	b9406b74 	ldr	w20, [x27, #104]
  401e08:	b9405b62 	ldr	w2, [x27, #88]
  401e0c:	b900abb8 	str	w24, [x29, #168]
  401e10:	92407f18 	and	x24, x24, #0xffffffff
  401e14:	51000841 	sub	w1, w2, #0x2
  401e18:	f9403375 	ldr	x21, [x27, #96]
  401e1c:	1ac10803 	udiv	w3, w0, w1
  401e20:	1ac2081c 	udiv	w28, w0, w2
  401e24:	1b018063 	msub	w3, w3, w1, w0
  401e28:	1100047a 	add	w26, w3, #0x1
  401e2c:	1b02839c 	msub	w28, w28, w2, w0
  401e30:	4b1a0059 	sub	w25, w2, w26
  401e34:	4b020357 	sub	w23, w26, w2
  401e38:	14000016 	b	401e90 <_nl_find_msg+0x108>
  401e3c:	b9401b68 	ldr	w8, [x27, #24]
  401e40:	d37df2c0 	lsl	x0, x22, #3
  401e44:	f9401b61 	ldr	x1, [x27, #48]
  401e48:	8b000029 	add	x9, x1, x0
  401e4c:	b8606820 	ldr	w0, [x1, x0]
  401e50:	34000be8 	cbz	w8, 401fcc <_nl_find_msg+0x244>
  401e54:	b940aba1 	ldr	w1, [x29, #168]
  401e58:	5ac00800 	rev	w0, w0
  401e5c:	6b00003f 	cmp	w1, w0
  401e60:	54000108 	b.hi	401e80 <_nl_find_msg+0xf8>  // b.pmore
  401e64:	b9400520 	ldr	w0, [x9, #4]
  401e68:	f9400361 	ldr	x1, [x27]
  401e6c:	5ac00800 	rev	w0, w0
  401e70:	8b000021 	add	x1, x1, x0
  401e74:	9e660100 	fmov	x0, d8
  401e78:	94004ca2 	bl	415100 <strcmp>
  401e7c:	34000300 	cbz	w0, 401edc <_nl_find_msg+0x154>
  401e80:	6b1c033f 	cmp	w25, w28
  401e84:	0b170380 	add	w0, w28, w23
  401e88:	0b1a039c 	add	w28, w28, w26
  401e8c:	1a80839c 	csel	w28, w28, w0, hi  // hi = pmore
  401e90:	b87c5aa1 	ldr	w1, [x21, w28, uxtw #2]
  401e94:	7100029f 	cmp	w20, #0x0
  401e98:	5ac00820 	rev	w0, w1
  401e9c:	1a811001 	csel	w1, w0, w1, ne  // ne = any
  401ea0:	34000741 	cbz	w1, 401f88 <_nl_find_msg+0x200>
  401ea4:	51000436 	sub	w22, w1, #0x1
  401ea8:	6b16027f 	cmp	w19, w22
  401eac:	54fffc88 	b.hi	401e3c <_nl_find_msg+0xb4>  // b.pmore
  401eb0:	4b1302c0 	sub	w0, w22, w19
  401eb4:	f9402761 	ldr	x1, [x27, #72]
  401eb8:	d37cec00 	lsl	x0, x0, #4
  401ebc:	8b000028 	add	x8, x1, x0
  401ec0:	f8606820 	ldr	x0, [x1, x0]
  401ec4:	eb18001f 	cmp	x0, x24
  401ec8:	54fffdc9 	b.ls	401e80 <_nl_find_msg+0xf8>  // b.plast
  401ecc:	9e660100 	fmov	x0, d8
  401ed0:	f9400501 	ldr	x1, [x8, #8]
  401ed4:	94004c8b 	bl	415100 <strcmp>
  401ed8:	35fffd40 	cbnz	w0, 401e80 <_nl_find_msg+0xf8>
  401edc:	aa1603fa 	mov	x26, x22
  401ee0:	2a1303f4 	mov	w20, w19
  401ee4:	eb14035f 	cmp	x26, x20
  401ee8:	54000823 	b.cc	401fec <_nl_find_msg+0x264>  // b.lo, b.ul, b.last
  401eec:	cb14035c 	sub	x28, x26, x20
  401ef0:	f9402b60 	ldr	x0, [x27, #80]
  401ef4:	d37cef9c 	lsl	x28, x28, #4
  401ef8:	8b1c0001 	add	x1, x0, x28
  401efc:	f87c6800 	ldr	x0, [x0, x28]
  401f00:	f90057a0 	str	x0, [x29, #168]
  401f04:	f9400436 	ldr	x22, [x1, #8]
  401f08:	b94093a0 	ldr	w0, [x29, #144]
  401f0c:	350008c0 	cbnz	w0, 402024 <_nl_find_msg+0x29c>
  401f10:	f94047a0 	ldr	x0, [x29, #136]
  401f14:	f94057a1 	ldr	x1, [x29, #168]
  401f18:	f9000001 	str	x1, [x0]
  401f1c:	1400001c 	b	401f8c <_nl_find_msg+0x204>
  401f20:	2a1303f4 	mov	w20, w19
  401f24:	d280001c 	mov	x28, #0x0                   	// #0
  401f28:	aa1403f7 	mov	x23, x20
  401f2c:	14000003 	b	401f38 <_nl_find_msg+0x1b0>
  401f30:	54fffda0 	b.eq	401ee4 <_nl_find_msg+0x15c>  // b.none
  401f34:	9100075c 	add	x28, x26, #0x1
  401f38:	eb1c02ff 	cmp	x23, x28
  401f3c:	54000269 	b.ls	401f88 <_nl_find_msg+0x200>  // b.plast
  401f40:	b9401b78 	ldr	w24, [x27, #24]
  401f44:	f9400379 	ldr	x25, [x27]
  401f48:	f9401b76 	ldr	x22, [x27, #48]
  401f4c:	8b170386 	add	x6, x28, x23
  401f50:	9e660100 	fmov	x0, d8
  401f54:	7100031f 	cmp	w24, #0x0
  401f58:	d341fcda 	lsr	x26, x6, #1
  401f5c:	8b1a0ec1 	add	x1, x22, x26, lsl #3
  401f60:	b9400421 	ldr	w1, [x1, #4]
  401f64:	5ac00824 	rev	w4, w1
  401f68:	1a840021 	csel	w1, w1, w4, eq  // eq = none
  401f6c:	8b010321 	add	x1, x25, x1
  401f70:	94004c64 	bl	415100 <strcmp>
  401f74:	7100001f 	cmp	w0, #0x0
  401f78:	54fffdca 	b.ge	401f30 <_nl_find_msg+0x1a8>  // b.tcont
  401f7c:	aa1a03f7 	mov	x23, x26
  401f80:	eb1a039f 	cmp	x28, x26
  401f84:	54fffe43 	b.cc	401f4c <_nl_find_msg+0x1c4>  // b.lo, b.ul, b.last
  401f88:	d2800016 	mov	x22, #0x0                   	// #0
  401f8c:	f9404fa1 	ldr	x1, [x29, #152]
  401f90:	aa1603e0 	mov	x0, x22
  401f94:	f9406fa2 	ldr	x2, [x29, #216]
  401f98:	f9400023 	ldr	x3, [x1]
  401f9c:	eb030042 	subs	x2, x2, x3
  401fa0:	d2800003 	mov	x3, #0x0                   	// #0
  401fa4:	54003301 	b.ne	402604 <_nl_find_msg+0x87c>  // b.any
  401fa8:	910003bf 	mov	sp, x29
  401fac:	a94153f3 	ldp	x19, x20, [sp, #16]
  401fb0:	a9425bf5 	ldp	x21, x22, [sp, #32]
  401fb4:	a94363f7 	ldp	x23, x24, [sp, #48]
  401fb8:	a9446bf9 	ldp	x25, x26, [sp, #64]
  401fbc:	a94573fb 	ldp	x27, x28, [sp, #80]
  401fc0:	fd4033e8 	ldr	d8, [sp, #96]
  401fc4:	a8ce7bfd 	ldp	x29, x30, [sp], #224
  401fc8:	d65f03c0 	ret
  401fcc:	b940aba1 	ldr	w1, [x29, #168]
  401fd0:	6b00003f 	cmp	w1, w0
  401fd4:	54fff568 	b.hi	401e80 <_nl_find_msg+0xf8>  // b.pmore
  401fd8:	b9400520 	ldr	w0, [x9, #4]
  401fdc:	f9400361 	ldr	x1, [x27]
  401fe0:	17ffffa4 	b	401e70 <_nl_find_msg+0xe8>
  401fe4:	94000403 	bl	402ff0 <_nl_load_domain>
  401fe8:	17ffff7c 	b	401dd8 <_nl_find_msg+0x50>
  401fec:	f9401f61 	ldr	x1, [x27, #56]
  401ff0:	d37df340 	lsl	x0, x26, #3
  401ff4:	b9401b62 	ldr	w2, [x27, #24]
  401ff8:	8b000023 	add	x3, x1, x0
  401ffc:	b8606839 	ldr	w25, [x1, x0]
  402000:	f9400376 	ldr	x22, [x27]
  402004:	b9400460 	ldr	w0, [x3, #4]
  402008:	340007e2 	cbz	w2, 402104 <_nl_find_msg+0x37c>
  40200c:	5ac00800 	rev	w0, w0
  402010:	5ac00b39 	rev	w25, w25
  402014:	8b0002d6 	add	x22, x22, x0
  402018:	11000720 	add	w0, w25, #0x1
  40201c:	f90057a0 	str	x0, [x29, #168]
  402020:	17ffffba 	b	401f08 <_nl_find_msg+0x180>
  402024:	f94043a0 	ldr	x0, [x29, #128]
  402028:	b4000540 	cbz	x0, 4020d0 <_nl_find_msg+0x348>
  40202c:	f9400817 	ldr	x23, [x0, #16]
  402030:	b4000517 	cbz	x23, 4020d0 <_nl_find_msg+0x348>
  402034:	d0000260 	adrp	x0, 450000 <buffer_free+0x40>
  402038:	f945dc00 	ldr	x0, [x0, #3000]
  40203c:	b4000060 	cbz	x0, 402048 <_nl_find_msg+0x2c0>
  402040:	91020360 	add	x0, x27, #0x80
  402044:	d503201f 	nop
  402048:	f9403f79 	ldr	x25, [x27, #120]
  40204c:	b4000659 	cbz	x25, 402114 <_nl_find_msg+0x38c>
  402050:	8b190720 	add	x0, x25, x25, lsl #1
  402054:	f9403b7c 	ldr	x28, [x27, #112]
  402058:	d37df000 	lsl	x0, x0, #3
  40205c:	d1006000 	sub	x0, x0, #0x18
  402060:	8b00039c 	add	x28, x28, x0
  402064:	14000003 	b	402070 <_nl_find_msg+0x2e8>
  402068:	d100639c 	sub	x28, x28, #0x18
  40206c:	b4000559 	cbz	x25, 402114 <_nl_find_msg+0x38c>
  402070:	f9400380 	ldr	x0, [x28]
  402074:	d1000739 	sub	x25, x25, #0x1
  402078:	aa1c03f8 	mov	x24, x28
  40207c:	aa1703e1 	mov	x1, x23
  402080:	94004c20 	bl	415100 <strcmp>
  402084:	35ffff20 	cbnz	w0, 402068 <_nl_find_msg+0x2e0>
  402088:	d0000260 	adrp	x0, 450000 <buffer_free+0x40>
  40208c:	f945e400 	ldr	x0, [x0, #3016]
  402090:	b4000060 	cbz	x0, 40209c <_nl_find_msg+0x314>
  402094:	91020360 	add	x0, x27, #0x80
  402098:	d503201f 	nop
  40209c:	f9400700 	ldr	x0, [x24, #8]
  4020a0:	b100041f 	cmn	x0, #0x1
  4020a4:	54fff360 	b.eq	401f10 <_nl_find_msg+0x188>  // b.none
  4020a8:	f9400b00 	ldr	x0, [x24, #16]
  4020ac:	b4001e80 	cbz	x0, 40247c <_nl_find_msg+0x6f4>
  4020b0:	b100041f 	cmn	x0, #0x1
  4020b4:	54001e00 	b.eq	402474 <_nl_find_msg+0x6ec>  // b.none
  4020b8:	f87a7800 	ldr	x0, [x0, x26, lsl #3]
  4020bc:	b40009a0 	cbz	x0, 4021f0 <_nl_find_msg+0x468>
  4020c0:	aa0003f6 	mov	x22, x0
  4020c4:	f84086c0 	ldr	x0, [x22], #8
  4020c8:	f90057a0 	str	x0, [x29, #168]
  4020cc:	17ffff91 	b	401f10 <_nl_find_msg+0x188>
  4020d0:	b0000c3c 	adrp	x28, 587000 <temp+0x7f5e0>
  4020d4:	9138c39c 	add	x28, x28, #0xe30
  4020d8:	b9401380 	ldr	w0, [x28, #16]
  4020dc:	340005c0 	cbz	w0, 402194 <_nl_find_msg+0x40c>
  4020e0:	f9400f97 	ldr	x23, [x28, #24]
  4020e4:	b5fffa97 	cbnz	x23, 402034 <_nl_find_msg+0x2ac>
  4020e8:	f0000400 	adrp	x0, 485000 <__FRAME_END__+0xfc98>
  4020ec:	f947bc00 	ldr	x0, [x0, #3960]
  4020f0:	d53bd041 	mrs	x1, tpidr_el0
  4020f4:	f8606820 	ldr	x0, [x1, x0]
  4020f8:	f9400000 	ldr	x0, [x0]
  4020fc:	f9405817 	ldr	x23, [x0, #176]
  402100:	17ffffcd 	b	402034 <_nl_find_msg+0x2ac>
  402104:	8b2042d6 	add	x22, x22, w0, uxtw
  402108:	11000720 	add	w0, w25, #0x1
  40210c:	f90057a0 	str	x0, [x29, #168]
  402110:	17ffff7e 	b	401f08 <_nl_find_msg+0x180>
  402114:	d0000260 	adrp	x0, 450000 <buffer_free+0x40>
  402118:	f945e400 	ldr	x0, [x0, #3016]
  40211c:	aa0003f9 	mov	x25, x0
  402120:	b4000060 	cbz	x0, 40212c <_nl_find_msg+0x3a4>
  402124:	91020360 	add	x0, x27, #0x80
  402128:	d503201f 	nop
  40212c:	d0000260 	adrp	x0, 450000 <buffer_free+0x40>
  402130:	f945e000 	ldr	x0, [x0, #3008]
  402134:	b4000060 	cbz	x0, 402140 <_nl_find_msg+0x3b8>
  402138:	91020360 	add	x0, x27, #0x80
  40213c:	d503201f 	nop
  402140:	a9475360 	ldp	x0, x20, [x27, #112]
  402144:	aa0003f5 	mov	x21, x0
  402148:	b4000c94 	cbz	x20, 4022d8 <_nl_find_msg+0x550>
  40214c:	8b140682 	add	x2, x20, x20, lsl #1
  402150:	aa1403e3 	mov	x3, x20
  402154:	8b020c02 	add	x2, x0, x2, lsl #3
  402158:	d100605c 	sub	x28, x2, #0x18
  40215c:	14000004 	b	40216c <_nl_find_msg+0x3e4>
  402160:	f9404ba3 	ldr	x3, [x29, #144]
  402164:	d100639c 	sub	x28, x28, #0x18
  402168:	b4000b83 	cbz	x3, 4022d8 <_nl_find_msg+0x550>
  40216c:	f9400380 	ldr	x0, [x28]
  402170:	d1000463 	sub	x3, x3, #0x1
  402174:	aa1c03f8 	mov	x24, x28
  402178:	aa1703e1 	mov	x1, x23
  40217c:	f9003fa3 	str	x3, [x29, #120]
  402180:	f9004ba3 	str	x3, [x29, #144]
  402184:	94004bdf 	bl	415100 <strcmp>
  402188:	35fffec0 	cbnz	w0, 402160 <_nl_find_msg+0x3d8>
  40218c:	b5fff859 	cbnz	x25, 402094 <_nl_find_msg+0x30c>
  402190:	17ffffc3 	b	40209c <_nl_find_msg+0x314>
  402194:	d0000260 	adrp	x0, 450000 <buffer_free+0x40>
  402198:	912f4000 	add	x0, x0, #0xbd0
  40219c:	9400106b 	bl	406348 <getenv>
  4021a0:	aa0003f8 	mov	x24, x0
  4021a4:	b4000060 	cbz	x0, 4021b0 <_nl_find_msg+0x428>
  4021a8:	39400001 	ldrb	w1, [x0]
  4021ac:	350000c1 	cbnz	w1, 4021c4 <_nl_find_msg+0x43c>
  4021b0:	f9400f97 	ldr	x23, [x28, #24]
  4021b4:	52800020 	mov	w0, #0x1                   	// #1
  4021b8:	b9001380 	str	w0, [x28, #16]
  4021bc:	b5fff3d7 	cbnz	x23, 402034 <_nl_find_msg+0x2ac>
  4021c0:	17ffffca 	b	4020e8 <_nl_find_msg+0x360>
  4021c4:	94004cef 	bl	415580 <__strlen>
  4021c8:	91000419 	add	x25, x0, #0x1
  4021cc:	aa1903e0 	mov	x0, x25
  4021d0:	94004512 	bl	413618 <__libc_malloc>
  4021d4:	aa0003f7 	mov	x23, x0
  4021d8:	b4000080 	cbz	x0, 4021e8 <_nl_find_msg+0x460>
  4021dc:	aa1903e2 	mov	x2, x25
  4021e0:	aa1803e1 	mov	x1, x24
  4021e4:	97fff80f 	bl	400220 <.plt+0x10>
  4021e8:	f9000f97 	str	x23, [x28, #24]
  4021ec:	17fffff2 	b	4021b4 <_nl_find_msg+0x42c>
  4021f0:	b0000c3c 	adrp	x28, 587000 <temp+0x7f5e0>
  4021f4:	9138c39c 	add	x28, x28, #0xe30
  4021f8:	91008393 	add	x19, x28, #0x20
  4021fc:	52800021 	mov	w1, #0x1                   	// #1
  402200:	aa1303e2 	mov	x2, x19
  402204:	94012277 	bl	44abe0 <__aarch64_cas4_acq>
  402208:	35001bc0 	cbnz	w0, 402580 <_nl_find_msg+0x7f8>
  40220c:	a9428780 	ldp	x0, x1, [x28, #40]
  402210:	52800017 	mov	w23, #0x0                   	// #0
  402214:	d281fe15 	mov	x21, #0xff0                 	// #4080
  402218:	91002000 	add	x0, x0, #0x8
  40221c:	a90b03b6 	stp	x22, x0, [x29, #176]
  402220:	f1001c3f 	cmp	x1, #0x7
  402224:	54000209 	b.ls	402264 <_nl_find_msg+0x4dc>  // b.plast
  402228:	d1002024 	sub	x4, x1, #0x8
  40222c:	910303a5 	add	x5, x29, #0xc0
  402230:	a94a8ba1 	ldp	x1, x2, [x29, #168]
  402234:	9102e3a3 	add	x3, x29, #0xb8
  402238:	f9400700 	ldr	x0, [x24, #8]
  40223c:	f9405fa7 	ldr	x7, [x29, #184]
  402240:	8b010042 	add	x2, x2, x1
  402244:	9102c3a1 	add	x1, x29, #0xb0
  402248:	8b0400e4 	add	x4, x7, x4
  40224c:	94006b59 	bl	41cfb0 <__gconv>
  402250:	721d781f 	tst	w0, #0xfffffffb
  402254:	54001580 	b.eq	402504 <_nl_find_msg+0x77c>  // b.none
  402258:	7100141f 	cmp	w0, #0x5
  40225c:	54001801 	b.ne	40255c <_nl_find_msg+0x7d4>  // b.any
  402260:	f9005bb6 	str	x22, [x29, #176]
  402264:	34000277 	cbz	w23, 4022b0 <_nl_find_msg+0x528>
  402268:	110006f7 	add	w23, w23, #0x1
  40226c:	f940079b 	ldr	x27, [x28, #8]
  402270:	53185ee1 	lsl	w1, w23, #8
  402274:	4b170021 	sub	w1, w1, w23
  402278:	aa1b03e0 	mov	x0, x27
  40227c:	531c6c21 	lsl	w1, w1, #4
  402280:	93407c33 	sxtw	x19, w1
  402284:	f9001b93 	str	x19, [x28, #48]
  402288:	aa1303e1 	mov	x1, x19
  40228c:	94004709 	bl	413eb0 <__libc_realloc>
  402290:	b4000cc0 	cbz	x0, 402428 <_nl_find_msg+0x6a0>
  402294:	d1002261 	sub	x1, x19, #0x8
  402298:	f9000780 	str	x0, [x28, #8]
  40229c:	91002002 	add	x2, x0, #0x8
  4022a0:	91004000 	add	x0, x0, #0x10
  4022a4:	a9028782 	stp	x2, x1, [x28, #40]
  4022a8:	f9005fa0 	str	x0, [x29, #184]
  4022ac:	17ffffdd 	b	402220 <_nl_find_msg+0x498>
  4022b0:	d281fe00 	mov	x0, #0xff0                 	// #4080
  4022b4:	f9001b95 	str	x21, [x28, #48]
  4022b8:	940044d8 	bl	413618 <__libc_malloc>
  4022bc:	b4000be0 	cbz	x0, 402438 <_nl_find_msg+0x6b0>
  4022c0:	f9400782 	ldr	x2, [x28, #8]
  4022c4:	d281fd01 	mov	x1, #0xfe8                 	// #4072
  4022c8:	52800037 	mov	w23, #0x1                   	// #1
  4022cc:	f9000002 	str	x2, [x0]
  4022d0:	f9000780 	str	x0, [x28, #8]
  4022d4:	17fffff2 	b	40229c <_nl_find_msg+0x514>
  4022d8:	9100069c 	add	x28, x20, #0x1
  4022dc:	aa1503e0 	mov	x0, x21
  4022e0:	8b1c079c 	add	x28, x28, x28, lsl #1
  4022e4:	d37df398 	lsl	x24, x28, #3
  4022e8:	b4000fd5 	cbz	x21, 4024e0 <_nl_find_msg+0x758>
  4022ec:	aa1803e1 	mov	x1, x24
  4022f0:	940046f0 	bl	413eb0 <__libc_realloc>
  4022f4:	aa0003fc 	mov	x28, x0
  4022f8:	b4000fdc 	cbz	x28, 4024f0 <_nl_find_msg+0x768>
  4022fc:	f9003b7c 	str	x28, [x27, #112]
  402300:	aa1703e0 	mov	x0, x23
  402304:	94004c85 	bl	415518 <__strdup>
  402308:	aa0003f7 	mov	x23, x0
  40230c:	b4000f20 	cbz	x0, 4024f0 <_nl_find_msg+0x768>
  402310:	d1006303 	sub	x3, x24, #0x18
  402314:	92800004 	mov	x4, #0xffffffffffffffff    	// #-1
  402318:	8b030398 	add	x24, x28, x3
  40231c:	f00002e2 	adrp	x2, 461000 <step1_jumps.14991+0xa0>
  402320:	f94043a1 	ldr	x1, [x29, #128]
  402324:	f8236b80 	str	x0, [x28, x3]
  402328:	f94053a0 	ldr	x0, [x29, #160]
  40232c:	f9000704 	str	x4, [x24, #8]
  402330:	9113a042 	add	x2, x2, #0x4e8
  402334:	52800003 	mov	w3, #0x0                   	// #0
  402338:	9102e3a4 	add	x4, x29, #0xb8
  40233c:	97fffe93 	bl	401d88 <_nl_find_msg>
  402340:	aa0003e1 	mov	x1, x0
  402344:	b100041f 	cmn	x0, #0x1
  402348:	54001400 	b.eq	4025c8 <_nl_find_msg+0x840>  // b.none
  40234c:	b4000620 	cbz	x0, 402410 <_nl_find_msg+0x688>
  402350:	d0000261 	adrp	x1, 450000 <buffer_free+0x40>
  402354:	912f8021 	add	x1, x1, #0xbe0
  402358:	94004e7e 	bl	415d50 <strstr>
  40235c:	b40005a0 	cbz	x0, 402410 <_nl_find_msg+0x688>
  402360:	91002015 	add	x21, x0, #0x8
  402364:	d0000261 	adrp	x1, 450000 <buffer_free+0x40>
  402368:	912fc021 	add	x1, x1, #0xbf0
  40236c:	aa1503e0 	mov	x0, x21
  402370:	94004c12 	bl	4153b8 <strcspn>
  402374:	91004001 	add	x1, x0, #0x10
  402378:	927cec21 	and	x1, x1, #0xfffffffffffffff0
  40237c:	910003e2 	mov	x2, sp
  402380:	9274cc23 	and	x3, x1, #0xfffffffffffff000
  402384:	cb2363e3 	sub	x3, sp, x3
  402388:	eb03005f 	cmp	x2, x3
  40238c:	540000c0 	b.eq	4023a4 <_nl_find_msg+0x61c>  // b.none
  402390:	d14007ff 	sub	sp, sp, #0x1, lsl #12
  402394:	910003e2 	mov	x2, sp
  402398:	eb03005f 	cmp	x2, x3
  40239c:	f907ffff 	str	xzr, [sp, #4088]
  4023a0:	54ffff81 	b.ne	402390 <_nl_find_msg+0x608>  // b.any
  4023a4:	f2402c23 	ands	x3, x1, #0xfff
  4023a8:	54000080 	b.eq	4023b8 <_nl_find_msg+0x630>  // b.none
  4023ac:	cb2363ff 	sub	sp, sp, x3
  4023b0:	d1002063 	sub	x3, x3, #0x8
  4023b4:	f8236bff 	str	xzr, [sp, x3]
  4023b8:	b4000041 	cbz	x1, 4023c0 <_nl_find_msg+0x638>
  4023bc:	f90003ff 	str	xzr, [sp]
  4023c0:	910003f4 	mov	x20, sp
  4023c4:	aa0003e2 	mov	x2, x0
  4023c8:	aa1503e1 	mov	x1, x21
  4023cc:	aa1403e0 	mov	x0, x20
  4023d0:	94004fb4 	bl	4162a0 <__mempcpy>
  4023d4:	3900001f 	strb	wzr, [x0]
  4023d8:	aa1403e1 	mov	x1, x20
  4023dc:	aa1703e2 	mov	x2, x23
  4023e0:	910303a0 	add	x0, x29, #0xc0
  4023e4:	94008aa7 	bl	424e80 <__gconv_create_spec>
  4023e8:	52800023 	mov	w3, #0x1                   	// #1
  4023ec:	91002301 	add	x1, x24, #0x8
  4023f0:	52800022 	mov	w2, #0x1                   	// #1
  4023f4:	910303a0 	add	x0, x29, #0xc0
  4023f8:	390343a3 	strb	w3, [x29, #208]
  4023fc:	94006a05 	bl	41cc10 <__gconv_open>
  402400:	2a0003f5 	mov	w21, w0
  402404:	910303a0 	add	x0, x29, #0xc0
  402408:	94008b4c 	bl	425138 <__gconv_destroy_spec>
  40240c:	35000cf5 	cbnz	w21, 4025a8 <_nl_find_msg+0x820>
  402410:	f9403f60 	ldr	x0, [x27, #120]
  402414:	f9000b1f 	str	xzr, [x24, #16]
  402418:	91000400 	add	x0, x0, #0x1
  40241c:	f9003f60 	str	x0, [x27, #120]
  402420:	b5ffe3b9 	cbnz	x25, 402094 <_nl_find_msg+0x30c>
  402424:	17ffff1e 	b	40209c <_nl_find_msg+0x314>
  402428:	f9400361 	ldr	x1, [x27]
  40242c:	aa1b03e0 	mov	x0, x27
  402430:	f9000781 	str	x1, [x28, #8]
  402434:	9400460d 	bl	413c68 <__free>
  402438:	a902ff9f 	stp	xzr, xzr, [x28, #40]
  40243c:	91008393 	add	x19, x28, #0x20
  402440:	aa1303e1 	mov	x1, x19
  402444:	52800000 	mov	w0, #0x0                   	// #0
  402448:	92800016 	mov	x22, #0xffffffffffffffff    	// #-1
  40244c:	94012251 	bl	44ad90 <__aarch64_swp4_rel>
  402450:	7100041f 	cmp	w0, #0x1
  402454:	54ffd9cd 	b.le	401f8c <_nl_find_msg+0x204>
  402458:	aa1303e0 	mov	x0, x19
  40245c:	d2801021 	mov	x1, #0x81                  	// #129
  402460:	d2800022 	mov	x2, #0x1                   	// #1
  402464:	d2800003 	mov	x3, #0x0                   	// #0
  402468:	d2800c48 	mov	x8, #0x62                  	// #98
  40246c:	d4000001 	svc	#0x0
  402470:	17fffec7 	b	401f8c <_nl_find_msg+0x204>
  402474:	92800016 	mov	x22, #0xffffffffffffffff    	// #-1
  402478:	17fffec5 	b	401f8c <_nl_find_msg+0x204>
  40247c:	b0000c3c 	adrp	x28, 587000 <temp+0x7f5e0>
  402480:	9138c39c 	add	x28, x28, #0xe30
  402484:	91008395 	add	x21, x28, #0x20
  402488:	52800021 	mov	w1, #0x1                   	// #1
  40248c:	aa1503e2 	mov	x2, x21
  402490:	940121d4 	bl	44abe0 <__aarch64_cas4_acq>
  402494:	350009e0 	cbnz	w0, 4025d0 <_nl_find_msg+0x848>
  402498:	f9400b00 	ldr	x0, [x24, #16]
  40249c:	b4000780 	cbz	x0, 40258c <_nl_find_msg+0x804>
  4024a0:	9100839c 	add	x28, x28, #0x20
  4024a4:	52800000 	mov	w0, #0x0                   	// #0
  4024a8:	aa1c03e1 	mov	x1, x28
  4024ac:	94012239 	bl	44ad90 <__aarch64_swp4_rel>
  4024b0:	7100041f 	cmp	w0, #0x1
  4024b4:	5400006c 	b.gt	4024c0 <_nl_find_msg+0x738>
  4024b8:	f9400b00 	ldr	x0, [x24, #16]
  4024bc:	17fffefd 	b	4020b0 <_nl_find_msg+0x328>
  4024c0:	aa1c03e0 	mov	x0, x28
  4024c4:	d2801021 	mov	x1, #0x81                  	// #129
  4024c8:	d2800022 	mov	x2, #0x1                   	// #1
  4024cc:	d2800003 	mov	x3, #0x0                   	// #0
  4024d0:	d2800c48 	mov	x8, #0x62                  	// #98
  4024d4:	d4000001 	svc	#0x0
  4024d8:	f9400b00 	ldr	x0, [x24, #16]
  4024dc:	17fffef5 	b	4020b0 <_nl_find_msg+0x328>
  4024e0:	aa1803e0 	mov	x0, x24
  4024e4:	9400444d 	bl	413618 <__libc_malloc>
  4024e8:	aa0003fc 	mov	x28, x0
  4024ec:	17ffff83 	b	4022f8 <_nl_find_msg+0x570>
  4024f0:	b4fffc39 	cbz	x25, 402474 <_nl_find_msg+0x6ec>
  4024f4:	91020360 	add	x0, x27, #0x80
  4024f8:	92800016 	mov	x22, #0xffffffffffffffff    	// #-1
  4024fc:	d503201f 	nop
  402500:	17fffea3 	b	401f8c <_nl_find_msg+0x204>
  402504:	a9428383 	ldp	x3, x0, [x28, #40]
  402508:	91008393 	add	x19, x28, #0x20
  40250c:	f9405fa1 	ldr	x1, [x29, #184]
  402510:	d37df355 	lsl	x21, x26, #3
  402514:	f9400b04 	ldr	x4, [x24, #16]
  402518:	cb030022 	sub	x2, x1, x3
  40251c:	cb020000 	sub	x0, x0, x2
  402520:	d1002042 	sub	x2, x2, #0x8
  402524:	92400805 	and	x5, x0, #0x7
  402528:	f9000062 	str	x2, [x3]
  40252c:	8b050021 	add	x1, x1, x5
  402530:	927df000 	and	x0, x0, #0xfffffffffffffff8
  402534:	f83a7883 	str	x3, [x4, x26, lsl #3]
  402538:	a9028381 	stp	x1, x0, [x28, #40]
  40253c:	aa1303e1 	mov	x1, x19
  402540:	52800000 	mov	w0, #0x0                   	// #0
  402544:	94012213 	bl	44ad90 <__aarch64_swp4_rel>
  402548:	7100041f 	cmp	w0, #0x1
  40254c:	540004ec 	b.gt	4025e8 <_nl_find_msg+0x860>
  402550:	f9400b00 	ldr	x0, [x24, #16]
  402554:	f8756800 	ldr	x0, [x0, x21]
  402558:	17fffeda 	b	4020c0 <_nl_find_msg+0x338>
  40255c:	9100839c 	add	x28, x28, #0x20
  402560:	52800000 	mov	w0, #0x0                   	// #0
  402564:	aa1c03e1 	mov	x1, x28
  402568:	d2800016 	mov	x22, #0x0                   	// #0
  40256c:	94012209 	bl	44ad90 <__aarch64_swp4_rel>
  402570:	7100041f 	cmp	w0, #0x1
  402574:	54ffd0cd 	b.le	401f8c <_nl_find_msg+0x204>
  402578:	aa1c03e0 	mov	x0, x28
  40257c:	17ffffb8 	b	40245c <_nl_find_msg+0x6d4>
  402580:	aa1303e0 	mov	x0, x19
  402584:	9400321d 	bl	40edf8 <__lll_lock_wait_private>
  402588:	17ffff21 	b	40220c <_nl_find_msg+0x484>
  40258c:	b9404360 	ldr	w0, [x27, #64]
  402590:	d2800101 	mov	x1, #0x8                   	// #8
  402594:	0b000260 	add	w0, w19, w0
  402598:	9400476e 	bl	414350 <__calloc>
  40259c:	b4000200 	cbz	x0, 4025dc <_nl_find_msg+0x854>
  4025a0:	f9000b00 	str	x0, [x24, #16]
  4025a4:	17ffff1a 	b	40220c <_nl_find_msg+0x484>
  4025a8:	310006bf 	cmn	w21, #0x1
  4025ac:	540002e0 	b.eq	402608 <_nl_find_msg+0x880>  // b.none
  4025b0:	b4000079 	cbz	x25, 4025bc <_nl_find_msg+0x834>
  4025b4:	91020360 	add	x0, x27, #0x80
  4025b8:	d503201f 	nop
  4025bc:	aa1703e0 	mov	x0, x23
  4025c0:	940045aa 	bl	413c68 <__free>
  4025c4:	d2800001 	mov	x1, #0x0                   	// #0
  4025c8:	aa0103f6 	mov	x22, x1
  4025cc:	17fffe70 	b	401f8c <_nl_find_msg+0x204>
  4025d0:	aa1503e0 	mov	x0, x21
  4025d4:	94003209 	bl	40edf8 <__lll_lock_wait_private>
  4025d8:	17ffffb0 	b	402498 <_nl_find_msg+0x710>
  4025dc:	92800000 	mov	x0, #0xffffffffffffffff    	// #-1
  4025e0:	f9000b00 	str	x0, [x24, #16]
  4025e4:	17ffffaf 	b	4024a0 <_nl_find_msg+0x718>
  4025e8:	aa1303e0 	mov	x0, x19
  4025ec:	d2801021 	mov	x1, #0x81                  	// #129
  4025f0:	d2800022 	mov	x2, #0x1                   	// #1
  4025f4:	d2800003 	mov	x3, #0x0                   	// #0
  4025f8:	d2800c48 	mov	x8, #0x62                  	// #98
  4025fc:	d4000001 	svc	#0x0
  402600:	17ffffd4 	b	402550 <_nl_find_msg+0x7c8>
  402604:	940060a1 	bl	41a888 <__stack_chk_fail>
  402608:	92800000 	mov	x0, #0xffffffffffffffff    	// #-1
  40260c:	f9000700 	str	x0, [x24, #8]
  402610:	17ffff80 	b	402410 <_nl_find_msg+0x688>

0000000000402614 <.annobin___dcigettext.start>:
  402614:	d503201f 	nop

0000000000402618 <__dcigettext>:
  402618:	a9ab7bfd 	stp	x29, x30, [sp, #-336]!
  40261c:	f0000406 	adrp	x6, 485000 <__FRAME_END__+0xfc98>
  402620:	912340c6 	add	x6, x6, #0x8d0
  402624:	910003fd 	mov	x29, sp
  402628:	f94000c7 	ldr	x7, [x6]
  40262c:	f900a7a7 	str	x7, [x29, #328]
  402630:	d2800007 	mov	x7, #0x0                   	// #0
  402634:	a90153f3 	stp	x19, x20, [sp, #16]
  402638:	a9025bf5 	stp	x21, x22, [sp, #32]
  40263c:	a90363f7 	stp	x23, x24, [sp, #48]
  402640:	a9046bf9 	stp	x25, x26, [sp, #64]
  402644:	a90573fb 	stp	x27, x28, [sp, #80]
  402648:	f90063a4 	str	x4, [x29, #192]
  40264c:	b900d7a3 	str	w3, [x29, #212]
  402650:	f9006fa6 	str	x6, [x29, #216]
  402654:	f9007fbf 	str	xzr, [x29, #248]
  402658:	6d0627e8 	stp	d8, d9, [sp, #96]
  40265c:	b4002aa1 	cbz	x1, 402bb0 <__dcigettext+0x598>
  402660:	710030bf 	cmp	w5, #0xc
  402664:	aa0103f7 	mov	x23, x1
  402668:	9e670048 	fmov	d8, x2
  40266c:	2a0503f9 	mov	w25, w5
  402670:	7a4698a4 	ccmp	w5, #0x6, #0x4, ls  // ls = plast
  402674:	54002600 	b.eq	402b34 <__dcigettext+0x51c>  // b.none
  402678:	f0000401 	adrp	x1, 485000 <__FRAME_END__+0xfc98>
  40267c:	f947c021 	ldr	x1, [x1, #3968]
  402680:	d53bd042 	mrs	x2, tpidr_el0
  402684:	aa0003f6 	mov	x22, x0
  402688:	d0000260 	adrp	x0, 450000 <buffer_free+0x40>
  40268c:	a90a8ba1 	stp	x1, x2, [x29, #168]
  402690:	f945dc13 	ldr	x19, [x0, #3000]
  402694:	b8616840 	ldr	w0, [x2, x1]
  402698:	b900d3a0 	str	w0, [x29, #208]
  40269c:	b4000093 	cbz	x19, 4026ac <__dcigettext+0x94>
  4026a0:	d0000c20 	adrp	x0, 588000 <initial+0x70>
  4026a4:	9113a000 	add	x0, x0, #0x4e8
  4026a8:	d503201f 	nop
  4026ac:	b0000c20 	adrp	x0, 587000 <temp+0x7f5e0>
  4026b0:	9138c000 	add	x0, x0, #0xe30
  4026b4:	f90067a0 	str	x0, [x29, #200]
  4026b8:	b4000073 	cbz	x19, 4026c4 <__dcigettext+0xac>
  4026bc:	9100e000 	add	x0, x0, #0x38
  4026c0:	d503201f 	nop
  4026c4:	90000821 	adrp	x1, 506000 <randArr+0x7ffd0>
  4026c8:	f10002df 	cmp	x22, #0x0
  4026cc:	2a1903e0 	mov	w0, w25
  4026d0:	b90113b9 	str	w25, [x29, #272]
  4026d4:	f9401821 	ldr	x1, [x1, #48]
  4026d8:	f90097bf 	str	xzr, [x29, #296]
  4026dc:	f900a3b7 	str	x23, [x29, #320]
  4026e0:	9a960036 	csel	x22, x1, x22, eq  // eq = none
  4026e4:	f90087b6 	str	x22, [x29, #264]
  4026e8:	940091b6 	bl	426dc0 <__current_locale_name>
  4026ec:	f9008fa0 	str	x0, [x29, #280]
  4026f0:	9e670009 	fmov	d9, x0
  4026f4:	b4000093 	cbz	x19, 402704 <__dcigettext+0xec>
  4026f8:	f94067a0 	ldr	x0, [x29, #200]
  4026fc:	9101c000 	add	x0, x0, #0x70
  402700:	d503201f 	nop
  402704:	f94067b3 	ldr	x19, [x29, #200]
  402708:	f0ffffe0 	adrp	x0, 401000 <m5_work_end+0x4>
  40270c:	91322000 	add	x0, x0, #0xc88
  402710:	f9004fa0 	str	x0, [x29, #152]
  402714:	aa0003e2 	mov	x2, x0
  402718:	aa1303e1 	mov	x1, x19
  40271c:	910423a0 	add	x0, x29, #0x108
  402720:	94005cda 	bl	419a88 <__tfind>
  402724:	f9005fa0 	str	x0, [x29, #184]
  402728:	d0000260 	adrp	x0, 450000 <buffer_free+0x40>
  40272c:	f945e400 	ldr	x0, [x0, #3016]
  402730:	f90077a0 	str	x0, [x29, #232]
  402734:	b4000060 	cbz	x0, 402740 <__dcigettext+0x128>
  402738:	9101c260 	add	x0, x19, #0x70
  40273c:	d503201f 	nop
  402740:	f9405fa0 	ldr	x0, [x29, #184]
  402744:	b40000e0 	cbz	x0, 402760 <__dcigettext+0x148>
  402748:	f9400000 	ldr	x0, [x0]
  40274c:	d0000c21 	adrp	x1, 588000 <initial+0x70>
  402750:	b94e0821 	ldr	w1, [x1, #3592]
  402754:	b9401802 	ldr	w2, [x0, #24]
  402758:	6b01005f 	cmp	w2, w1
  40275c:	54001f80 	b.eq	402b4c <__dcigettext+0x534>  // b.none
  402760:	d0000c20 	adrp	x0, 588000 <initial+0x70>
  402764:	f9470013 	ldr	x19, [x0, #3584]
  402768:	b5001433 	cbnz	x19, 4029ec <__dcigettext+0x3d4>
  40276c:	d503201f 	nop
  402770:	d0000278 	adrp	x24, 450000 <buffer_free+0x40>
  402774:	91308318 	add	x24, x24, #0xc20
  402778:	d0000282 	adrp	x2, 454000 <inmask.13082+0x128>
  40277c:	9113a042 	add	x2, x2, #0x4e8
  402780:	d0000295 	adrp	x21, 454000 <inmask.13082+0x128>
  402784:	911162a1 	add	x1, x21, #0x458
  402788:	2a1903e0 	mov	w0, w25
  40278c:	d000027a 	adrp	x26, 450000 <buffer_free+0x40>
  402790:	3879c855 	ldrb	w21, [x2, w25, sxtw]
  402794:	9130035a 	add	x26, x26, #0xc00
  402798:	8b0102b5 	add	x21, x21, x1
  40279c:	94009189 	bl	426dc0 <__current_locale_name>
  4027a0:	aa1a03e1 	mov	x1, x26
  4027a4:	aa0003f4 	mov	x20, x0
  4027a8:	94004a56 	bl	415100 <strcmp>
  4027ac:	34000100 	cbz	w0, 4027cc <__dcigettext+0x1b4>
  4027b0:	d0000260 	adrp	x0, 450000 <buffer_free+0x40>
  4027b4:	91302000 	add	x0, x0, #0xc08
  4027b8:	94000ee4 	bl	406348 <getenv>
  4027bc:	b4000080 	cbz	x0, 4027cc <__dcigettext+0x1b4>
  4027c0:	39400001 	ldrb	w1, [x0]
  4027c4:	7100003f 	cmp	w1, #0x0
  4027c8:	9a800294 	csel	x20, x20, x0, eq  // eq = none
  4027cc:	aa1603e0 	mov	x0, x22
  4027d0:	94004b6c 	bl	415580 <__strlen>
  4027d4:	aa0003fb 	mov	x27, x0
  4027d8:	aa1503e0 	mov	x0, x21
  4027dc:	f9004bbb 	str	x27, [x29, #144]
  4027e0:	94004b68 	bl	415580 <__strlen>
  4027e4:	8b1b0000 	add	x0, x0, x27
  4027e8:	9100eb61 	add	x1, x27, #0x3a
  4027ec:	91005000 	add	x0, x0, #0x14
  4027f0:	f90047a1 	str	x1, [x29, #136]
  4027f4:	927cec00 	and	x0, x0, #0xfffffffffffffff0
  4027f8:	910003e2 	mov	x2, sp
  4027fc:	9274cc01 	and	x1, x0, #0xfffffffffffff000
  402800:	cb2163e1 	sub	x1, sp, x1
  402804:	eb01005f 	cmp	x2, x1
  402808:	540000c0 	b.eq	402820 <__dcigettext+0x208>  // b.none
  40280c:	d14007ff 	sub	sp, sp, #0x1, lsl #12
  402810:	910003e2 	mov	x2, sp
  402814:	eb01005f 	cmp	x2, x1
  402818:	f907ffff 	str	xzr, [sp, #4088]
  40281c:	54ffff81 	b.ne	40280c <__dcigettext+0x1f4>  // b.any
  402820:	f2402c01 	ands	x1, x0, #0xfff
  402824:	54000080 	b.eq	402834 <__dcigettext+0x21c>  // b.none
  402828:	cb2163ff 	sub	sp, sp, x1
  40282c:	d1002021 	sub	x1, x1, #0x8
  402830:	f8216bff 	str	xzr, [sp, x1]
  402834:	b4000040 	cbz	x0, 40283c <__dcigettext+0x224>
  402838:	f90003ff 	str	xzr, [sp]
  40283c:	910003fb 	mov	x27, sp
  402840:	aa1503e1 	mov	x1, x21
  402844:	aa1b03e0 	mov	x0, x27
  402848:	94004eae 	bl	416300 <__stpcpy>
  40284c:	f9404ba2 	ldr	x2, [x29, #144]
  402850:	528005e3 	mov	w3, #0x2f                  	// #47
  402854:	78001403 	strh	w3, [x0], #1
  402858:	aa1603e1 	mov	x1, x22
  40285c:	94004e91 	bl	4162a0 <__mempcpy>
  402860:	528da5c1 	mov	w1, #0x6d2e                	// #27950
  402864:	72a00de1 	movk	w1, #0x6f, lsl #16
  402868:	b9000001 	str	w1, [x0]
  40286c:	aa1403e0 	mov	x0, x20
  402870:	94004b44 	bl	415580 <__strlen>
  402874:	91004000 	add	x0, x0, #0x10
  402878:	927cec00 	and	x0, x0, #0xfffffffffffffff0
  40287c:	910003e2 	mov	x2, sp
  402880:	9274cc01 	and	x1, x0, #0xfffffffffffff000
  402884:	cb2163e1 	sub	x1, sp, x1
  402888:	eb01005f 	cmp	x2, x1
  40288c:	540000c0 	b.eq	4028a4 <__dcigettext+0x28c>  // b.none
  402890:	d14007ff 	sub	sp, sp, #0x1, lsl #12
  402894:	910003e2 	mov	x2, sp
  402898:	eb01005f 	cmp	x2, x1
  40289c:	f907ffff 	str	xzr, [sp, #4088]
  4028a0:	54ffff81 	b.ne	402890 <__dcigettext+0x278>  // b.any
  4028a4:	f2402c01 	ands	x1, x0, #0xfff
  4028a8:	54000080 	b.eq	4028b8 <__dcigettext+0x2a0>  // b.none
  4028ac:	cb2163ff 	sub	sp, sp, x1
  4028b0:	d1002021 	sub	x1, x1, #0x8
  4028b4:	f8216bff 	str	xzr, [sp, x1]
  4028b8:	b4000040 	cbz	x0, 4028c0 <__dcigettext+0x2a8>
  4028bc:	f90003ff 	str	xzr, [sp]
  4028c0:	910003f5 	mov	x21, sp
  4028c4:	d0000261 	adrp	x1, 450000 <buffer_free+0x40>
  4028c8:	f0000400 	adrp	x0, 485000 <__FRAME_END__+0xfc98>
  4028cc:	91306021 	add	x1, x1, #0xc18
  4028d0:	913bc000 	add	x0, x0, #0xef0
  4028d4:	f90053a0 	str	x0, [x29, #160]
  4028d8:	f90073a1 	str	x1, [x29, #224]
  4028dc:	d503201f 	nop
  4028e0:	39400280 	ldrb	w0, [x20]
  4028e4:	7100e81f 	cmp	w0, #0x3a
  4028e8:	54001680 	b.eq	402bb8 <__dcigettext+0x5a0>  // b.none
  4028ec:	350016a0 	cbnz	w0, 402bc0 <__dcigettext+0x5a8>
  4028f0:	52800860 	mov	w0, #0x43                  	// #67
  4028f4:	790002a0 	strh	w0, [x21]
  4028f8:	aa1a03e1 	mov	x1, x26
  4028fc:	aa1503e0 	mov	x0, x21
  402900:	94004a00 	bl	415100 <strcmp>
  402904:	34000ce0 	cbz	w0, 402aa0 <__dcigettext+0x488>
  402908:	f94073a1 	ldr	x1, [x29, #224]
  40290c:	aa1503e0 	mov	x0, x21
  402910:	940049fc 	bl	415100 <strcmp>
  402914:	34000c60 	cbz	w0, 402aa0 <__dcigettext+0x488>
  402918:	aa1303e3 	mov	x3, x19
  40291c:	aa1b03e2 	mov	x2, x27
  402920:	aa1503e1 	mov	x1, x21
  402924:	aa1803e0 	mov	x0, x24
  402928:	9400010e 	bl	402d60 <_nl_find_domain>
  40292c:	aa0003fc 	mov	x28, x0
  402930:	b4fffd80 	cbz	x0, 4028e0 <__dcigettext+0x2c8>
  402934:	910403a4 	add	x4, x29, #0x100
  402938:	52800023 	mov	w3, #0x1                   	// #1
  40293c:	aa1703e2 	mov	x2, x23
  402940:	aa1303e1 	mov	x1, x19
  402944:	97fffd11 	bl	401d88 <_nl_find_msg>
  402948:	b4000860 	cbz	x0, 402a54 <__dcigettext+0x43c>
  40294c:	aa0003e4 	mov	x4, x0
  402950:	b100041f 	cmn	x0, #0x1
  402954:	54000a60 	b.eq	402aa0 <__dcigettext+0x488>  // b.none
  402958:	f9407fa0 	ldr	x0, [x29, #248]
  40295c:	f90073a4 	str	x4, [x29, #224]
  402960:	940044c2 	bl	413c68 <__free>
  402964:	f9405fa0 	ldr	x0, [x29, #184]
  402968:	f94073a4 	ldr	x4, [x29, #224]
  40296c:	b4001760 	cbz	x0, 402c58 <__dcigettext+0x640>
  402970:	f9405fa0 	ldr	x0, [x29, #184]
  402974:	d0000c22 	adrp	x2, 588000 <initial+0x70>
  402978:	f94083a1 	ldr	x1, [x29, #256]
  40297c:	f9400000 	ldr	x0, [x0]
  402980:	b94e0842 	ldr	w2, [x2, #3592]
  402984:	b9001802 	str	w2, [x0, #24]
  402988:	a902101c 	stp	x28, x4, [x0, #32]
  40298c:	f9001801 	str	x1, [x0, #48]
  402990:	a94a83a1 	ldp	x1, x0, [x29, #168]
  402994:	b940d3a2 	ldr	w2, [x29, #208]
  402998:	b8216802 	str	w2, [x0, x1]
  40299c:	b940d7a0 	ldr	w0, [x29, #212]
  4029a0:	350014e0 	cbnz	w0, 402c3c <__dcigettext+0x624>
  4029a4:	f94077a0 	ldr	x0, [x29, #232]
  4029a8:	b40000c0 	cbz	x0, 4029c0 <__dcigettext+0x3a8>
  4029ac:	f94067a0 	ldr	x0, [x29, #200]
  4029b0:	f90073a4 	str	x4, [x29, #224]
  4029b4:	9100e000 	add	x0, x0, #0x38
  4029b8:	d503201f 	nop
  4029bc:	f94073a4 	ldr	x4, [x29, #224]
  4029c0:	f94077a0 	ldr	x0, [x29, #232]
  4029c4:	b4000980 	cbz	x0, 402af4 <__dcigettext+0x4dc>
  4029c8:	d0000c20 	adrp	x0, 588000 <initial+0x70>
  4029cc:	9113a000 	add	x0, x0, #0x4e8
  4029d0:	f90077a4 	str	x4, [x29, #232]
  4029d4:	d503201f 	nop
  4029d8:	f94077a4 	ldr	x4, [x29, #232]
  4029dc:	14000046 	b	402af4 <__dcigettext+0x4dc>
  4029e0:	54000e0b 	b.lt	402ba0 <__dcigettext+0x588>  // b.tstop
  4029e4:	f9400273 	ldr	x19, [x19]
  4029e8:	b4ffec53 	cbz	x19, 402770 <__dcigettext+0x158>
  4029ec:	91006261 	add	x1, x19, #0x18
  4029f0:	aa1603e0 	mov	x0, x22
  4029f4:	940049c3 	bl	415100 <strcmp>
  4029f8:	7100001f 	cmp	w0, #0x0
  4029fc:	54ffff21 	b.ne	4029e0 <__dcigettext+0x3c8>  // b.any
  402a00:	f9400678 	ldr	x24, [x19, #8]
  402a04:	39400300 	ldrb	w0, [x24]
  402a08:	7100bc1f 	cmp	w0, #0x2f
  402a0c:	54ffeb60 	b.eq	402778 <__dcigettext+0x160>  // b.none
  402a10:	d2800001 	mov	x1, #0x0                   	// #0
  402a14:	d2800000 	mov	x0, #0x0                   	// #0
  402a18:	94005808 	bl	418a38 <__getcwd>
  402a1c:	aa0003f4 	mov	x20, x0
  402a20:	b4000400 	cbz	x0, 402aa0 <__dcigettext+0x488>
  402a24:	aa0003e2 	mov	x2, x0
  402a28:	aa1803e3 	mov	x3, x24
  402a2c:	d0000261 	adrp	x1, 450000 <buffer_free+0x40>
  402a30:	912fe021 	add	x1, x1, #0xbf8
  402a34:	9103e3a0 	add	x0, x29, #0xf8
  402a38:	94001184 	bl	407048 <___asprintf>
  402a3c:	2a0003f5 	mov	w21, w0
  402a40:	aa1403e0 	mov	x0, x20
  402a44:	94004489 	bl	413c68 <__free>
  402a48:	37f802d5 	tbnz	w21, #31, 402aa0 <__dcigettext+0x488>
  402a4c:	f9407fb8 	ldr	x24, [x29, #248]
  402a50:	17ffff4a 	b	402778 <__dcigettext+0x160>
  402a54:	f9401380 	ldr	x0, [x28, #32]
  402a58:	b4fff440 	cbz	x0, 4028e0 <__dcigettext+0x2c8>
  402a5c:	91008381 	add	x1, x28, #0x20
  402a60:	d2800006 	mov	x6, #0x0                   	// #0
  402a64:	a907d3b5 	stp	x21, x20, [x29, #120]
  402a68:	aa0603f5 	mov	x21, x6
  402a6c:	aa0103f4 	mov	x20, x1
  402a70:	14000005 	b	402a84 <__dcigettext+0x46c>
  402a74:	b5000c60 	cbnz	x0, 402c00 <__dcigettext+0x5e8>
  402a78:	910006b5 	add	x21, x21, #0x1
  402a7c:	f8757a80 	ldr	x0, [x20, x21, lsl #3]
  402a80:	b4000ca0 	cbz	x0, 402c14 <__dcigettext+0x5fc>
  402a84:	910403a4 	add	x4, x29, #0x100
  402a88:	52800023 	mov	w3, #0x1                   	// #1
  402a8c:	aa1703e2 	mov	x2, x23
  402a90:	aa1303e1 	mov	x1, x19
  402a94:	97fffcbd 	bl	401d88 <_nl_find_msg>
  402a98:	b100041f 	cmn	x0, #0x1
  402a9c:	54fffec1 	b.ne	402a74 <__dcigettext+0x45c>  // b.any
  402aa0:	f9407fa0 	ldr	x0, [x29, #248]
  402aa4:	94004471 	bl	413c68 <__free>
  402aa8:	f94077a0 	ldr	x0, [x29, #232]
  402aac:	b4000080 	cbz	x0, 402abc <__dcigettext+0x4a4>
  402ab0:	f94067a0 	ldr	x0, [x29, #200]
  402ab4:	9100e000 	add	x0, x0, #0x38
  402ab8:	d503201f 	nop
  402abc:	f94077a0 	ldr	x0, [x29, #232]
  402ac0:	b4000080 	cbz	x0, 402ad0 <__dcigettext+0x4b8>
  402ac4:	d0000c20 	adrp	x0, 588000 <initial+0x70>
  402ac8:	9113a000 	add	x0, x0, #0x4e8
  402acc:	d503201f 	nop
  402ad0:	a94a83a1 	ldp	x1, x0, [x29, #168]
  402ad4:	b940d3a2 	ldr	w2, [x29, #208]
  402ad8:	b8216802 	str	w2, [x0, x1]
  402adc:	b940d7a0 	ldr	w0, [x29, #212]
  402ae0:	7100001f 	cmp	w0, #0x0
  402ae4:	f94063a0 	ldr	x0, [x29, #192]
  402ae8:	fa411804 	ccmp	x0, #0x1, #0x4, ne  // ne = any
  402aec:	540002c1 	b.ne	402b44 <__dcigettext+0x52c>  // b.any
  402af0:	aa1703e4 	mov	x4, x23
  402af4:	f9406fa1 	ldr	x1, [x29, #216]
  402af8:	aa0403e0 	mov	x0, x4
  402afc:	f940a7a2 	ldr	x2, [x29, #328]
  402b00:	f9400023 	ldr	x3, [x1]
  402b04:	eb030042 	subs	x2, x2, x3
  402b08:	d2800003 	mov	x3, #0x0                   	// #0
  402b0c:	54001261 	b.ne	402d58 <__dcigettext+0x740>  // b.any
  402b10:	910003bf 	mov	sp, x29
  402b14:	a94153f3 	ldp	x19, x20, [sp, #16]
  402b18:	a9425bf5 	ldp	x21, x22, [sp, #32]
  402b1c:	a94363f7 	ldp	x23, x24, [sp, #48]
  402b20:	a9446bf9 	ldp	x25, x26, [sp, #64]
  402b24:	a94573fb 	ldp	x27, x28, [sp, #80]
  402b28:	6d4627e8 	ldp	d8, d9, [sp, #96]
  402b2c:	a8d57bfd 	ldp	x29, x30, [sp], #336
  402b30:	d65f03c0 	ret
  402b34:	2a0303e0 	mov	w0, w3
  402b38:	7100001f 	cmp	w0, #0x0
  402b3c:	fa411884 	ccmp	x4, #0x1, #0x4, ne  // ne = any
  402b40:	54fffd80 	b.eq	402af0 <__dcigettext+0x4d8>  // b.none
  402b44:	9e660104 	fmov	x4, d8
  402b48:	17ffffeb 	b	402af4 <__dcigettext+0x4dc>
  402b4c:	b940d7a1 	ldr	w1, [x29, #212]
  402b50:	f9401404 	ldr	x4, [x0, #40]
  402b54:	35000641 	cbnz	w1, 402c1c <__dcigettext+0x604>
  402b58:	f94077a0 	ldr	x0, [x29, #232]
  402b5c:	b40000c0 	cbz	x0, 402b74 <__dcigettext+0x55c>
  402b60:	f94067a0 	ldr	x0, [x29, #200]
  402b64:	f90073a4 	str	x4, [x29, #224]
  402b68:	9100e000 	add	x0, x0, #0x38
  402b6c:	d503201f 	nop
  402b70:	f94073a4 	ldr	x4, [x29, #224]
  402b74:	f94077a0 	ldr	x0, [x29, #232]
  402b78:	b40000c0 	cbz	x0, 402b90 <__dcigettext+0x578>
  402b7c:	d0000c20 	adrp	x0, 588000 <initial+0x70>
  402b80:	9113a000 	add	x0, x0, #0x4e8
  402b84:	f90077a4 	str	x4, [x29, #232]
  402b88:	d503201f 	nop
  402b8c:	f94077a4 	ldr	x4, [x29, #232]
  402b90:	a94a83a1 	ldp	x1, x0, [x29, #168]
  402b94:	b940d3a2 	ldr	w2, [x29, #208]
  402b98:	b8216802 	str	w2, [x0, x1]
  402b9c:	17ffffd6 	b	402af4 <__dcigettext+0x4dc>
  402ba0:	d0000278 	adrp	x24, 450000 <buffer_free+0x40>
  402ba4:	d2800013 	mov	x19, #0x0                   	// #0
  402ba8:	91308318 	add	x24, x24, #0xc20
  402bac:	17fffef3 	b	402778 <__dcigettext+0x160>
  402bb0:	d2800004 	mov	x4, #0x0                   	// #0
  402bb4:	17ffffd0 	b	402af4 <__dcigettext+0x4dc>
  402bb8:	91000694 	add	x20, x20, #0x1
  402bbc:	17ffff49 	b	4028e0 <__dcigettext+0x2c8>
  402bc0:	aa1503e1 	mov	x1, x21
  402bc4:	d503201f 	nop
  402bc8:	38001420 	strb	w0, [x1], #1
  402bcc:	38401e80 	ldrb	w0, [x20, #1]!
  402bd0:	7100e81f 	cmp	w0, #0x3a
  402bd4:	7a401804 	ccmp	w0, #0x0, #0x4, ne  // ne = any
  402bd8:	54ffff81 	b.ne	402bc8 <__dcigettext+0x5b0>  // b.any
  402bdc:	f94053a0 	ldr	x0, [x29, #160]
  402be0:	3900003f 	strb	wzr, [x1]
  402be4:	b9400000 	ldr	w0, [x0]
  402be8:	34ffe880 	cbz	w0, 4028f8 <__dcigettext+0x2e0>
  402bec:	528005e1 	mov	w1, #0x2f                  	// #47
  402bf0:	aa1503e0 	mov	x0, x21
  402bf4:	94004903 	bl	415000 <strchr>
  402bf8:	b5ffe740 	cbnz	x0, 4028e0 <__dcigettext+0x2c8>
  402bfc:	17ffff3f 	b	4028f8 <__dcigettext+0x2e0>
  402c00:	aa0003e4 	mov	x4, x0
  402c04:	2a1503e0 	mov	w0, w21
  402c08:	8b20cf80 	add	x0, x28, w0, sxtw #3
  402c0c:	f940101c 	ldr	x28, [x0, #32]
  402c10:	17ffff52 	b	402958 <__dcigettext+0x340>
  402c14:	a947d3b5 	ldp	x21, x20, [x29, #120]
  402c18:	17ffff32 	b	4028e0 <__dcigettext+0x2c8>
  402c1c:	f9401005 	ldr	x5, [x0, #32]
  402c20:	aa0403e2 	mov	x2, x4
  402c24:	f9401803 	ldr	x3, [x0, #48]
  402c28:	f94008a0 	ldr	x0, [x5, #16]
  402c2c:	f94063a1 	ldr	x1, [x29, #192]
  402c30:	97fffc36 	bl	401d08 <plural_lookup.isra.2>
  402c34:	aa0003e4 	mov	x4, x0
  402c38:	17ffffc8 	b	402b58 <__dcigettext+0x540>
  402c3c:	f9400b80 	ldr	x0, [x28, #16]
  402c40:	aa0403e2 	mov	x2, x4
  402c44:	f94063a1 	ldr	x1, [x29, #192]
  402c48:	f94083a3 	ldr	x3, [x29, #256]
  402c4c:	97fffc2f 	bl	401d08 <plural_lookup.isra.2>
  402c50:	aa0003e4 	mov	x4, x0
  402c54:	17ffff54 	b	4029a4 <__dcigettext+0x38c>
  402c58:	aa1703e0 	mov	x0, x23
  402c5c:	94004a49 	bl	415580 <__strlen>
  402c60:	91000413 	add	x19, x0, #0x1
  402c64:	9e660120 	fmov	x0, d9
  402c68:	94004a46 	bl	415580 <__strlen>
  402c6c:	8b130000 	add	x0, x0, x19
  402c70:	f94047a1 	ldr	x1, [x29, #136]
  402c74:	8b010000 	add	x0, x0, x1
  402c78:	94004268 	bl	413618 <__libc_malloc>
  402c7c:	aa0003f4 	mov	x20, x0
  402c80:	f94073a4 	ldr	x4, [x29, #224]
  402c84:	b4ffe860 	cbz	x0, 402990 <__dcigettext+0x378>
  402c88:	f9404ba0 	ldr	x0, [x29, #144]
  402c8c:	aa1303e2 	mov	x2, x19
  402c90:	aa1703e1 	mov	x1, x23
  402c94:	91000413 	add	x19, x0, #0x1
  402c98:	9100e280 	add	x0, x20, #0x38
  402c9c:	94004d81 	bl	4162a0 <__mempcpy>
  402ca0:	aa0003f5 	mov	x21, x0
  402ca4:	aa1603e1 	mov	x1, x22
  402ca8:	aa1303e2 	mov	x2, x19
  402cac:	8b130013 	add	x19, x0, x19
  402cb0:	97fff55c 	bl	400220 <.plt+0x10>
  402cb4:	9e660121 	fmov	x1, d9
  402cb8:	aa1303e0 	mov	x0, x19
  402cbc:	94004951 	bl	415200 <strcpy>
  402cc0:	f9000295 	str	x21, [x20]
  402cc4:	d0000260 	adrp	x0, 450000 <buffer_free+0x40>
  402cc8:	d0000c21 	adrp	x1, 588000 <initial+0x70>
  402ccc:	f94073a4 	ldr	x4, [x29, #224]
  402cd0:	b9000a99 	str	w25, [x20, #8]
  402cd4:	f945e000 	ldr	x0, [x0, #3008]
  402cd8:	f9000a93 	str	x19, [x20, #16]
  402cdc:	b94e0822 	ldr	w2, [x1, #3592]
  402ce0:	f94083a1 	ldr	x1, [x29, #256]
  402ce4:	b9001a82 	str	w2, [x20, #24]
  402ce8:	a902129c 	stp	x28, x4, [x20, #32]
  402cec:	f9001a81 	str	x1, [x20, #48]
  402cf0:	b40000a0 	cbz	x0, 402d04 <__dcigettext+0x6ec>
  402cf4:	f94067a0 	ldr	x0, [x29, #200]
  402cf8:	9101c000 	add	x0, x0, #0x70
  402cfc:	d503201f 	nop
  402d00:	f94073a4 	ldr	x4, [x29, #224]
  402d04:	aa1403e0 	mov	x0, x20
  402d08:	f9404fa2 	ldr	x2, [x29, #152]
  402d0c:	f90073a4 	str	x4, [x29, #224]
  402d10:	f94067b5 	ldr	x21, [x29, #200]
  402d14:	aa1503e1 	mov	x1, x21
  402d18:	94005af4 	bl	4198e8 <__tsearch>
  402d1c:	aa0003f3 	mov	x19, x0
  402d20:	a94e03a4 	ldp	x4, x0, [x29, #224]
  402d24:	b4000080 	cbz	x0, 402d34 <__dcigettext+0x71c>
  402d28:	9101c2a0 	add	x0, x21, #0x70
  402d2c:	d503201f 	nop
  402d30:	f94073a4 	ldr	x4, [x29, #224]
  402d34:	b4000093 	cbz	x19, 402d44 <__dcigettext+0x72c>
  402d38:	f9400260 	ldr	x0, [x19]
  402d3c:	eb14001f 	cmp	x0, x20
  402d40:	54ffe280 	b.eq	402990 <__dcigettext+0x378>  // b.none
  402d44:	aa1403e0 	mov	x0, x20
  402d48:	f90073a4 	str	x4, [x29, #224]
  402d4c:	940043c7 	bl	413c68 <__free>
  402d50:	f94073a4 	ldr	x4, [x29, #224]
  402d54:	17ffff0f 	b	402990 <__dcigettext+0x378>
  402d58:	94005ecc 	bl	41a888 <__stack_chk_fail>

0000000000402d5c <.annobin___dcigettext.end>:
  402d5c:	d503201f 	nop

0000000000402d60 <_nl_find_domain>:
  402d60:	d102c3ff 	sub	sp, sp, #0xb0
  402d64:	d0000264 	adrp	x4, 450000 <buffer_free+0x40>
  402d68:	a9027bfd 	stp	x29, x30, [sp, #32]
  402d6c:	910083fd 	add	x29, sp, #0x20
  402d70:	a9045bf5 	stp	x21, x22, [sp, #64]
  402d74:	f0000415 	adrp	x21, 485000 <__FRAME_END__+0xfc98>
  402d78:	aa0003f6 	mov	x22, x0
  402d7c:	912342b5 	add	x21, x21, #0x8d0
  402d80:	a90353f3 	stp	x19, x20, [sp, #48]
  402d84:	b0000c33 	adrp	x19, 587000 <temp+0x7f5e0>
  402d88:	f9462480 	ldr	x0, [x4, #3144]
  402d8c:	f94002a4 	ldr	x4, [x21]
  402d90:	f90057e4 	str	x4, [sp, #168]
  402d94:	d2800004 	mov	x4, #0x0                   	// #0
  402d98:	a90563f7 	stp	x23, x24, [sp, #80]
  402d9c:	913b6273 	add	x19, x19, #0xed8
  402da0:	aa0103f7 	mov	x23, x1
  402da4:	a9066bf9 	stp	x25, x26, [sp, #96]
  402da8:	aa0203f9 	mov	x25, x2
  402dac:	aa0303fa 	mov	x26, x3
  402db0:	b4000060 	cbz	x0, 402dbc <_nl_find_domain+0x5c>
  402db4:	aa1303e0 	mov	x0, x19
  402db8:	d503201f 	nop
  402dbc:	aa1603e0 	mov	x0, x22
  402dc0:	940049f0 	bl	415580 <__strlen>
  402dc4:	a90067ff 	stp	xzr, x25, [sp]
  402dc8:	91000402 	add	x2, x0, #0x1
  402dcc:	d2800007 	mov	x7, #0x0                   	// #0
  402dd0:	b90013ff 	str	wzr, [sp, #16]
  402dd4:	d2800006 	mov	x6, #0x0                   	// #0
  402dd8:	d2800005 	mov	x5, #0x0                   	// #0
  402ddc:	aa1703e4 	mov	x4, x23
  402de0:	52800003 	mov	w3, #0x0                   	// #0
  402de4:	aa1603e1 	mov	x1, x22
  402de8:	9100e260 	add	x0, x19, #0x38
  402dec:	94000699 	bl	404850 <_nl_make_l10nflist>
  402df0:	aa0003f4 	mov	x20, x0
  402df4:	d0000260 	adrp	x0, 450000 <buffer_free+0x40>
  402df8:	f9462818 	ldr	x24, [x0, #3152]
  402dfc:	b4000078 	cbz	x24, 402e08 <_nl_find_domain+0xa8>
  402e00:	aa1303e0 	mov	x0, x19
  402e04:	d503201f 	nop
  402e08:	b40004d4 	cbz	x20, 402ea0 <_nl_find_domain+0x140>
  402e0c:	b9400a80 	ldr	w0, [x20, #8]
  402e10:	7100001f 	cmp	w0, #0x0
  402e14:	540003ed 	b.le	402e90 <_nl_find_domain+0x130>
  402e18:	f9400a80 	ldr	x0, [x20, #16]
  402e1c:	b40001c0 	cbz	x0, 402e54 <_nl_find_domain+0xf4>
  402e20:	aa1403e0 	mov	x0, x20
  402e24:	f94057e1 	ldr	x1, [sp, #168]
  402e28:	f94002a2 	ldr	x2, [x21]
  402e2c:	eb020021 	subs	x1, x1, x2
  402e30:	d2800002 	mov	x2, #0x0                   	// #0
  402e34:	54000d81 	b.ne	402fe4 <_nl_find_domain+0x284>  // b.any
  402e38:	a9427bfd 	ldp	x29, x30, [sp, #32]
  402e3c:	a94353f3 	ldp	x19, x20, [sp, #48]
  402e40:	a9445bf5 	ldp	x21, x22, [sp, #64]
  402e44:	a94563f7 	ldp	x23, x24, [sp, #80]
  402e48:	a9466bf9 	ldp	x25, x26, [sp, #96]
  402e4c:	9102c3ff 	add	sp, sp, #0xb0
  402e50:	d65f03c0 	ret
  402e54:	f9401280 	ldr	x0, [x20, #32]
  402e58:	b4fffe40 	cbz	x0, 402e20 <_nl_find_domain+0xc0>
  402e5c:	91008293 	add	x19, x20, #0x20
  402e60:	14000006 	b	402e78 <_nl_find_domain+0x118>
  402e64:	f9400260 	ldr	x0, [x19]
  402e68:	f9400800 	ldr	x0, [x0, #16]
  402e6c:	b5fffda0 	cbnz	x0, 402e20 <_nl_find_domain+0xc0>
  402e70:	f8408e60 	ldr	x0, [x19, #8]!
  402e74:	b4fffd60 	cbz	x0, 402e20 <_nl_find_domain+0xc0>
  402e78:	b9400801 	ldr	w1, [x0, #8]
  402e7c:	7100003f 	cmp	w1, #0x0
  402e80:	54ffff2c 	b.gt	402e64 <_nl_find_domain+0x104>
  402e84:	aa1a03e1 	mov	x1, x26
  402e88:	9400005a 	bl	402ff0 <_nl_load_domain>
  402e8c:	17fffff6 	b	402e64 <_nl_find_domain+0x104>
  402e90:	aa1a03e1 	mov	x1, x26
  402e94:	aa1403e0 	mov	x0, x20
  402e98:	94000056 	bl	402ff0 <_nl_load_domain>
  402e9c:	17ffffdf 	b	402e18 <_nl_find_domain+0xb8>
  402ea0:	aa1703e0 	mov	x0, x23
  402ea4:	a90773fb 	stp	x27, x28, [sp, #112]
  402ea8:	940005fc 	bl	404698 <_nl_expand_alias>
  402eac:	aa0003fc 	mov	x28, x0
  402eb0:	b4000140 	cbz	x0, 402ed8 <_nl_find_domain+0x178>
  402eb4:	940049b3 	bl	415580 <__strlen>
  402eb8:	9100041b 	add	x27, x0, #0x1
  402ebc:	aa1b03e0 	mov	x0, x27
  402ec0:	940041d6 	bl	413618 <__libc_malloc>
  402ec4:	aa0003f7 	mov	x23, x0
  402ec8:	b40005c0 	cbz	x0, 402f80 <_nl_find_domain+0x220>
  402ecc:	aa1b03e2 	mov	x2, x27
  402ed0:	aa1c03e1 	mov	x1, x28
  402ed4:	97fff4d3 	bl	400220 <.plt+0x10>
  402ed8:	910283e5 	add	x5, sp, #0xa0
  402edc:	910263e4 	add	x4, sp, #0x98
  402ee0:	910243e3 	add	x3, sp, #0x90
  402ee4:	910223e2 	add	x2, sp, #0x88
  402ee8:	910203e1 	add	x1, sp, #0x80
  402eec:	aa1703e0 	mov	x0, x23
  402ef0:	940007da 	bl	404e58 <_nl_explode_name>
  402ef4:	2a0003fb 	mov	w27, w0
  402ef8:	3100041f 	cmn	w0, #0x1
  402efc:	54000420 	b.eq	402f80 <_nl_find_domain+0x220>  // b.none
  402f00:	d0000260 	adrp	x0, 450000 <buffer_free+0x40>
  402f04:	f9462c00 	ldr	x0, [x0, #3160]
  402f08:	b4000060 	cbz	x0, 402f14 <_nl_find_domain+0x1b4>
  402f0c:	aa1303e0 	mov	x0, x19
  402f10:	d503201f 	nop
  402f14:	aa1603e0 	mov	x0, x22
  402f18:	9400499a 	bl	415580 <__strlen>
  402f1c:	91000402 	add	x2, x0, #0x1
  402f20:	52800021 	mov	w1, #0x1                   	// #1
  402f24:	a94803e4 	ldp	x4, x0, [sp, #128]
  402f28:	a90067e0 	stp	x0, x25, [sp]
  402f2c:	2a1b03e3 	mov	w3, w27
  402f30:	a9491be5 	ldp	x5, x6, [sp, #144]
  402f34:	b90013e1 	str	w1, [sp, #16]
  402f38:	f94053e7 	ldr	x7, [sp, #160]
  402f3c:	aa1603e1 	mov	x1, x22
  402f40:	9100e260 	add	x0, x19, #0x38
  402f44:	94000643 	bl	404850 <_nl_make_l10nflist>
  402f48:	aa0003f4 	mov	x20, x0
  402f4c:	b4000078 	cbz	x24, 402f58 <_nl_find_domain+0x1f8>
  402f50:	aa1303e0 	mov	x0, x19
  402f54:	d503201f 	nop
  402f58:	b4000134 	cbz	x20, 402f7c <_nl_find_domain+0x21c>
  402f5c:	b9400a80 	ldr	w0, [x20, #8]
  402f60:	7100001f 	cmp	w0, #0x0
  402f64:	5400038d 	b.le	402fd4 <_nl_find_domain+0x274>
  402f68:	f9400a80 	ldr	x0, [x20, #16]
  402f6c:	b4000160 	cbz	x0, 402f98 <_nl_find_domain+0x238>
  402f70:	b400007c 	cbz	x28, 402f7c <_nl_find_domain+0x21c>
  402f74:	aa1703e0 	mov	x0, x23
  402f78:	9400433c 	bl	413c68 <__free>
  402f7c:	3700007b 	tbnz	w27, #0, 402f88 <_nl_find_domain+0x228>
  402f80:	a94773fb 	ldp	x27, x28, [sp, #112]
  402f84:	17ffffa7 	b	402e20 <_nl_find_domain+0xc0>
  402f88:	f94053e0 	ldr	x0, [sp, #160]
  402f8c:	94004337 	bl	413c68 <__free>
  402f90:	a94773fb 	ldp	x27, x28, [sp, #112]
  402f94:	17ffffa3 	b	402e20 <_nl_find_domain+0xc0>
  402f98:	f9401280 	ldr	x0, [x20, #32]
  402f9c:	b4fffea0 	cbz	x0, 402f70 <_nl_find_domain+0x210>
  402fa0:	91008293 	add	x19, x20, #0x20
  402fa4:	14000006 	b	402fbc <_nl_find_domain+0x25c>
  402fa8:	f9400260 	ldr	x0, [x19]
  402fac:	f9400800 	ldr	x0, [x0, #16]
  402fb0:	b5fffe00 	cbnz	x0, 402f70 <_nl_find_domain+0x210>
  402fb4:	f8408e60 	ldr	x0, [x19, #8]!
  402fb8:	b4fffdc0 	cbz	x0, 402f70 <_nl_find_domain+0x210>
  402fbc:	b9400801 	ldr	w1, [x0, #8]
  402fc0:	7100003f 	cmp	w1, #0x0
  402fc4:	54ffff2c 	b.gt	402fa8 <_nl_find_domain+0x248>
  402fc8:	aa1a03e1 	mov	x1, x26
  402fcc:	94000009 	bl	402ff0 <_nl_load_domain>
  402fd0:	17fffff6 	b	402fa8 <_nl_find_domain+0x248>
  402fd4:	aa1a03e1 	mov	x1, x26
  402fd8:	aa1403e0 	mov	x0, x20
  402fdc:	94000005 	bl	402ff0 <_nl_load_domain>
  402fe0:	17ffffe2 	b	402f68 <_nl_find_domain+0x208>
  402fe4:	a90773fb 	stp	x27, x28, [sp, #112]
  402fe8:	94005e28 	bl	41a888 <__stack_chk_fail>

0000000000402fec <.annobin__nl_find_domain.end>:
  402fec:	d503201f 	nop

0000000000402ff0 <_nl_load_domain>:
  402ff0:	a9a67bfd 	stp	x29, x30, [sp, #-416]!
  402ff4:	b0000c26 	adrp	x6, 587000 <temp+0x7f5e0>
  402ff8:	f0000402 	adrp	x2, 485000 <__FRAME_END__+0xfc98>
  402ffc:	910003fd 	mov	x29, sp
  403000:	a9025bf5 	stp	x21, x22, [sp, #32]
  403004:	913c60d6 	add	x22, x6, #0xf18
  403008:	aa0003f5 	mov	x21, x0
  40300c:	a90573fb 	stp	x27, x28, [sp, #80]
  403010:	9123405c 	add	x28, x2, #0x8d0
  403014:	f9400382 	ldr	x2, [x28]
  403018:	f900cfe2 	str	x2, [sp, #408]
  40301c:	d2800002 	mov	x2, #0x0                   	// #0
  403020:	f94006c2 	ldr	x2, [x22, #8]
  403024:	a90153f3 	stp	x19, x20, [sp, #16]
  403028:	d53bd054 	mrs	x20, tpidr_el0
  40302c:	d11c0293 	sub	x19, x20, #0x700
  403030:	fd0033e8 	str	d8, [sp, #96]
  403034:	eb13005f 	cmp	x2, x19
  403038:	9e670028 	fmov	d8, x1
  40303c:	540000e0 	b.eq	403058 <_nl_load_domain+0x68>  // b.none
  403040:	aa1603e2 	mov	x2, x22
  403044:	52800021 	mov	w1, #0x1                   	// #1
  403048:	52800000 	mov	w0, #0x0                   	// #0
  40304c:	94011ee5 	bl	44abe0 <__aarch64_cas4_acq>
  403050:	350028a0 	cbnz	w0, 403564 <_nl_load_domain+0x574>
  403054:	f90006d3 	str	x19, [x22, #8]
  403058:	b94006c1 	ldr	w1, [x22, #4]
  40305c:	b9400aa0 	ldr	w0, [x21, #8]
  403060:	11000422 	add	w2, w1, #0x1
  403064:	b90006c2 	str	w2, [x22, #4]
  403068:	35002300 	cbnz	w0, 4034c8 <_nl_load_domain+0x4d8>
  40306c:	f94002a0 	ldr	x0, [x21]
  403070:	12800002 	mov	w2, #0xffffffff            	// #-1
  403074:	b9000aa2 	str	w2, [x21, #8]
  403078:	f9000abf 	str	xzr, [x21, #16]
  40307c:	b4002220 	cbz	x0, 4034c0 <_nl_load_domain+0x4d0>
  403080:	52800001 	mov	w1, #0x0                   	// #0
  403084:	94005859 	bl	4191e8 <__open64_nocancel>
  403088:	2a0003f3 	mov	w19, w0
  40308c:	3100041f 	cmn	w0, #0x1
  403090:	540028a0 	b.eq	4035a4 <_nl_load_domain+0x5b4>  // b.none
  403094:	2a0003e1 	mov	w1, w0
  403098:	910463e2 	add	x2, sp, #0x118
  40309c:	52800000 	mov	w0, #0x0                   	// #0
  4030a0:	a9046bf9 	stp	x25, x26, [sp, #64]
  4030a4:	94005595 	bl	4186f8 <__fxstat>
  4030a8:	2a0003fa 	mov	w26, w0
  4030ac:	35002500 	cbnz	w0, 40354c <_nl_load_domain+0x55c>
  4030b0:	a90363f7 	stp	x23, x24, [sp, #48]
  4030b4:	f940a7f8 	ldr	x24, [sp, #328]
  4030b8:	f100bf1f 	cmp	x24, #0x2f
  4030bc:	54002469 	b.ls	403548 <_nl_load_domain+0x558>  // b.plast
  4030c0:	d2800005 	mov	x5, #0x0                   	// #0
  4030c4:	2a1303e4 	mov	w4, w19
  4030c8:	52800043 	mov	w3, #0x2                   	// #2
  4030cc:	52800022 	mov	w2, #0x1                   	// #1
  4030d0:	aa1803e1 	mov	x1, x24
  4030d4:	d2800000 	mov	x0, #0x0                   	// #0
  4030d8:	94005928 	bl	419578 <__mmap64>
  4030dc:	aa0003fb 	mov	x27, x0
  4030e0:	b100041f 	cmn	x0, #0x1
  4030e4:	54002de0 	b.eq	4036a0 <_nl_load_domain+0x6b0>  // b.none
  4030e8:	2a1303e0 	mov	w0, w19
  4030ec:	940057e9 	bl	419090 <__close_nocancel>
  4030f0:	b9400379 	ldr	w25, [x27]
  4030f4:	52825bc1 	mov	w1, #0x12de                	// #4830
  4030f8:	72b2a081 	movk	w1, #0x9504, lsl #16
  4030fc:	528092a0 	mov	w0, #0x495                 	// #1173
  403100:	6b01033f 	cmp	w25, w1
  403104:	72bbc240 	movk	w0, #0xde12, lsl #16
  403108:	1a9f07f4 	cset	w20, ne  // ne = any
  40310c:	7100029f 	cmp	w20, #0x0
  403110:	7a401324 	ccmp	w25, w0, #0x4, ne  // ne = any
  403114:	540025a1 	b.ne	4035c8 <_nl_load_domain+0x5d8>  // b.any
  403118:	5280003a 	mov	w26, #0x1                   	// #1
  40311c:	d2801900 	mov	x0, #0xc8                  	// #200
  403120:	9400413e 	bl	413618 <__libc_malloc>
  403124:	aa0003f7 	mov	x23, x0
  403128:	b4001c40 	cbz	x0, 4034b0 <_nl_load_domain+0x4c0>
  40312c:	52825bc0 	mov	w0, #0x12de                	// #4830
  403130:	72b2a080 	movk	w0, #0x9504, lsl #16
  403134:	6b00033f 	cmp	w25, w0
  403138:	b9400760 	ldr	w0, [x27, #4]
  40313c:	f90002fb 	str	x27, [x23]
  403140:	b9000afa 	str	w26, [x23, #8]
  403144:	f9000ab7 	str	x23, [x21, #16]
  403148:	f9000af8 	str	x24, [x23, #16]
  40314c:	b9001af4 	str	w20, [x23, #24]
  403150:	f90012ff 	str	xzr, [x23, #32]
  403154:	54001640 	b.eq	40341c <_nl_load_domain+0x42c>  // b.none
  403158:	5ac00800 	rev	w0, w0
  40315c:	13107c01 	asr	w1, w0, #16
  403160:	7100043f 	cmp	w1, #0x1
  403164:	54002068 	b.hi	403570 <_nl_load_domain+0x580>  // b.pmore
  403168:	29410f64 	ldp	w4, w3, [x27, #8]
  40316c:	29424f61 	ldp	w1, w19, [x27, #16]
  403170:	5ac00863 	rev	w3, w3
  403174:	8b030363 	add	x3, x27, x3
  403178:	5ac00884 	rev	w4, w4
  40317c:	5ac00821 	rev	w1, w1
  403180:	5ac00a73 	rev	w19, w19
  403184:	8b010361 	add	x1, x27, x1
  403188:	b9002ae4 	str	w4, [x23, #40]
  40318c:	a90306e3 	stp	x3, x1, [x23, #48]
  403190:	71000a7f 	cmp	w19, #0x2
  403194:	b9005af3 	str	w19, [x23, #88]
  403198:	540015a9 	b.ls	40344c <_nl_load_domain+0x45c>  // b.plast
  40319c:	b9401b61 	ldr	w1, [x27, #24]
  4031a0:	5ac00821 	rev	w1, w1
  4031a4:	8b010361 	add	x1, x27, x1
  4031a8:	f90032e1 	str	x1, [x23, #96]
  4031ac:	b9006af4 	str	w20, [x23, #104]
  4031b0:	12003c00 	and	w0, w0, #0xffff
  4031b4:	34001540 	cbz	w0, 40345c <_nl_load_domain+0x46c>
  4031b8:	b4001dc1 	cbz	x1, 403570 <_nl_load_domain+0x580>
  4031bc:	52825bc0 	mov	w0, #0x12de                	// #4830
  4031c0:	72b2a080 	movk	w0, #0x9504, lsl #16
  4031c4:	6b00033f 	cmp	w25, w0
  4031c8:	b9402760 	ldr	w0, [x27, #36]
  4031cc:	b9007be0 	str	w0, [sp, #120]
  4031d0:	54002b80 	b.eq	403740 <_nl_load_domain+0x750>  // b.none
  4031d4:	5ac00800 	rev	w0, w0
  4031d8:	b9007be0 	str	w0, [sp, #120]
  4031dc:	34001400 	cbz	w0, 40345c <_nl_load_domain+0x46c>
  4031e0:	2943d360 	ldp	w0, w20, [x27, #28]
  4031e4:	5ac00a94 	rev	w20, w20
  4031e8:	5ac00800 	rev	w0, w0
  4031ec:	b90083e0 	str	w0, [sp, #128]
  4031f0:	b94083e0 	ldr	w0, [sp, #128]
  4031f4:	d2800101 	mov	x1, #0x8                   	// #8
  4031f8:	8b140374 	add	x20, x27, x20
  4031fc:	94004455 	bl	414350 <__calloc>
  403200:	f90047e0 	str	x0, [sp, #136]
  403204:	b4001b60 	cbz	x0, 403570 <_nl_load_domain+0x580>
  403208:	b94083e0 	ldr	w0, [sp, #128]
  40320c:	34000780 	cbz	w0, 4032fc <_nl_load_domain+0x30c>
  403210:	b94083e0 	ldr	w0, [sp, #128]
  403214:	b000026b 	adrp	x11, 450000 <buffer_free+0x40>
  403218:	f94047e3 	ldr	x3, [sp, #136]
  40321c:	51000408 	sub	w8, w0, #0x1
  403220:	91000508 	add	x8, x8, #0x1
  403224:	b0000260 	adrp	x0, 450000 <buffer_free+0x40>
  403228:	9132a007 	add	x7, x0, #0xca8
  40322c:	b0000260 	adrp	x0, 450000 <buffer_free+0x40>
  403230:	9131c000 	add	x0, x0, #0xc70
  403234:	b0000271 	adrp	x17, 450000 <buffer_free+0x40>
  403238:	b0000270 	adrp	x16, 450000 <buffer_free+0x40>
  40323c:	b000026f 	adrp	x15, 450000 <buffer_free+0x40>
  403240:	b000026e 	adrp	x14, 450000 <buffer_free+0x40>
  403244:	b000026d 	adrp	x13, 450000 <buffer_free+0x40>
  403248:	d0000321 	adrp	x1, 469000 <_itowa_lower_digits+0xcb0>
  40324c:	b000027e 	adrp	x30, 450000 <buffer_free+0x40>
  403250:	91204021 	add	x1, x1, #0x810
  403254:	52825bc9 	mov	w9, #0x12de                	// #4830
  403258:	9132c16b 	add	x11, x11, #0xcb0
  40325c:	91326231 	add	x17, x17, #0xc98
  403260:	9132e210 	add	x16, x16, #0xcb8
  403264:	913301ef 	add	x15, x15, #0xcc0
  403268:	913281ce 	add	x14, x14, #0xca0
  40326c:	913241ad 	add	x13, x13, #0xc90
  403270:	913203de 	add	x30, x30, #0xc80
  403274:	9100128a 	add	x10, x20, #0x4
  403278:	d37df108 	lsl	x8, x8, #3
  40327c:	a90903e1 	stp	x1, x0, [sp, #144]
  403280:	b0000260 	adrp	x0, 450000 <buffer_free+0x40>
  403284:	9131e000 	add	x0, x0, #0xc78
  403288:	72b2a089 	movk	w9, #0x9504, lsl #16
  40328c:	d2800001 	mov	x1, #0x0                   	// #0
  403290:	f90053e0 	str	x0, [sp, #160]
  403294:	b0000260 	adrp	x0, 450000 <buffer_free+0x40>
  403298:	91322000 	add	x0, x0, #0xc88
  40329c:	f90057e0 	str	x0, [sp, #168]
  4032a0:	6b09033f 	cmp	w25, w9
  4032a4:	b8616940 	ldr	w0, [x10, x1]
  4032a8:	b8616a82 	ldr	w2, [x20, x1]
  4032ac:	540019e0 	b.eq	4035e8 <_nl_load_domain+0x5f8>  // b.none
  4032b0:	5ac00800 	rev	w0, w0
  4032b4:	5ac00842 	rev	w2, w2
  4032b8:	8b000360 	add	x0, x27, x0
  4032bc:	34002562 	cbz	w2, 403768 <_nl_load_domain+0x778>
  4032c0:	51000442 	sub	w2, w2, #0x1
  4032c4:	38624802 	ldrb	w2, [x0, w2, uxtw]
  4032c8:	35002502 	cbnz	w2, 403768 <_nl_load_domain+0x778>
  4032cc:	39400002 	ldrb	w2, [x0]
  4032d0:	7101405f 	cmp	w2, #0x50
  4032d4:	540018e0 	b.eq	4035f0 <_nl_load_domain+0x600>  // b.none
  4032d8:	7101245f 	cmp	w2, #0x49
  4032dc:	540024e1 	b.ne	403778 <_nl_load_domain+0x788>  // b.any
  4032e0:	39400400 	ldrb	w0, [x0, #1]
  4032e4:	7100001f 	cmp	w0, #0x0
  4032e8:	9a9f0162 	csel	x2, x11, xzr, eq  // eq = none
  4032ec:	f8216862 	str	x2, [x3, x1]
  4032f0:	91002021 	add	x1, x1, #0x8
  4032f4:	eb01011f 	cmp	x8, x1
  4032f8:	54fffd41 	b.ne	4032a0 <_nl_load_domain+0x2b0>  // b.any
  4032fc:	52825bc0 	mov	w0, #0x12de                	// #4830
  403300:	72b2a080 	movk	w0, #0x9504, lsl #16
  403304:	6b00033f 	cmp	w25, w0
  403308:	29450361 	ldp	w1, w0, [x27, #40]
  40330c:	54002760 	b.eq	4037f8 <_nl_load_domain+0x808>  // b.none
  403310:	5ac00821 	rev	w1, w1
  403314:	5ac00800 	rev	w0, w0
  403318:	8b010361 	add	x1, x27, x1
  40331c:	b9407be2 	ldr	w2, [sp, #120]
  403320:	8b000363 	add	x3, x27, x0
  403324:	aa0103e0 	mov	x0, x1
  403328:	a90b5ff8 	stp	x24, x23, [sp, #176]
  40332c:	51000454 	sub	w20, w2, #0x1
  403330:	91000694 	add	x20, x20, #0x1
  403334:	aa0003f8 	mov	x24, x0
  403338:	f94047f7 	ldr	x23, [sp, #136]
  40333c:	b900abfa 	str	w26, [sp, #168]
  403340:	aa0303fa 	mov	x26, x3
  403344:	d37e7e62 	ubfiz	x2, x19, #2, #32
  403348:	f9003ffb 	str	x27, [sp, #120]
  40334c:	b90093ff 	str	wzr, [sp, #144]
  403350:	f90053e2 	str	x2, [sp, #160]
  403354:	a90c0fe2 	stp	x2, x3, [sp, #192]
  403358:	f9006be1 	str	x1, [sp, #208]
  40335c:	8b140821 	add	x1, x1, x20, lsl #2
  403360:	b94083f4 	ldr	w20, [sp, #128]
  403364:	f90043f5 	str	x21, [sp, #128]
  403368:	f9004fe1 	str	x1, [sp, #152]
  40336c:	d503201f 	nop
  403370:	d2800013 	mov	x19, #0x0                   	// #0
  403374:	52825bc0 	mov	w0, #0x12de                	// #4830
  403378:	72b2a080 	movk	w0, #0x9504, lsl #16
  40337c:	6b00033f 	cmp	w25, w0
  403380:	54001da0 	b.eq	403734 <_nl_load_domain+0x744>  // b.none
  403384:	f100027f 	cmp	x19, #0x0
  403388:	9a9a0300 	csel	x0, x24, x26, eq  // eq = none
  40338c:	b9400001 	ldr	w1, [x0]
  403390:	5ac00821 	rev	w1, w1
  403394:	f9403fe0 	ldr	x0, [sp, #120]
  403398:	d2800015 	mov	x21, #0x0                   	// #0
  40339c:	8b010001 	add	x1, x0, x1
  4033a0:	b9400820 	ldr	w0, [x1, #8]
  4033a4:	3100041f 	cmn	w0, #0x1
  4033a8:	1a9f07e0 	cset	w0, ne  // ne = any
  4033ac:	35001ea0 	cbnz	w0, 403780 <_nl_load_domain+0x790>
  4033b0:	910423e0 	add	x0, sp, #0x108
  4033b4:	f8337815 	str	x21, [x0, x19, lsl #3]
  4033b8:	b4001cf3 	cbz	x19, 403754 <_nl_load_domain+0x764>
  4033bc:	b94093e1 	ldr	w1, [sp, #144]
  4033c0:	f94087e0 	ldr	x0, [sp, #264]
  4033c4:	11000421 	add	w1, w1, #0x1
  4033c8:	b90093e1 	str	w1, [sp, #144]
  4033cc:	f9408be1 	ldr	x1, [sp, #272]
  4033d0:	8b010000 	add	x0, x0, x1
  4033d4:	f94053e1 	ldr	x1, [sp, #160]
  4033d8:	8b000020 	add	x0, x1, x0
  4033dc:	f90053e0 	str	x0, [sp, #160]
  4033e0:	f9404fe0 	ldr	x0, [sp, #152]
  4033e4:	91001318 	add	x24, x24, #0x4
  4033e8:	9100135a 	add	x26, x26, #0x4
  4033ec:	eb18001f 	cmp	x0, x24
  4033f0:	54fffc01 	b.ne	403370 <_nl_load_domain+0x380>  // b.any
  4033f4:	b94093f3 	ldr	w19, [sp, #144]
  4033f8:	b940abfa 	ldr	w26, [sp, #168]
  4033fc:	a947d7fb 	ldp	x27, x21, [sp, #120]
  403400:	a94b5ff8 	ldp	x24, x23, [sp, #176]
  403404:	35003513 	cbnz	w19, 403aa4 <_nl_load_domain+0xab4>
  403408:	b90042ff 	str	wzr, [x23, #64]
  40340c:	a904feff 	stp	xzr, xzr, [x23, #72]
  403410:	f94047e0 	ldr	x0, [sp, #136]
  403414:	94004215 	bl	413c68 <__free>
  403418:	14000013 	b	403464 <_nl_load_domain+0x474>
  40341c:	13107c01 	asr	w1, w0, #16
  403420:	7100043f 	cmp	w1, #0x1
  403424:	54000a68 	b.hi	403570 <_nl_load_domain+0x580>  // b.pmore
  403428:	29424f61 	ldp	w1, w19, [x27, #16]
  40342c:	29410f64 	ldp	w4, w3, [x27, #8]
  403430:	8b010361 	add	x1, x27, x1
  403434:	b9002ae4 	str	w4, [x23, #40]
  403438:	71000a7f 	cmp	w19, #0x2
  40343c:	8b030363 	add	x3, x27, x3
  403440:	a90306e3 	stp	x3, x1, [x23, #48]
  403444:	b9005af3 	str	w19, [x23, #88]
  403448:	54000bc8 	b.hi	4035c0 <_nl_load_domain+0x5d0>  // b.pmore
  40344c:	f90032ff 	str	xzr, [x23, #96]
  403450:	12003c00 	and	w0, w0, #0xffff
  403454:	b9006af4 	str	w20, [x23, #104]
  403458:	350008c0 	cbnz	w0, 403570 <_nl_load_domain+0x580>
  40345c:	b90042ff 	str	wzr, [x23, #64]
  403460:	a904feff 	stp	xzr, xzr, [x23, #72]
  403464:	b0000260 	adrp	x0, 450000 <buffer_free+0x40>
  403468:	a9077eff 	stp	xzr, xzr, [x23, #112]
  40346c:	f9463000 	ldr	x0, [x0, #3168]
  403470:	b4000080 	cbz	x0, 403480 <_nl_load_domain+0x490>
  403474:	d2800001 	mov	x1, #0x0                   	// #0
  403478:	910202e0 	add	x0, x23, #0x80
  40347c:	d503201f 	nop
  403480:	9e660101 	fmov	x1, d8
  403484:	d00002e2 	adrp	x2, 461000 <step1_jumps.14991+0xa0>
  403488:	910403e4 	add	x4, sp, #0x100
  40348c:	9113a042 	add	x2, x2, #0x4e8
  403490:	52800003 	mov	w3, #0x0                   	// #0
  403494:	aa1503e0 	mov	x0, x21
  403498:	97fffa3c 	bl	401d88 <_nl_find_msg>
  40349c:	b100041f 	cmn	x0, #0x1
  4034a0:	540019e0 	b.eq	4037dc <_nl_load_domain+0x7ec>  // b.none
  4034a4:	910302e2 	add	x2, x23, #0xc0
  4034a8:	9102e2e1 	add	x1, x23, #0xb8
  4034ac:	94000925 	bl	405940 <__gettext_extract_plural>
  4034b0:	a94363f7 	ldp	x23, x24, [sp, #48]
  4034b4:	a9446bf9 	ldp	x25, x26, [sp, #64]
  4034b8:	b94006c1 	ldr	w1, [x22, #4]
  4034bc:	51000421 	sub	w1, w1, #0x1
  4034c0:	52800020 	mov	w0, #0x1                   	// #1
  4034c4:	b9000aa0 	str	w0, [x21, #8]
  4034c8:	b90006c1 	str	w1, [x22, #4]
  4034cc:	34000181 	cbz	w1, 4034fc <_nl_load_domain+0x50c>
  4034d0:	f940cfe0 	ldr	x0, [sp, #408]
  4034d4:	f9400381 	ldr	x1, [x28]
  4034d8:	eb010000 	subs	x0, x0, x1
  4034dc:	d2800001 	mov	x1, #0x0                   	// #0
  4034e0:	540048c1 	b.ne	403df8 <_nl_load_domain+0xe08>  // b.any
  4034e4:	a94153f3 	ldp	x19, x20, [sp, #16]
  4034e8:	a9425bf5 	ldp	x21, x22, [sp, #32]
  4034ec:	a94573fb 	ldp	x27, x28, [sp, #80]
  4034f0:	fd4033e8 	ldr	d8, [sp, #96]
  4034f4:	a8da7bfd 	ldp	x29, x30, [sp], #416
  4034f8:	d65f03c0 	ret
  4034fc:	f90006df 	str	xzr, [x22, #8]
  403500:	aa1603e1 	mov	x1, x22
  403504:	52800000 	mov	w0, #0x0                   	// #0
  403508:	94011e22 	bl	44ad90 <__aarch64_swp4_rel>
  40350c:	7100041f 	cmp	w0, #0x1
  403510:	54fffe0d 	b.le	4034d0 <_nl_load_domain+0x4e0>
  403514:	aa1603e0 	mov	x0, x22
  403518:	d2801021 	mov	x1, #0x81                  	// #129
  40351c:	d2800022 	mov	x2, #0x1                   	// #1
  403520:	d2800003 	mov	x3, #0x0                   	// #0
  403524:	d2800c48 	mov	x8, #0x62                  	// #98
  403528:	d4000001 	svc	#0x0
  40352c:	17ffffe9 	b	4034d0 <_nl_load_domain+0x4e0>
  403530:	b100041f 	cmn	x0, #0x1
  403534:	540000a1 	b.ne	403548 <_nl_load_domain+0x558>  // b.any
  403538:	f9403fe0 	ldr	x0, [sp, #120]
  40353c:	b8606a80 	ldr	w0, [x20, x0]
  403540:	7100101f 	cmp	w0, #0x4
  403544:	54000c00 	b.eq	4036c4 <_nl_load_domain+0x6d4>  // b.none
  403548:	a94363f7 	ldp	x23, x24, [sp, #48]
  40354c:	2a1303e0 	mov	w0, w19
  403550:	940056d0 	bl	419090 <__close_nocancel>
  403554:	b94006c1 	ldr	w1, [x22, #4]
  403558:	a9446bf9 	ldp	x25, x26, [sp, #64]
  40355c:	51000421 	sub	w1, w1, #0x1
  403560:	17ffffd8 	b	4034c0 <_nl_load_domain+0x4d0>
  403564:	aa1603e0 	mov	x0, x22
  403568:	94002e24 	bl	40edf8 <__lll_lock_wait_private>
  40356c:	17fffeba 	b	403054 <_nl_load_domain+0x64>
  403570:	d2800000 	mov	x0, #0x0                   	// #0
  403574:	940041bd 	bl	413c68 <__free>
  403578:	350001da 	cbnz	w26, 4035b0 <_nl_load_domain+0x5c0>
  40357c:	aa1b03e0 	mov	x0, x27
  403580:	940041ba 	bl	413c68 <__free>
  403584:	aa1703e0 	mov	x0, x23
  403588:	940041b8 	bl	413c68 <__free>
  40358c:	b94006c1 	ldr	w1, [x22, #4]
  403590:	a94363f7 	ldp	x23, x24, [sp, #48]
  403594:	51000421 	sub	w1, w1, #0x1
  403598:	a9446bf9 	ldp	x25, x26, [sp, #64]
  40359c:	f9000abf 	str	xzr, [x21, #16]
  4035a0:	17ffffc8 	b	4034c0 <_nl_load_domain+0x4d0>
  4035a4:	b94006c1 	ldr	w1, [x22, #4]
  4035a8:	51000421 	sub	w1, w1, #0x1
  4035ac:	17ffffc5 	b	4034c0 <_nl_load_domain+0x4d0>
  4035b0:	aa1803e1 	mov	x1, x24
  4035b4:	aa1b03e0 	mov	x0, x27
  4035b8:	9400580a 	bl	4195e0 <__munmap>
  4035bc:	17fffff2 	b	403584 <_nl_load_domain+0x594>
  4035c0:	b9401b61 	ldr	w1, [x27, #24]
  4035c4:	17fffef8 	b	4031a4 <_nl_load_domain+0x1b4>
  4035c8:	aa1803e1 	mov	x1, x24
  4035cc:	aa1b03e0 	mov	x0, x27
  4035d0:	94005804 	bl	4195e0 <__munmap>
  4035d4:	b94006c1 	ldr	w1, [x22, #4]
  4035d8:	a94363f7 	ldp	x23, x24, [sp, #48]
  4035dc:	51000421 	sub	w1, w1, #0x1
  4035e0:	a9446bf9 	ldp	x25, x26, [sp, #64]
  4035e4:	17ffffb7 	b	4034c0 <_nl_load_domain+0x4d0>
  4035e8:	8b204360 	add	x0, x27, w0, uxtw
  4035ec:	17ffff34 	b	4032bc <_nl_load_domain+0x2cc>
  4035f0:	39400404 	ldrb	w4, [x0, #1]
  4035f4:	d2800002 	mov	x2, #0x0                   	// #0
  4035f8:	7101489f 	cmp	w4, #0x52
  4035fc:	54ffe781 	b.ne	4032ec <_nl_load_domain+0x2fc>  // b.any
  403600:	39400804 	ldrb	w4, [x0, #2]
  403604:	7101249f 	cmp	w4, #0x49
  403608:	54ffe721 	b.ne	4032ec <_nl_load_domain+0x2fc>  // b.any
  40360c:	39400c04 	ldrb	w4, [x0, #3]
  403610:	7101909f 	cmp	w4, #0x64
  403614:	121a7892 	and	w18, w4, #0xffffffdf
  403618:	1a9f17e5 	cset	w5, eq  // eq = none
  40361c:	7101a49f 	cmp	w4, #0x69
  403620:	1a9f14a5 	csinc	w5, w5, wzr, ne  // ne = any
  403624:	7101bc9f 	cmp	w4, #0x6f
  403628:	1a9f14ac 	csinc	w12, w5, wzr, ne  // ne = any
  40362c:	7101d49f 	cmp	w4, #0x75
  403630:	1a9f1586 	csinc	w6, w12, wzr, ne  // ne = any
  403634:	7101625f 	cmp	w18, #0x58
  403638:	7a4018c0 	ccmp	w6, #0x0, #0x0, ne  // ne = any
  40363c:	54ffe580 	b.eq	4032ec <_nl_load_domain+0x2fc>  // b.none
  403640:	39401012 	ldrb	w18, [x0, #4]
  403644:	7100e25f 	cmp	w18, #0x38
  403648:	54001c40 	b.eq	4039d0 <_nl_load_domain+0x9e0>  // b.none
  40364c:	7100c65f 	cmp	w18, #0x31
  403650:	54001dc0 	b.eq	403a08 <_nl_load_domain+0xa18>  // b.none
  403654:	7100ce5f 	cmp	w18, #0x33
  403658:	54000d61 	b.ne	403804 <_nl_load_domain+0x814>  // b.any
  40365c:	39401412 	ldrb	w18, [x0, #5]
  403660:	7100ca5f 	cmp	w18, #0x32
  403664:	54ffe441 	b.ne	4032ec <_nl_load_domain+0x2fc>  // b.any
  403668:	39401800 	ldrb	w0, [x0, #6]
  40366c:	35003ea0 	cbnz	w0, 403e40 <_nl_load_domain+0xe50>
  403670:	7101909f 	cmp	w4, #0x64
  403674:	54003fa0 	b.eq	403e68 <_nl_load_domain+0xe78>  // b.none
  403678:	35003fc5 	cbnz	w5, 403e70 <_nl_load_domain+0xe80>
  40367c:	3500402c 	cbnz	w12, 403e80 <_nl_load_domain+0xe90>
  403680:	35003fc6 	cbnz	w6, 403e78 <_nl_load_domain+0xe88>
  403684:	7101e09f 	cmp	w4, #0x78
  403688:	54004400 	b.eq	403f08 <_nl_load_domain+0xf18>  // b.none
  40368c:	7101609f 	cmp	w4, #0x58
  403690:	54005ca1 	b.ne	404224 <_nl_load_domain+0x1234>  // b.any
  403694:	d00002e2 	adrp	x2, 461000 <step1_jumps.14991+0xa0>
  403698:	9111a042 	add	x2, x2, #0x468
  40369c:	17ffff14 	b	4032ec <_nl_load_domain+0x2fc>
  4036a0:	aa1803e0 	mov	x0, x24
  4036a4:	94003fdd 	bl	413618 <__libc_malloc>
  4036a8:	aa0003fb 	mov	x27, x0
  4036ac:	b4fff4e0 	cbz	x0, 403548 <_nl_load_domain+0x558>
  4036b0:	aa0003f7 	mov	x23, x0
  4036b4:	aa1803f9 	mov	x25, x24
  4036b8:	d0000400 	adrp	x0, 485000 <__FRAME_END__+0xfc98>
  4036bc:	f947c000 	ldr	x0, [x0, #3968]
  4036c0:	f9003fe0 	str	x0, [sp, #120]
  4036c4:	aa1903e2 	mov	x2, x25
  4036c8:	aa1703e1 	mov	x1, x23
  4036cc:	2a1303e0 	mov	w0, w19
  4036d0:	94005726 	bl	419368 <__read_nocancel>
  4036d4:	f100001f 	cmp	x0, #0x0
  4036d8:	54fff2cd 	b.le	403530 <_nl_load_domain+0x540>
  4036dc:	8b0002f7 	add	x23, x23, x0
  4036e0:	eb000339 	subs	x25, x25, x0
  4036e4:	54ffff01 	b.ne	4036c4 <_nl_load_domain+0x6d4>  // b.any
  4036e8:	2a1303e0 	mov	w0, w19
  4036ec:	94005669 	bl	419090 <__close_nocancel>
  4036f0:	b9400379 	ldr	w25, [x27]
  4036f4:	52825bc1 	mov	w1, #0x12de                	// #4830
  4036f8:	72b2a081 	movk	w1, #0x9504, lsl #16
  4036fc:	528092a0 	mov	w0, #0x495                 	// #1173
  403700:	6b01033f 	cmp	w25, w1
  403704:	72bbc240 	movk	w0, #0xde12, lsl #16
  403708:	1a9f07f4 	cset	w20, ne  // ne = any
  40370c:	7100029f 	cmp	w20, #0x0
  403710:	7a401324 	ccmp	w25, w0, #0x4, ne  // ne = any
  403714:	54ffd040 	b.eq	40311c <_nl_load_domain+0x12c>  // b.none
  403718:	aa1b03e0 	mov	x0, x27
  40371c:	94004153 	bl	413c68 <__free>
  403720:	b94006c1 	ldr	w1, [x22, #4]
  403724:	a94363f7 	ldp	x23, x24, [sp, #48]
  403728:	51000421 	sub	w1, w1, #0x1
  40372c:	a9446bf9 	ldp	x25, x26, [sp, #64]
  403730:	17ffff64 	b	4034c0 <_nl_load_domain+0x4d0>
  403734:	b4000513 	cbz	x19, 4037d4 <_nl_load_domain+0x7e4>
  403738:	b9400341 	ldr	w1, [x26]
  40373c:	17ffff16 	b	403394 <_nl_load_domain+0x3a4>
  403740:	b9407be0 	ldr	w0, [sp, #120]
  403744:	34ffe8c0 	cbz	w0, 40345c <_nl_load_domain+0x46c>
  403748:	2943d360 	ldp	w0, w20, [x27, #28]
  40374c:	b90083e0 	str	w0, [sp, #128]
  403750:	17fffea8 	b	4031f0 <_nl_load_domain+0x200>
  403754:	d2800033 	mov	x19, #0x1                   	// #1
  403758:	17ffff07 	b	403374 <_nl_load_domain+0x384>
  40375c:	a947d7fb 	ldp	x27, x21, [sp, #120]
  403760:	a94b5ff8 	ldp	x24, x23, [sp, #176]
  403764:	b940abfa 	ldr	w26, [sp, #168]
  403768:	f94047e0 	ldr	x0, [sp, #136]
  40376c:	9400413f 	bl	413c68 <__free>
  403770:	d2800000 	mov	x0, #0x0                   	// #0
  403774:	17ffff80 	b	403574 <_nl_load_domain+0x584>
  403778:	d2800002 	mov	x2, #0x0                   	// #0
  40377c:	17fffedc 	b	4032ec <_nl_load_domain+0x2fc>
  403780:	9100103b 	add	x27, x1, #0x4
  403784:	1400000d 	b	4037b8 <_nl_load_domain+0x7c8>
  403788:	5ac00800 	rev	w0, w0
  40378c:	5ac00842 	rev	w2, w2
  403790:	8b150015 	add	x21, x0, x21
  403794:	3100045f 	cmn	w2, #0x1
  403798:	54ffe0c0 	b.eq	4033b0 <_nl_load_domain+0x3c0>  // b.none
  40379c:	6b14005f 	cmp	w2, w20
  4037a0:	54fffde2 	b.cs	40375c <_nl_load_domain+0x76c>  // b.hs, b.nlast
  4037a4:	f8625ae0 	ldr	x0, [x23, w2, uxtw #3]
  4037a8:	b4ffe1c0 	cbz	x0, 4033e0 <_nl_load_domain+0x3f0>
  4037ac:	94004775 	bl	415580 <__strlen>
  4037b0:	9100237b 	add	x27, x27, #0x8
  4037b4:	8b150015 	add	x21, x0, x21
  4037b8:	52825bc0 	mov	w0, #0x12de                	// #4830
  4037bc:	72b2a080 	movk	w0, #0x9504, lsl #16
  4037c0:	6b00033f 	cmp	w25, w0
  4037c4:	29400b60 	ldp	w0, w2, [x27]
  4037c8:	54fffe01 	b.ne	403788 <_nl_load_domain+0x798>  // b.any
  4037cc:	8b2042b5 	add	x21, x21, w0, uxtw
  4037d0:	17fffff1 	b	403794 <_nl_load_domain+0x7a4>
  4037d4:	b9400301 	ldr	w1, [x24]
  4037d8:	17fffeef 	b	403394 <_nl_load_domain+0x3a4>
  4037dc:	b0000260 	adrp	x0, 450000 <buffer_free+0x40>
  4037e0:	f9463400 	ldr	x0, [x0, #3176]
  4037e4:	b4000060 	cbz	x0, 4037f0 <_nl_load_domain+0x800>
  4037e8:	910202e0 	add	x0, x23, #0x80
  4037ec:	d503201f 	nop
  4037f0:	f94012e0 	ldr	x0, [x23, #32]
  4037f4:	17ffff60 	b	403574 <_nl_load_domain+0x584>
  4037f8:	8b214361 	add	x1, x27, w1, uxtw
  4037fc:	2a0003e0 	mov	w0, w0
  403800:	17fffec7 	b	40331c <_nl_load_domain+0x32c>
  403804:	7100da5f 	cmp	w18, #0x36
  403808:	54000241 	b.ne	403850 <_nl_load_domain+0x860>  // b.any
  40380c:	39401412 	ldrb	w18, [x0, #5]
  403810:	d2800002 	mov	x2, #0x0                   	// #0
  403814:	7100d25f 	cmp	w18, #0x34
  403818:	54ffd6a1 	b.ne	4032ec <_nl_load_domain+0x2fc>  // b.any
  40381c:	39401800 	ldrb	w0, [x0, #6]
  403820:	35ffd660 	cbnz	w0, 4032ec <_nl_load_domain+0x2fc>
  403824:	7101909f 	cmp	w4, #0x64
  403828:	540034c0 	b.eq	403ec0 <_nl_load_domain+0xed0>  // b.none
  40382c:	35003465 	cbnz	w5, 403eb8 <_nl_load_domain+0xec8>
  403830:	3500340c 	cbnz	w12, 403eb0 <_nl_load_domain+0xec0>
  403834:	350033a6 	cbnz	w6, 403ea8 <_nl_load_domain+0xeb8>
  403838:	7101e09f 	cmp	w4, #0x78
  40383c:	54003460 	b.eq	403ec8 <_nl_load_domain+0xed8>  // b.none
  403840:	7101609f 	cmp	w4, #0x58
  403844:	54004f01 	b.ne	404224 <_nl_load_domain+0x1234>  // b.any
  403848:	aa0703e2 	mov	x2, x7
  40384c:	17fffea8 	b	4032ec <_nl_load_domain+0x2fc>
  403850:	7101325f 	cmp	w18, #0x4c
  403854:	540004c1 	b.ne	4038ec <_nl_load_domain+0x8fc>  // b.any
  403858:	39401412 	ldrb	w18, [x0, #5]
  40385c:	d2800002 	mov	x2, #0x0                   	// #0
  403860:	7101165f 	cmp	w18, #0x45
  403864:	54ffd441 	b.ne	4032ec <_nl_load_domain+0x2fc>  // b.any
  403868:	39401812 	ldrb	w18, [x0, #6]
  40386c:	7101065f 	cmp	w18, #0x41
  403870:	54ffd3e1 	b.ne	4032ec <_nl_load_domain+0x2fc>  // b.any
  403874:	39401c12 	ldrb	w18, [x0, #7]
  403878:	71014e5f 	cmp	w18, #0x53
  40387c:	54ffd381 	b.ne	4032ec <_nl_load_domain+0x2fc>  // b.any
  403880:	39402012 	ldrb	w18, [x0, #8]
  403884:	7101525f 	cmp	w18, #0x54
  403888:	54ffd321 	b.ne	4032ec <_nl_load_domain+0x2fc>  // b.any
  40388c:	39402412 	ldrb	w18, [x0, #9]
  403890:	7100e25f 	cmp	w18, #0x38
  403894:	540039a0 	b.eq	403fc8 <_nl_load_domain+0xfd8>  // b.none
  403898:	7100c65f 	cmp	w18, #0x31
  40389c:	54003740 	b.eq	403f84 <_nl_load_domain+0xf94>  // b.none
  4038a0:	7100ce5f 	cmp	w18, #0x33
  4038a4:	54003621 	b.ne	403f68 <_nl_load_domain+0xf78>  // b.any
  4038a8:	39402812 	ldrb	w18, [x0, #10]
  4038ac:	7100ca5f 	cmp	w18, #0x32
  4038b0:	54ffd1e1 	b.ne	4032ec <_nl_load_domain+0x2fc>  // b.any
  4038b4:	39402c00 	ldrb	w0, [x0, #11]
  4038b8:	35003540 	cbnz	w0, 403f60 <_nl_load_domain+0xf70>
  4038bc:	7101909f 	cmp	w4, #0x64
  4038c0:	540034c0 	b.eq	403f58 <_nl_load_domain+0xf68>  // b.none
  4038c4:	35003465 	cbnz	w5, 403f50 <_nl_load_domain+0xf60>
  4038c8:	3500340c 	cbnz	w12, 403f48 <_nl_load_domain+0xf58>
  4038cc:	350033a6 	cbnz	w6, 403f40 <_nl_load_domain+0xf50>
  4038d0:	7101e09f 	cmp	w4, #0x78
  4038d4:	54002e20 	b.eq	403e98 <_nl_load_domain+0xea8>  // b.none
  4038d8:	7101609f 	cmp	w4, #0x58
  4038dc:	54004a41 	b.ne	404224 <_nl_load_domain+0x1234>  // b.any
  4038e0:	d00002e2 	adrp	x2, 461000 <step1_jumps.14991+0xa0>
  4038e4:	9111a042 	add	x2, x2, #0x468
  4038e8:	17fffe81 	b	4032ec <_nl_load_domain+0x2fc>
  4038ec:	71011a5f 	cmp	w18, #0x46
  4038f0:	54000441 	b.ne	403978 <_nl_load_domain+0x988>  // b.any
  4038f4:	39401412 	ldrb	w18, [x0, #5]
  4038f8:	d2800002 	mov	x2, #0x0                   	// #0
  4038fc:	7101065f 	cmp	w18, #0x41
  403900:	54ffcf61 	b.ne	4032ec <_nl_load_domain+0x2fc>  // b.any
  403904:	39401812 	ldrb	w18, [x0, #6]
  403908:	71014e5f 	cmp	w18, #0x53
  40390c:	54ffcf01 	b.ne	4032ec <_nl_load_domain+0x2fc>  // b.any
  403910:	39401c12 	ldrb	w18, [x0, #7]
  403914:	7101525f 	cmp	w18, #0x54
  403918:	54ffcea1 	b.ne	4032ec <_nl_load_domain+0x2fc>  // b.any
  40391c:	39402012 	ldrb	w18, [x0, #8]
  403920:	7100e25f 	cmp	w18, #0x38
  403924:	540040a0 	b.eq	404138 <_nl_load_domain+0x1148>  // b.none
  403928:	7100c65f 	cmp	w18, #0x31
  40392c:	54003e60 	b.eq	4040f8 <_nl_load_domain+0x1108>  // b.none
  403930:	7100ce5f 	cmp	w18, #0x33
  403934:	54003d41 	b.ne	4040dc <_nl_load_domain+0x10ec>  // b.any
  403938:	39402412 	ldrb	w18, [x0, #9]
  40393c:	7100ca5f 	cmp	w18, #0x32
  403940:	54ffcd61 	b.ne	4032ec <_nl_load_domain+0x2fc>  // b.any
  403944:	39402800 	ldrb	w0, [x0, #10]
  403948:	35003c60 	cbnz	w0, 4040d4 <_nl_load_domain+0x10e4>
  40394c:	7101909f 	cmp	w4, #0x64
  403950:	54003be0 	b.eq	4040cc <_nl_load_domain+0x10dc>  // b.none
  403954:	35003b85 	cbnz	w5, 4040c4 <_nl_load_domain+0x10d4>
  403958:	35003b2c 	cbnz	w12, 4040bc <_nl_load_domain+0x10cc>
  40395c:	35003ac6 	cbnz	w6, 4040b4 <_nl_load_domain+0x10c4>
  403960:	7101e09f 	cmp	w4, #0x78
  403964:	540029e0 	b.eq	403ea0 <_nl_load_domain+0xeb0>  // b.none
  403968:	7101609f 	cmp	w4, #0x58
  40396c:	540045c1 	b.ne	404224 <_nl_load_domain+0x1234>  // b.any
  403970:	aa0703e2 	mov	x2, x7
  403974:	17fffe5e 	b	4032ec <_nl_load_domain+0x2fc>
  403978:	7101365f 	cmp	w18, #0x4d
  40397c:	54000681 	b.ne	403a4c <_nl_load_domain+0xa5c>  // b.any
  403980:	39401412 	ldrb	w18, [x0, #5]
  403984:	d2800002 	mov	x2, #0x0                   	// #0
  403988:	7101065f 	cmp	w18, #0x41
  40398c:	54ffcb01 	b.ne	4032ec <_nl_load_domain+0x2fc>  // b.any
  403990:	39401812 	ldrb	w18, [x0, #6]
  403994:	7101625f 	cmp	w18, #0x58
  403998:	54ffcaa1 	b.ne	4032ec <_nl_load_domain+0x2fc>  // b.any
  40399c:	39401c00 	ldrb	w0, [x0, #7]
  4039a0:	35ffca60 	cbnz	w0, 4032ec <_nl_load_domain+0x2fc>
  4039a4:	7101909f 	cmp	w4, #0x64
  4039a8:	54002940 	b.eq	403ed0 <_nl_load_domain+0xee0>  // b.none
  4039ac:	35002a25 	cbnz	w5, 403ef0 <_nl_load_domain+0xf00>
  4039b0:	350029cc 	cbnz	w12, 403ee8 <_nl_load_domain+0xef8>
  4039b4:	35002966 	cbnz	w6, 403ee0 <_nl_load_domain+0xef0>
  4039b8:	7101e09f 	cmp	w4, #0x78
  4039bc:	540028e0 	b.eq	403ed8 <_nl_load_domain+0xee8>  // b.none
  4039c0:	7101609f 	cmp	w4, #0x58
  4039c4:	54004301 	b.ne	404224 <_nl_load_domain+0x1234>  // b.any
  4039c8:	aa0703e2 	mov	x2, x7
  4039cc:	17fffe48 	b	4032ec <_nl_load_domain+0x2fc>
  4039d0:	39401400 	ldrb	w0, [x0, #5]
  4039d4:	35ffc8c0 	cbnz	w0, 4032ec <_nl_load_domain+0x2fc>
  4039d8:	7101909f 	cmp	w4, #0x64
  4039dc:	540022e0 	b.eq	403e38 <_nl_load_domain+0xe48>  // b.none
  4039e0:	35002285 	cbnz	w5, 403e30 <_nl_load_domain+0xe40>
  4039e4:	350023ac 	cbnz	w12, 403e58 <_nl_load_domain+0xe68>
  4039e8:	35002346 	cbnz	w6, 403e50 <_nl_load_domain+0xe60>
  4039ec:	7101e09f 	cmp	w4, #0x78
  4039f0:	54002380 	b.eq	403e60 <_nl_load_domain+0xe70>  // b.none
  4039f4:	7101609f 	cmp	w4, #0x58
  4039f8:	54004161 	b.ne	404224 <_nl_load_domain+0x1234>  // b.any
  4039fc:	d00002e2 	adrp	x2, 461000 <step1_jumps.14991+0xa0>
  403a00:	9111a042 	add	x2, x2, #0x468
  403a04:	17fffe3a 	b	4032ec <_nl_load_domain+0x2fc>
  403a08:	39401412 	ldrb	w18, [x0, #5]
  403a0c:	7100da5f 	cmp	w18, #0x36
  403a10:	54ffc6e1 	b.ne	4032ec <_nl_load_domain+0x2fc>  // b.any
  403a14:	39401800 	ldrb	w0, [x0, #6]
  403a18:	35002080 	cbnz	w0, 403e28 <_nl_load_domain+0xe38>
  403a1c:	7101909f 	cmp	w4, #0x64
  403a20:	54002140 	b.eq	403e48 <_nl_load_domain+0xe58>  // b.none
  403a24:	35002365 	cbnz	w5, 403e90 <_nl_load_domain+0xea0>
  403a28:	3500230c 	cbnz	w12, 403e88 <_nl_load_domain+0xe98>
  403a2c:	350026a6 	cbnz	w6, 403f00 <_nl_load_domain+0xf10>
  403a30:	7101e09f 	cmp	w4, #0x78
  403a34:	54002620 	b.eq	403ef8 <_nl_load_domain+0xf08>  // b.none
  403a38:	7101609f 	cmp	w4, #0x58
  403a3c:	54003f41 	b.ne	404224 <_nl_load_domain+0x1234>  // b.any
  403a40:	d00002e2 	adrp	x2, 461000 <step1_jumps.14991+0xa0>
  403a44:	9111a042 	add	x2, x2, #0x468
  403a48:	17fffe29 	b	4032ec <_nl_load_domain+0x2fc>
  403a4c:	7101425f 	cmp	w18, #0x50
  403a50:	54002741 	b.ne	403f38 <_nl_load_domain+0xf48>  // b.any
  403a54:	39401412 	ldrb	w18, [x0, #5]
  403a58:	d2800002 	mov	x2, #0x0                   	// #0
  403a5c:	7101525f 	cmp	w18, #0x54
  403a60:	54ffc461 	b.ne	4032ec <_nl_load_domain+0x2fc>  // b.any
  403a64:	39401812 	ldrb	w18, [x0, #6]
  403a68:	71014a5f 	cmp	w18, #0x52
  403a6c:	54ffc401 	b.ne	4032ec <_nl_load_domain+0x2fc>  // b.any
  403a70:	39401c00 	ldrb	w0, [x0, #7]
  403a74:	35ffc3c0 	cbnz	w0, 4032ec <_nl_load_domain+0x2fc>
  403a78:	7101909f 	cmp	w4, #0x64
  403a7c:	540025a0 	b.eq	403f30 <_nl_load_domain+0xf40>  // b.none
  403a80:	35002545 	cbnz	w5, 403f28 <_nl_load_domain+0xf38>
  403a84:	350024ec 	cbnz	w12, 403f20 <_nl_load_domain+0xf30>
  403a88:	35002486 	cbnz	w6, 403f18 <_nl_load_domain+0xf28>
  403a8c:	7101e09f 	cmp	w4, #0x78
  403a90:	54002400 	b.eq	403f10 <_nl_load_domain+0xf20>  // b.none
  403a94:	7101609f 	cmp	w4, #0x58
  403a98:	54003c61 	b.ne	404224 <_nl_load_domain+0x1234>  // b.any
  403a9c:	aa0703e2 	mov	x2, x7
  403aa0:	17fffe13 	b	4032ec <_nl_load_domain+0x2fc>
  403aa4:	f94053e1 	ldr	x1, [sp, #160]
  403aa8:	531f7a60 	lsl	w0, w19, #1
  403aac:	8b205020 	add	x0, x1, w0, uxtw #4
  403ab0:	94003eda 	bl	413618 <__libc_malloc>
  403ab4:	f9005be0 	str	x0, [sp, #176]
  403ab8:	b4ffd5c0 	cbz	x0, 403570 <_nl_load_domain+0x580>
  403abc:	d37c7e63 	ubfiz	x3, x19, #4, #32
  403ac0:	f90012e0 	str	x0, [x23, #32]
  403ac4:	8b030001 	add	x1, x0, x3
  403ac8:	f90057f7 	str	x23, [sp, #168]
  403acc:	f94063e0 	ldr	x0, [sp, #192]
  403ad0:	f9007ff5 	str	x21, [sp, #248]
  403ad4:	a94cdff5 	ldp	x21, x23, [sp, #200]
  403ad8:	8b030039 	add	x25, x1, x3
  403adc:	8b000328 	add	x8, x25, x0
  403ae0:	a90ee7f8 	stp	x24, x25, [sp, #232]
  403ae4:	aa0803f9 	mov	x25, x8
  403ae8:	f94047f8 	ldr	x24, [sp, #136]
  403aec:	b900a3ff 	str	wzr, [sp, #160]
  403af0:	f9006fe1 	str	x1, [sp, #216]
  403af4:	b900e7fa 	str	w26, [sp, #228]
  403af8:	f94057e0 	ldr	x0, [sp, #168]
  403afc:	52800009 	mov	w9, #0x0                   	// #0
  403b00:	b940181a 	ldr	w26, [x0, #24]
  403b04:	340014da 	cbz	w26, 403d9c <_nl_load_domain+0xdac>
  403b08:	7100013f 	cmp	w9, #0x0
  403b0c:	9a9502e0 	csel	x0, x23, x21, eq  // eq = none
  403b10:	b9400001 	ldr	w1, [x0]
  403b14:	5ac00821 	rev	w1, w1
  403b18:	8b010361 	add	x1, x27, x1
  403b1c:	b9400820 	ldr	w0, [x1, #8]
  403b20:	3100041f 	cmn	w0, #0x1
  403b24:	1a9f07e0 	cset	w0, ne  // ne = any
  403b28:	350004c0 	cbnz	w0, 403bc0 <_nl_load_domain+0xbd0>
  403b2c:	34001489 	cbz	w9, 403dbc <_nl_load_domain+0xdcc>
  403b30:	f94053e0 	ldr	x0, [sp, #160]
  403b34:	a90bdff5 	stp	x21, x23, [sp, #184]
  403b38:	aa1b03f7 	mov	x23, x27
  403b3c:	2a1a03f5 	mov	w21, w26
  403b40:	aa1903fb 	mov	x27, x25
  403b44:	d37c7c13 	ubfiz	x19, x0, #4, #32
  403b48:	b9007bff 	str	wzr, [sp, #120]
  403b4c:	f9405be0 	ldr	x0, [sp, #176]
  403b50:	8b130000 	add	x0, x0, x19
  403b54:	f90067e0 	str	x0, [sp, #200]
  403b58:	f9406fe0 	ldr	x0, [sp, #216]
  403b5c:	8b130000 	add	x0, x0, x19
  403b60:	f9006be0 	str	x0, [sp, #208]
  403b64:	b9407be0 	ldr	w0, [sp, #120]
  403b68:	34000455 	cbz	w21, 403bf0 <_nl_load_domain+0xc00>
  403b6c:	340014c0 	cbz	w0, 403e04 <_nl_load_domain+0xe14>
  403b70:	f9405fe0 	ldr	x0, [sp, #184]
  403b74:	f9406bf9 	ldr	x25, [sp, #208]
  403b78:	b9400000 	ldr	w0, [x0]
  403b7c:	5ac00800 	rev	w0, w0
  403b80:	8b0002f3 	add	x19, x23, x0
  403b84:	b8606af4 	ldr	w20, [x23, x0]
  403b88:	29408660 	ldp	w0, w1, [x19, #4]
  403b8c:	5ac00a94 	rev	w20, w20
  403b90:	8b1402f4 	add	x20, x23, x20
  403b94:	3100043f 	cmn	w1, #0x1
  403b98:	5ac00800 	rev	w0, w0
  403b9c:	540003e1 	b.ne	403c18 <_nl_load_domain+0xc28>  // b.any
  403ba0:	a9005320 	stp	x0, x20, [x25]
  403ba4:	b9407be0 	ldr	w0, [sp, #120]
  403ba8:	35000600 	cbnz	w0, 403c68 <_nl_load_domain+0xc78>
  403bac:	52800020 	mov	w0, #0x1                   	// #1
  403bb0:	b9007be0 	str	w0, [sp, #120]
  403bb4:	f94057e0 	ldr	x0, [sp, #168]
  403bb8:	b9401815 	ldr	w21, [x0, #24]
  403bbc:	17ffffea 	b	403b64 <_nl_load_domain+0xb74>
  403bc0:	91001021 	add	x1, x1, #0x4
  403bc4:	14000004 	b	403bd4 <_nl_load_domain+0xbe4>
  403bc8:	f8605b00 	ldr	x0, [x24, w0, uxtw #3]
  403bcc:	b40005a0 	cbz	x0, 403c80 <_nl_load_domain+0xc90>
  403bd0:	91002021 	add	x1, x1, #0x8
  403bd4:	b9400420 	ldr	w0, [x1, #4]
  403bd8:	7100035f 	cmp	w26, #0x0
  403bdc:	5ac00802 	rev	w2, w0
  403be0:	1a801040 	csel	w0, w2, w0, ne  // ne = any
  403be4:	3100041f 	cmn	w0, #0x1
  403be8:	54ffff01 	b.ne	403bc8 <_nl_load_domain+0xbd8>  // b.any
  403bec:	17ffffd0 	b	403b2c <_nl_load_domain+0xb3c>
  403bf0:	34001100 	cbz	w0, 403e10 <_nl_load_domain+0xe20>
  403bf4:	f9405fe0 	ldr	x0, [sp, #184]
  403bf8:	f9406bf9 	ldr	x25, [sp, #208]
  403bfc:	b9400000 	ldr	w0, [x0]
  403c00:	8b0002f3 	add	x19, x23, x0
  403c04:	b8606af4 	ldr	w20, [x23, x0]
  403c08:	8b1402f4 	add	x20, x23, x20
  403c0c:	29408660 	ldp	w0, w1, [x19, #4]
  403c10:	3100043f 	cmn	w1, #0x1
  403c14:	54fffc60 	b.eq	403ba0 <_nl_load_domain+0xbb0>  // b.none
  403c18:	91001273 	add	x19, x19, #0x4
  403c1c:	f900073b 	str	x27, [x25, #8]
  403c20:	29406a60 	ldp	w0, w26, [x19]
  403c24:	34000075 	cbz	w21, 403c30 <_nl_load_domain+0xc40>
  403c28:	5ac00800 	rev	w0, w0
  403c2c:	5ac00b5a 	rev	w26, w26
  403c30:	35000ca0 	cbnz	w0, 403dc4 <_nl_load_domain+0xdd4>
  403c34:	3100075f 	cmn	w26, #0x1
  403c38:	54000d80 	b.eq	403de8 <_nl_load_domain+0xdf8>  // b.none
  403c3c:	f87a5b01 	ldr	x1, [x24, w26, uxtw #3]
  403c40:	f90043e1 	str	x1, [sp, #128]
  403c44:	91002273 	add	x19, x19, #0x8
  403c48:	aa0103e0 	mov	x0, x1
  403c4c:	9400464d 	bl	415580 <__strlen>
  403c50:	aa0003e2 	mov	x2, x0
  403c54:	f94043e1 	ldr	x1, [sp, #128]
  403c58:	aa1b03e0 	mov	x0, x27
  403c5c:	8b02037b 	add	x27, x27, x2
  403c60:	97fff170 	bl	400220 <.plt+0x10>
  403c64:	17ffffef 	b	403c20 <_nl_load_domain+0xc30>
  403c68:	aa1b03f9 	mov	x25, x27
  403c6c:	aa1703fb 	mov	x27, x23
  403c70:	a94bdff5 	ldp	x21, x23, [sp, #184]
  403c74:	b940a3e0 	ldr	w0, [sp, #160]
  403c78:	11000400 	add	w0, w0, #0x1
  403c7c:	b900a3e0 	str	w0, [sp, #160]
  403c80:	f9404fe0 	ldr	x0, [sp, #152]
  403c84:	910012f7 	add	x23, x23, #0x4
  403c88:	910012b5 	add	x21, x21, #0x4
  403c8c:	eb17001f 	cmp	x0, x23
  403c90:	54fff341 	b.ne	403af8 <_nl_load_domain+0xb08>  // b.any
  403c94:	b94093e0 	ldr	w0, [sp, #144]
  403c98:	b940a3e1 	ldr	w1, [sp, #160]
  403c9c:	b940e7fa 	ldr	w26, [sp, #228]
  403ca0:	6b01001f 	cmp	w0, w1
  403ca4:	f94057f7 	ldr	x23, [sp, #168]
  403ca8:	a94ee7f8 	ldp	x24, x25, [sp, #232]
  403cac:	f9407ff5 	ldr	x21, [sp, #248]
  403cb0:	54002ba1 	b.ne	404224 <_nl_load_domain+0x1234>  // b.any
  403cb4:	b9405ae8 	ldr	w8, [x23, #88]
  403cb8:	34000188 	cbz	w8, 403ce8 <_nl_load_domain+0xcf8>
  403cbc:	b9406ae9 	ldr	w9, [x23, #104]
  403cc0:	d2800000 	mov	x0, #0x0                   	// #0
  403cc4:	f94032ea 	ldr	x10, [x23, #96]
  403cc8:	7100013f 	cmp	w9, #0x0
  403ccc:	b8607941 	ldr	w1, [x10, x0, lsl #2]
  403cd0:	5ac00822 	rev	w2, w1
  403cd4:	1a811041 	csel	w1, w2, w1, ne  // ne = any
  403cd8:	b8207b21 	str	w1, [x25, x0, lsl #2]
  403cdc:	91000400 	add	x0, x0, #0x1
  403ce0:	6b00011f 	cmp	w8, w0
  403ce4:	54ffff28 	b.hi	403cc8 <_nl_load_domain+0xcd8>  // b.pmore
  403ce8:	f9405be0 	ldr	x0, [sp, #176]
  403cec:	52800013 	mov	w19, #0x0                   	// #0
  403cf0:	91002014 	add	x20, x0, #0x8
  403cf4:	aa1403e0 	mov	x0, x20
  403cf8:	2a1303f4 	mov	w20, w19
  403cfc:	aa1703f3 	mov	x19, x23
  403d00:	aa0003f7 	mov	x23, x0
  403d04:	f94002e0 	ldr	x0, [x23]
  403d08:	9400075c 	bl	405a78 <__hash_string>
  403d0c:	b9405a62 	ldr	w2, [x19, #88]
  403d10:	51000844 	sub	w4, w2, #0x2
  403d14:	1ac20801 	udiv	w1, w0, w2
  403d18:	1ac40803 	udiv	w3, w0, w4
  403d1c:	1b028021 	msub	w1, w1, w2, w0
  403d20:	1b048063 	msub	w3, w3, w4, w0
  403d24:	11000463 	add	w3, w3, #0x1
  403d28:	4b030045 	sub	w5, w2, w3
  403d2c:	4b020062 	sub	w2, w3, w2
  403d30:	14000005 	b	403d44 <_nl_load_domain+0xd54>
  403d34:	6b0100bf 	cmp	w5, w1
  403d38:	0b020020 	add	w0, w1, w2
  403d3c:	0b030021 	add	w1, w1, w3
  403d40:	1a808021 	csel	w1, w1, w0, hi  // hi = pmore
  403d44:	2a0103e0 	mov	w0, w1
  403d48:	8b000b24 	add	x4, x25, x0, lsl #2
  403d4c:	b8607b20 	ldr	w0, [x25, x0, lsl #2]
  403d50:	35ffff20 	cbnz	w0, 403d34 <_nl_load_domain+0xd44>
  403d54:	b9402a60 	ldr	w0, [x19, #40]
  403d58:	910042f7 	add	x23, x23, #0x10
  403d5c:	11000400 	add	w0, w0, #0x1
  403d60:	0b140000 	add	w0, w0, w20
  403d64:	b9000080 	str	w0, [x4]
  403d68:	b94093e0 	ldr	w0, [sp, #144]
  403d6c:	11000694 	add	w20, w20, #0x1
  403d70:	6b14001f 	cmp	w0, w20
  403d74:	54fffc81 	b.ne	403d04 <_nl_load_domain+0xd14>  // b.any
  403d78:	b9004260 	str	w0, [x19, #64]
  403d7c:	aa1303f7 	mov	x23, x19
  403d80:	f9405be0 	ldr	x0, [sp, #176]
  403d84:	f9002660 	str	x0, [x19, #72]
  403d88:	f9406fe0 	ldr	x0, [sp, #216]
  403d8c:	f9002a60 	str	x0, [x19, #80]
  403d90:	f9003279 	str	x25, [x19, #96]
  403d94:	b9006a7f 	str	wzr, [x19, #104]
  403d98:	17fffd9e 	b	403410 <_nl_load_domain+0x420>
  403d9c:	34000229 	cbz	w9, 403de0 <_nl_load_domain+0xdf0>
  403da0:	b94002a1 	ldr	w1, [x21]
  403da4:	8b010361 	add	x1, x27, x1
  403da8:	b9400820 	ldr	w0, [x1, #8]
  403dac:	3100041f 	cmn	w0, #0x1
  403db0:	1a9f07e0 	cset	w0, ne  // ne = any
  403db4:	34ffebc0 	cbz	w0, 403b2c <_nl_load_domain+0xb3c>
  403db8:	17ffff82 	b	403bc0 <_nl_load_domain+0xbd0>
  403dbc:	52800029 	mov	w9, #0x1                   	// #1
  403dc0:	17ffff51 	b	403b04 <_nl_load_domain+0xb14>
  403dc4:	2a0003e2 	mov	w2, w0
  403dc8:	aa1403e1 	mov	x1, x20
  403dcc:	aa1b03e0 	mov	x0, x27
  403dd0:	8b020294 	add	x20, x20, x2
  403dd4:	8b02037b 	add	x27, x27, x2
  403dd8:	97fff112 	bl	400220 <.plt+0x10>
  403ddc:	17ffff96 	b	403c34 <_nl_load_domain+0xc44>
  403de0:	b94002e1 	ldr	w1, [x23]
  403de4:	17fffff0 	b	403da4 <_nl_load_domain+0xdb4>
  403de8:	f9400720 	ldr	x0, [x25, #8]
  403dec:	cb000360 	sub	x0, x27, x0
  403df0:	f9000320 	str	x0, [x25]
  403df4:	17ffff6c 	b	403ba4 <_nl_load_domain+0xbb4>
  403df8:	a90363f7 	stp	x23, x24, [sp, #48]
  403dfc:	a9046bf9 	stp	x25, x26, [sp, #64]
  403e00:	94005aa2 	bl	41a888 <__stack_chk_fail>
  403e04:	a94c67e0 	ldp	x0, x25, [sp, #192]
  403e08:	b9400000 	ldr	w0, [x0]
  403e0c:	17ffff5c 	b	403b7c <_nl_load_domain+0xb8c>
  403e10:	a94c67e0 	ldp	x0, x25, [sp, #192]
  403e14:	b9400000 	ldr	w0, [x0]
  403e18:	8b0002f3 	add	x19, x23, x0
  403e1c:	b8606af4 	ldr	w20, [x23, x0]
  403e20:	8b1402f4 	add	x20, x23, x20
  403e24:	17ffff7a 	b	403c0c <_nl_load_domain+0xc1c>
  403e28:	d2800002 	mov	x2, #0x0                   	// #0
  403e2c:	17fffd30 	b	4032ec <_nl_load_domain+0x2fc>
  403e30:	f9404fe2 	ldr	x2, [sp, #152]
  403e34:	17fffd2e 	b	4032ec <_nl_load_domain+0x2fc>
  403e38:	f9404be2 	ldr	x2, [sp, #144]
  403e3c:	17fffd2c 	b	4032ec <_nl_load_domain+0x2fc>
  403e40:	d2800002 	mov	x2, #0x0                   	// #0
  403e44:	17fffd2a 	b	4032ec <_nl_load_domain+0x2fc>
  403e48:	f9404be2 	ldr	x2, [sp, #144]
  403e4c:	17fffd28 	b	4032ec <_nl_load_domain+0x2fc>
  403e50:	aa1e03e2 	mov	x2, x30
  403e54:	17fffd26 	b	4032ec <_nl_load_domain+0x2fc>
  403e58:	f94053e2 	ldr	x2, [sp, #160]
  403e5c:	17fffd24 	b	4032ec <_nl_load_domain+0x2fc>
  403e60:	f94057e2 	ldr	x2, [sp, #168]
  403e64:	17fffd22 	b	4032ec <_nl_load_domain+0x2fc>
  403e68:	f9404be2 	ldr	x2, [sp, #144]
  403e6c:	17fffd20 	b	4032ec <_nl_load_domain+0x2fc>
  403e70:	f9404fe2 	ldr	x2, [sp, #152]
  403e74:	17fffd1e 	b	4032ec <_nl_load_domain+0x2fc>
  403e78:	aa1e03e2 	mov	x2, x30
  403e7c:	17fffd1c 	b	4032ec <_nl_load_domain+0x2fc>
  403e80:	f94053e2 	ldr	x2, [sp, #160]
  403e84:	17fffd1a 	b	4032ec <_nl_load_domain+0x2fc>
  403e88:	f94053e2 	ldr	x2, [sp, #160]
  403e8c:	17fffd18 	b	4032ec <_nl_load_domain+0x2fc>
  403e90:	f9404fe2 	ldr	x2, [sp, #152]
  403e94:	17fffd16 	b	4032ec <_nl_load_domain+0x2fc>
  403e98:	f94057e2 	ldr	x2, [sp, #168]
  403e9c:	17fffd14 	b	4032ec <_nl_load_domain+0x2fc>
  403ea0:	aa0d03e2 	mov	x2, x13
  403ea4:	17fffd12 	b	4032ec <_nl_load_domain+0x2fc>
  403ea8:	aa0e03e2 	mov	x2, x14
  403eac:	17fffd10 	b	4032ec <_nl_load_domain+0x2fc>
  403eb0:	aa0f03e2 	mov	x2, x15
  403eb4:	17fffd0e 	b	4032ec <_nl_load_domain+0x2fc>
  403eb8:	aa1003e2 	mov	x2, x16
  403ebc:	17fffd0c 	b	4032ec <_nl_load_domain+0x2fc>
  403ec0:	aa1103e2 	mov	x2, x17
  403ec4:	17fffd0a 	b	4032ec <_nl_load_domain+0x2fc>
  403ec8:	aa0d03e2 	mov	x2, x13
  403ecc:	17fffd08 	b	4032ec <_nl_load_domain+0x2fc>
  403ed0:	aa1103e2 	mov	x2, x17
  403ed4:	17fffd06 	b	4032ec <_nl_load_domain+0x2fc>
  403ed8:	aa0d03e2 	mov	x2, x13
  403edc:	17fffd04 	b	4032ec <_nl_load_domain+0x2fc>
  403ee0:	aa0e03e2 	mov	x2, x14
  403ee4:	17fffd02 	b	4032ec <_nl_load_domain+0x2fc>
  403ee8:	aa0f03e2 	mov	x2, x15
  403eec:	17fffd00 	b	4032ec <_nl_load_domain+0x2fc>
  403ef0:	aa1003e2 	mov	x2, x16
  403ef4:	17fffcfe 	b	4032ec <_nl_load_domain+0x2fc>
  403ef8:	f94057e2 	ldr	x2, [sp, #168]
  403efc:	17fffcfc 	b	4032ec <_nl_load_domain+0x2fc>
  403f00:	aa1e03e2 	mov	x2, x30
  403f04:	17fffcfa 	b	4032ec <_nl_load_domain+0x2fc>
  403f08:	f94057e2 	ldr	x2, [sp, #168]
  403f0c:	17fffcf8 	b	4032ec <_nl_load_domain+0x2fc>
  403f10:	aa0d03e2 	mov	x2, x13
  403f14:	17fffcf6 	b	4032ec <_nl_load_domain+0x2fc>
  403f18:	aa0e03e2 	mov	x2, x14
  403f1c:	17fffcf4 	b	4032ec <_nl_load_domain+0x2fc>
  403f20:	aa0f03e2 	mov	x2, x15
  403f24:	17fffcf2 	b	4032ec <_nl_load_domain+0x2fc>
  403f28:	aa1003e2 	mov	x2, x16
  403f2c:	17fffcf0 	b	4032ec <_nl_load_domain+0x2fc>
  403f30:	aa1103e2 	mov	x2, x17
  403f34:	17fffcee 	b	4032ec <_nl_load_domain+0x2fc>
  403f38:	d2800002 	mov	x2, #0x0                   	// #0
  403f3c:	17fffcec 	b	4032ec <_nl_load_domain+0x2fc>
  403f40:	aa1e03e2 	mov	x2, x30
  403f44:	17fffcea 	b	4032ec <_nl_load_domain+0x2fc>
  403f48:	f94053e2 	ldr	x2, [sp, #160]
  403f4c:	17fffce8 	b	4032ec <_nl_load_domain+0x2fc>
  403f50:	f9404fe2 	ldr	x2, [sp, #152]
  403f54:	17fffce6 	b	4032ec <_nl_load_domain+0x2fc>
  403f58:	f9404be2 	ldr	x2, [sp, #144]
  403f5c:	17fffce4 	b	4032ec <_nl_load_domain+0x2fc>
  403f60:	d2800002 	mov	x2, #0x0                   	// #0
  403f64:	17fffce2 	b	4032ec <_nl_load_domain+0x2fc>
  403f68:	7100da5f 	cmp	w18, #0x36
  403f6c:	54ff9c01 	b.ne	4032ec <_nl_load_domain+0x2fc>  // b.any
  403f70:	39402802 	ldrb	w2, [x0, #10]
  403f74:	7100d05f 	cmp	w2, #0x34
  403f78:	54000440 	b.eq	404000 <_nl_load_domain+0x1010>  // b.none
  403f7c:	d2800002 	mov	x2, #0x0                   	// #0
  403f80:	17fffcdb 	b	4032ec <_nl_load_domain+0x2fc>
  403f84:	39402812 	ldrb	w18, [x0, #10]
  403f88:	7100da5f 	cmp	w18, #0x36
  403f8c:	54ff9b01 	b.ne	4032ec <_nl_load_domain+0x2fc>  // b.any
  403f90:	39402c00 	ldrb	w0, [x0, #11]
  403f94:	35ff9ac0 	cbnz	w0, 4032ec <_nl_load_domain+0x2fc>
  403f98:	7101909f 	cmp	w4, #0x64
  403f9c:	54000880 	b.eq	4040ac <_nl_load_domain+0x10bc>  // b.none
  403fa0:	35000825 	cbnz	w5, 4040a4 <_nl_load_domain+0x10b4>
  403fa4:	350007cc 	cbnz	w12, 40409c <_nl_load_domain+0x10ac>
  403fa8:	35000766 	cbnz	w6, 404094 <_nl_load_domain+0x10a4>
  403fac:	7101e09f 	cmp	w4, #0x78
  403fb0:	54000420 	b.eq	404034 <_nl_load_domain+0x1044>  // b.none
  403fb4:	7101609f 	cmp	w4, #0x58
  403fb8:	54001361 	b.ne	404224 <_nl_load_domain+0x1234>  // b.any
  403fbc:	d00002e2 	adrp	x2, 461000 <step1_jumps.14991+0xa0>
  403fc0:	9111a042 	add	x2, x2, #0x468
  403fc4:	17fffcca 	b	4032ec <_nl_load_domain+0x2fc>
  403fc8:	39402800 	ldrb	w0, [x0, #10]
  403fcc:	35ff9900 	cbnz	w0, 4032ec <_nl_load_domain+0x2fc>
  403fd0:	7101909f 	cmp	w4, #0x64
  403fd4:	540005c0 	b.eq	40408c <_nl_load_domain+0x109c>  // b.none
  403fd8:	35000565 	cbnz	w5, 404084 <_nl_load_domain+0x1094>
  403fdc:	3500050c 	cbnz	w12, 40407c <_nl_load_domain+0x108c>
  403fe0:	350004a6 	cbnz	w6, 404074 <_nl_load_domain+0x1084>
  403fe4:	7101e09f 	cmp	w4, #0x78
  403fe8:	540002a0 	b.eq	40403c <_nl_load_domain+0x104c>  // b.none
  403fec:	7101609f 	cmp	w4, #0x58
  403ff0:	540011a1 	b.ne	404224 <_nl_load_domain+0x1234>  // b.any
  403ff4:	d00002e2 	adrp	x2, 461000 <step1_jumps.14991+0xa0>
  403ff8:	9111a042 	add	x2, x2, #0x468
  403ffc:	17fffcbc 	b	4032ec <_nl_load_domain+0x2fc>
  404000:	39402c00 	ldrb	w0, [x0, #11]
  404004:	35000340 	cbnz	w0, 40406c <_nl_load_domain+0x107c>
  404008:	7101909f 	cmp	w4, #0x64
  40400c:	540002c0 	b.eq	404064 <_nl_load_domain+0x1074>  // b.none
  404010:	35000265 	cbnz	w5, 40405c <_nl_load_domain+0x106c>
  404014:	3500020c 	cbnz	w12, 404054 <_nl_load_domain+0x1064>
  404018:	350001a6 	cbnz	w6, 40404c <_nl_load_domain+0x105c>
  40401c:	7101e09f 	cmp	w4, #0x78
  404020:	54000120 	b.eq	404044 <_nl_load_domain+0x1054>  // b.none
  404024:	7101609f 	cmp	w4, #0x58
  404028:	54000fe1 	b.ne	404224 <_nl_load_domain+0x1234>  // b.any
  40402c:	aa0703e2 	mov	x2, x7
  404030:	17fffcaf 	b	4032ec <_nl_load_domain+0x2fc>
  404034:	f94057e2 	ldr	x2, [sp, #168]
  404038:	17fffcad 	b	4032ec <_nl_load_domain+0x2fc>
  40403c:	f94057e2 	ldr	x2, [sp, #168]
  404040:	17fffcab 	b	4032ec <_nl_load_domain+0x2fc>
  404044:	aa0d03e2 	mov	x2, x13
  404048:	17fffca9 	b	4032ec <_nl_load_domain+0x2fc>
  40404c:	aa0e03e2 	mov	x2, x14
  404050:	17fffca7 	b	4032ec <_nl_load_domain+0x2fc>
  404054:	aa0f03e2 	mov	x2, x15
  404058:	17fffca5 	b	4032ec <_nl_load_domain+0x2fc>
  40405c:	aa1003e2 	mov	x2, x16
  404060:	17fffca3 	b	4032ec <_nl_load_domain+0x2fc>
  404064:	aa1103e2 	mov	x2, x17
  404068:	17fffca1 	b	4032ec <_nl_load_domain+0x2fc>
  40406c:	d2800002 	mov	x2, #0x0                   	// #0
  404070:	17fffc9f 	b	4032ec <_nl_load_domain+0x2fc>
  404074:	aa1e03e2 	mov	x2, x30
  404078:	17fffc9d 	b	4032ec <_nl_load_domain+0x2fc>
  40407c:	f94053e2 	ldr	x2, [sp, #160]
  404080:	17fffc9b 	b	4032ec <_nl_load_domain+0x2fc>
  404084:	f9404fe2 	ldr	x2, [sp, #152]
  404088:	17fffc99 	b	4032ec <_nl_load_domain+0x2fc>
  40408c:	f9404be2 	ldr	x2, [sp, #144]
  404090:	17fffc97 	b	4032ec <_nl_load_domain+0x2fc>
  404094:	aa1e03e2 	mov	x2, x30
  404098:	17fffc95 	b	4032ec <_nl_load_domain+0x2fc>
  40409c:	f94053e2 	ldr	x2, [sp, #160]
  4040a0:	17fffc93 	b	4032ec <_nl_load_domain+0x2fc>
  4040a4:	f9404fe2 	ldr	x2, [sp, #152]
  4040a8:	17fffc91 	b	4032ec <_nl_load_domain+0x2fc>
  4040ac:	f9404be2 	ldr	x2, [sp, #144]
  4040b0:	17fffc8f 	b	4032ec <_nl_load_domain+0x2fc>
  4040b4:	aa0e03e2 	mov	x2, x14
  4040b8:	17fffc8d 	b	4032ec <_nl_load_domain+0x2fc>
  4040bc:	aa0f03e2 	mov	x2, x15
  4040c0:	17fffc8b 	b	4032ec <_nl_load_domain+0x2fc>
  4040c4:	aa1003e2 	mov	x2, x16
  4040c8:	17fffc89 	b	4032ec <_nl_load_domain+0x2fc>
  4040cc:	aa1103e2 	mov	x2, x17
  4040d0:	17fffc87 	b	4032ec <_nl_load_domain+0x2fc>
  4040d4:	d2800002 	mov	x2, #0x0                   	// #0
  4040d8:	17fffc85 	b	4032ec <_nl_load_domain+0x2fc>
  4040dc:	7100da5f 	cmp	w18, #0x36
  4040e0:	54ff9061 	b.ne	4032ec <_nl_load_domain+0x2fc>  // b.any
  4040e4:	39402402 	ldrb	w2, [x0, #9]
  4040e8:	7100d05f 	cmp	w2, #0x34
  4040ec:	54000420 	b.eq	404170 <_nl_load_domain+0x1180>  // b.none
  4040f0:	d2800002 	mov	x2, #0x0                   	// #0
  4040f4:	17fffc7e 	b	4032ec <_nl_load_domain+0x2fc>
  4040f8:	39402412 	ldrb	w18, [x0, #9]
  4040fc:	7100da5f 	cmp	w18, #0x36
  404100:	54ff8f61 	b.ne	4032ec <_nl_load_domain+0x2fc>  // b.any
  404104:	39402800 	ldrb	w0, [x0, #10]
  404108:	35ff8f20 	cbnz	w0, 4032ec <_nl_load_domain+0x2fc>
  40410c:	7101909f 	cmp	w4, #0x64
  404110:	54000860 	b.eq	40421c <_nl_load_domain+0x122c>  // b.none
  404114:	35000805 	cbnz	w5, 404214 <_nl_load_domain+0x1224>
  404118:	350007ac 	cbnz	w12, 40420c <_nl_load_domain+0x121c>
  40411c:	35000746 	cbnz	w6, 404204 <_nl_load_domain+0x1214>
  404120:	7101e09f 	cmp	w4, #0x78
  404124:	54000400 	b.eq	4041a4 <_nl_load_domain+0x11b4>  // b.none
  404128:	7101609f 	cmp	w4, #0x58
  40412c:	540007c1 	b.ne	404224 <_nl_load_domain+0x1234>  // b.any
  404130:	aa0703e2 	mov	x2, x7
  404134:	17fffc6e 	b	4032ec <_nl_load_domain+0x2fc>
  404138:	39402400 	ldrb	w0, [x0, #9]
  40413c:	35ff8d80 	cbnz	w0, 4032ec <_nl_load_domain+0x2fc>
  404140:	7101909f 	cmp	w4, #0x64
  404144:	540005c0 	b.eq	4041fc <_nl_load_domain+0x120c>  // b.none
  404148:	35000565 	cbnz	w5, 4041f4 <_nl_load_domain+0x1204>
  40414c:	3500050c 	cbnz	w12, 4041ec <_nl_load_domain+0x11fc>
  404150:	350004a6 	cbnz	w6, 4041e4 <_nl_load_domain+0x11f4>
  404154:	7101e09f 	cmp	w4, #0x78
  404158:	540002a0 	b.eq	4041ac <_nl_load_domain+0x11bc>  // b.none
  40415c:	7101609f 	cmp	w4, #0x58
  404160:	54000621 	b.ne	404224 <_nl_load_domain+0x1234>  // b.any
  404164:	b00002e2 	adrp	x2, 461000 <step1_jumps.14991+0xa0>
  404168:	9111a042 	add	x2, x2, #0x468
  40416c:	17fffc60 	b	4032ec <_nl_load_domain+0x2fc>
  404170:	39402800 	ldrb	w0, [x0, #10]
  404174:	35000340 	cbnz	w0, 4041dc <_nl_load_domain+0x11ec>
  404178:	7101909f 	cmp	w4, #0x64
  40417c:	540002c0 	b.eq	4041d4 <_nl_load_domain+0x11e4>  // b.none
  404180:	35000265 	cbnz	w5, 4041cc <_nl_load_domain+0x11dc>
  404184:	3500020c 	cbnz	w12, 4041c4 <_nl_load_domain+0x11d4>
  404188:	350001a6 	cbnz	w6, 4041bc <_nl_load_domain+0x11cc>
  40418c:	7101e09f 	cmp	w4, #0x78
  404190:	54000120 	b.eq	4041b4 <_nl_load_domain+0x11c4>  // b.none
  404194:	7101609f 	cmp	w4, #0x58
  404198:	54000461 	b.ne	404224 <_nl_load_domain+0x1234>  // b.any
  40419c:	aa0703e2 	mov	x2, x7
  4041a0:	17fffc53 	b	4032ec <_nl_load_domain+0x2fc>
  4041a4:	aa0d03e2 	mov	x2, x13
  4041a8:	17fffc51 	b	4032ec <_nl_load_domain+0x2fc>
  4041ac:	f94057e2 	ldr	x2, [sp, #168]
  4041b0:	17fffc4f 	b	4032ec <_nl_load_domain+0x2fc>
  4041b4:	aa0d03e2 	mov	x2, x13
  4041b8:	17fffc4d 	b	4032ec <_nl_load_domain+0x2fc>
  4041bc:	aa0e03e2 	mov	x2, x14
  4041c0:	17fffc4b 	b	4032ec <_nl_load_domain+0x2fc>
  4041c4:	aa0f03e2 	mov	x2, x15
  4041c8:	17fffc49 	b	4032ec <_nl_load_domain+0x2fc>
  4041cc:	aa1003e2 	mov	x2, x16
  4041d0:	17fffc47 	b	4032ec <_nl_load_domain+0x2fc>
  4041d4:	aa1103e2 	mov	x2, x17
  4041d8:	17fffc45 	b	4032ec <_nl_load_domain+0x2fc>
  4041dc:	d2800002 	mov	x2, #0x0                   	// #0
  4041e0:	17fffc43 	b	4032ec <_nl_load_domain+0x2fc>
  4041e4:	aa1e03e2 	mov	x2, x30
  4041e8:	17fffc41 	b	4032ec <_nl_load_domain+0x2fc>
  4041ec:	f94053e2 	ldr	x2, [sp, #160]
  4041f0:	17fffc3f 	b	4032ec <_nl_load_domain+0x2fc>
  4041f4:	f9404fe2 	ldr	x2, [sp, #152]
  4041f8:	17fffc3d 	b	4032ec <_nl_load_domain+0x2fc>
  4041fc:	f9404be2 	ldr	x2, [sp, #144]
  404200:	17fffc3b 	b	4032ec <_nl_load_domain+0x2fc>
  404204:	aa0e03e2 	mov	x2, x14
  404208:	17fffc39 	b	4032ec <_nl_load_domain+0x2fc>
  40420c:	aa0f03e2 	mov	x2, x15
  404210:	17fffc37 	b	4032ec <_nl_load_domain+0x2fc>
  404214:	aa1003e2 	mov	x2, x16
  404218:	17fffc35 	b	4032ec <_nl_load_domain+0x2fc>
  40421c:	aa1103e2 	mov	x2, x17
  404220:	17fffc33 	b	4032ec <_nl_load_domain+0x2fc>
  404224:	97fff007 	bl	400240 <abort>

0000000000404228 <alias_compare>:
  404228:	f9400000 	ldr	x0, [x0]
  40422c:	900002e2 	adrp	x2, 460000 <translit_from_idx+0xae0>
  404230:	f9400021 	ldr	x1, [x1]
  404234:	912be042 	add	x2, x2, #0xaf8
  404238:	140048a2 	b	4164c0 <__strcasecmp_l>

000000000040423c <.annobin_alias_compare.end>:
  40423c:	d503201f 	nop

0000000000404240 <read_alias_file>:
  404240:	d10903ff 	sub	sp, sp, #0x240
  404244:	93407c22 	sxtw	x2, w1
  404248:	91007443 	add	x3, x2, #0x1d
  40424c:	927cec63 	and	x3, x3, #0xfffffffffffffff0
  404250:	a9007bfd 	stp	x29, x30, [sp]
  404254:	910003fd 	mov	x29, sp
  404258:	9274cc64 	and	x4, x3, #0xfffffffffffff000
  40425c:	cb2463e4 	sub	x4, sp, x4
  404260:	a90363f7 	stp	x23, x24, [sp, #48]
  404264:	b0000417 	adrp	x23, 485000 <__FRAME_END__+0xfc98>
  404268:	912342f7 	add	x23, x23, #0x8d0
  40426c:	f94002e1 	ldr	x1, [x23]
  404270:	f9011fa1 	str	x1, [x29, #568]
  404274:	d2800001 	mov	x1, #0x0                   	// #0
  404278:	a90153f3 	stp	x19, x20, [sp, #16]
  40427c:	910003e1 	mov	x1, sp
  404280:	a9025bf5 	stp	x21, x22, [sp, #32]
  404284:	eb04003f 	cmp	x1, x4
  404288:	a9046bf9 	stp	x25, x26, [sp, #64]
  40428c:	a90573fb 	stp	x27, x28, [sp, #80]
  404290:	540000c0 	b.eq	4042a8 <read_alias_file+0x68>  // b.none
  404294:	d14007ff 	sub	sp, sp, #0x1, lsl #12
  404298:	910003e1 	mov	x1, sp
  40429c:	eb04003f 	cmp	x1, x4
  4042a0:	f907ffff 	str	xzr, [sp, #4088]
  4042a4:	54ffff81 	b.ne	404294 <read_alias_file+0x54>  // b.any
  4042a8:	f2402c61 	ands	x1, x3, #0xfff
  4042ac:	54001c61 	b.ne	404638 <read_alias_file+0x3f8>  // b.any
  4042b0:	b5001c03 	cbnz	x3, 404630 <read_alias_file+0x3f0>
  4042b4:	910003f3 	mov	x19, sp
  4042b8:	aa0003e1 	mov	x1, x0
  4042bc:	aa1303e0 	mov	x0, x19
  4042c0:	940047f8 	bl	4162a0 <__mempcpy>
  4042c4:	90000262 	adrp	x2, 450000 <buffer_free+0x40>
  4042c8:	91334042 	add	x2, x2, #0xcd0
  4042cc:	aa0003e3 	mov	x3, x0
  4042d0:	90000261 	adrp	x1, 450000 <buffer_free+0x40>
  4042d4:	aa1303e0 	mov	x0, x19
  4042d8:	91332021 	add	x1, x1, #0xcc8
  4042dc:	f9400044 	ldr	x4, [x2]
  4042e0:	f9000064 	str	x4, [x3]
  4042e4:	f8406042 	ldur	x2, [x2, #6]
  4042e8:	f8006062 	stur	x2, [x3, #6]
  4042ec:	94000e19 	bl	407b50 <_IO_new_fopen>
  4042f0:	aa0003f4 	mov	x20, x0
  4042f4:	b4001ac0 	cbz	x0, 40464c <read_alias_file+0x40c>
  4042f8:	b9400001 	ldr	w1, [x0]
  4042fc:	d2800018 	mov	x24, #0x0                   	// #0
  404300:	32110022 	orr	w2, w1, #0x8000
  404304:	b9000002 	str	w2, [x0]
  404308:	37201c21 	tbnz	w1, #4, 40468c <read_alias_file+0x44c>
  40430c:	b0000400 	adrp	x0, 485000 <__FRAME_END__+0xfc98>
  404310:	f947d000 	ldr	x0, [x0, #4000]
  404314:	d53bd055 	mrs	x21, tpidr_el0
  404318:	f0000c16 	adrp	x22, 587000 <temp+0x7f5e0>
  40431c:	913ca2d6 	add	x22, x22, #0xf28
  404320:	8b0002b5 	add	x21, x21, x0
  404324:	d503201f 	nop
  404328:	aa1403e2 	mov	x2, x20
  40432c:	52803201 	mov	w1, #0x190                 	// #400
  404330:	9102a3a0 	add	x0, x29, #0xa8
  404334:	94001737 	bl	40a010 <__fgets_unlocked>
  404338:	b40002c0 	cbz	x0, 404390 <read_alias_file+0x150>
  40433c:	52800141 	mov	w1, #0xa                   	// #10
  404340:	9102a3a0 	add	x0, x29, #0xa8
  404344:	9400432f 	bl	415000 <strchr>
  404348:	aa0003fa 	mov	x26, x0
  40434c:	3942a3a0 	ldrb	w0, [x29, #168]
  404350:	9102a3b3 	add	x19, x29, #0xa8
  404354:	f94002a2 	ldr	x2, [x21]
  404358:	d37f1c01 	ubfiz	x1, x0, #1, #8
  40435c:	78616841 	ldrh	w1, [x2, x1]
  404360:	366800c1 	tbz	w1, #13, 404378 <read_alias_file+0x138>
  404364:	d503201f 	nop
  404368:	38401e60 	ldrb	w0, [x19, #1]!
  40436c:	d37f1c01 	ubfiz	x1, x0, #1, #8
  404370:	78616841 	ldrh	w1, [x2, x1]
  404374:	376fffa1 	tbnz	w1, #13, 404368 <read_alias_file+0x128>
  404378:	71008c1f 	cmp	w0, #0x23
  40437c:	7a401804 	ccmp	w0, #0x0, #0x4, ne  // ne = any
  404380:	54000501 	b.ne	404420 <read_alias_file+0x1e0>  // b.any
  404384:	b400043a 	cbz	x26, 404408 <read_alias_file+0x1c8>
  404388:	b9400280 	ldr	w0, [x20]
  40438c:	3627fce0 	tbz	w0, #4, 404328 <read_alias_file+0xe8>
  404390:	aa1403e0 	mov	x0, x20
  404394:	94000c99 	bl	4075f8 <_IO_new_fclose>
  404398:	b4000138 	cbz	x24, 4043bc <read_alias_file+0x17c>
  40439c:	f0000c01 	adrp	x1, 587000 <temp+0x7f5e0>
  4043a0:	90000c20 	adrp	x0, 588000 <initial+0x70>
  4043a4:	90000003 	adrp	x3, 404000 <_nl_load_domain+0x1010>
  4043a8:	d2800202 	mov	x2, #0x10                  	// #16
  4043ac:	f9479421 	ldr	x1, [x1, #3880]
  4043b0:	9108a063 	add	x3, x3, #0x228
  4043b4:	f947ec00 	ldr	x0, [x0, #4056]
  4043b8:	940007e2 	bl	406340 <qsort>
  4043bc:	aa1803e0 	mov	x0, x24
  4043c0:	f9411fa1 	ldr	x1, [x29, #568]
  4043c4:	f94002e2 	ldr	x2, [x23]
  4043c8:	eb020021 	subs	x1, x1, x2
  4043cc:	d2800002 	mov	x2, #0x0                   	// #0
  4043d0:	54001621 	b.ne	404694 <read_alias_file+0x454>  // b.any
  4043d4:	910003bf 	mov	sp, x29
  4043d8:	a9407bfd 	ldp	x29, x30, [sp]
  4043dc:	a94153f3 	ldp	x19, x20, [sp, #16]
  4043e0:	a9425bf5 	ldp	x21, x22, [sp, #32]
  4043e4:	a94363f7 	ldp	x23, x24, [sp, #48]
  4043e8:	a9446bf9 	ldp	x25, x26, [sp, #64]
  4043ec:	a94573fb 	ldp	x27, x28, [sp, #80]
  4043f0:	910903ff 	add	sp, sp, #0x240
  4043f4:	d65f03c0 	ret
  4043f8:	52800141 	mov	w1, #0xa                   	// #10
  4043fc:	9102a3a0 	add	x0, x29, #0xa8
  404400:	94004300 	bl	415000 <strchr>
  404404:	b5fffc20 	cbnz	x0, 404388 <read_alias_file+0x148>
  404408:	aa1403e2 	mov	x2, x20
  40440c:	52803201 	mov	w1, #0x190                 	// #400
  404410:	9102a3a0 	add	x0, x29, #0xa8
  404414:	940016ff 	bl	40a010 <__fgets_unlocked>
  404418:	b5ffff00 	cbnz	x0, 4043f8 <read_alias_file+0x1b8>
  40441c:	17ffffdb 	b	404388 <read_alias_file+0x148>
  404420:	39400661 	ldrb	w1, [x19, #1]
  404424:	91000679 	add	x25, x19, #0x1
  404428:	d37f1c20 	ubfiz	x0, x1, #1, #8
  40442c:	78606840 	ldrh	w0, [x2, x0]
  404430:	12130000 	and	w0, w0, #0x2000
  404434:	340000e1 	cbz	w1, 404450 <read_alias_file+0x210>
  404438:	350008e0 	cbnz	w0, 404554 <read_alias_file+0x314>
  40443c:	38401f21 	ldrb	w1, [x25, #1]!
  404440:	d37f1c20 	ubfiz	x0, x1, #1, #8
  404444:	78606840 	ldrh	w0, [x2, x0]
  404448:	12130000 	and	w0, w0, #0x2000
  40444c:	35ffff61 	cbnz	w1, 404438 <read_alias_file+0x1f8>
  404450:	34fff9a0 	cbz	w0, 404384 <read_alias_file+0x144>
  404454:	d503201f 	nop
  404458:	38401f20 	ldrb	w0, [x25, #1]!
  40445c:	d37f1c01 	ubfiz	x1, x0, #1, #8
  404460:	78616841 	ldrh	w1, [x2, x1]
  404464:	376fffa1 	tbnz	w1, #13, 404458 <read_alias_file+0x218>
  404468:	34fff8e0 	cbz	w0, 404384 <read_alias_file+0x144>
  40446c:	39400720 	ldrb	w0, [x25, #1]
  404470:	91000721 	add	x1, x25, #0x1
  404474:	35000080 	cbnz	w0, 404484 <read_alias_file+0x244>
  404478:	1400000a 	b	4044a0 <read_alias_file+0x260>
  40447c:	38401c20 	ldrb	w0, [x1, #1]!
  404480:	34000100 	cbz	w0, 4044a0 <read_alias_file+0x260>
  404484:	d37f1c03 	ubfiz	x3, x0, #1, #8
  404488:	78636843 	ldrh	w3, [x2, x3]
  40448c:	366fff83 	tbz	w3, #13, 40447c <read_alias_file+0x23c>
  404490:	7100281f 	cmp	w0, #0xa
  404494:	54000a21 	b.ne	4045d8 <read_alias_file+0x398>  // b.any
  404498:	52814000 	mov	w0, #0xa00                 	// #2560
  40449c:	79000020 	strh	w0, [x1]
  4044a0:	a94002db 	ldp	x27, x0, [x22]
  4044a4:	90000c3c 	adrp	x28, 588000 <initial+0x70>
  4044a8:	913f6383 	add	x3, x28, #0xfd8
  4044ac:	eb00037f 	cmp	x27, x0
  4044b0:	54000a02 	b.cs	4045f0 <read_alias_file+0x3b0>  // b.hs, b.nlast
  4044b4:	aa1303e0 	mov	x0, x19
  4044b8:	f9004ba3 	str	x3, [x29, #144]
  4044bc:	94004431 	bl	415580 <__strlen>
  4044c0:	91000402 	add	x2, x0, #0x1
  4044c4:	aa1903e0 	mov	x0, x25
  4044c8:	f9004fa2 	str	x2, [x29, #152]
  4044cc:	9400442d 	bl	415580 <__strlen>
  4044d0:	91000404 	add	x4, x0, #0x1
  4044d4:	a94106ca 	ldp	x10, x1, [x22, #16]
  4044d8:	a9490ba3 	ldp	x3, x2, [x29, #144]
  4044dc:	8b020149 	add	x9, x10, x2
  4044e0:	8b040128 	add	x8, x9, x4
  4044e4:	eb01011f 	cmp	x8, x1
  4044e8:	f940047c 	ldr	x28, [x3, #8]
  4044ec:	54000448 	b.hi	404574 <read_alias_file+0x334>  // b.pmore
  4044f0:	f9400067 	ldr	x7, [x3]
  4044f4:	d37cef66 	lsl	x6, x27, #4
  4044f8:	8b0600e3 	add	x3, x7, x6
  4044fc:	aa1303e1 	mov	x1, x19
  404500:	8b0a0380 	add	x0, x28, x10
  404504:	a90723a4 	stp	x4, x8, [x29, #112]
  404508:	9100077b 	add	x27, x27, #0x1
  40450c:	a9081ba9 	stp	x9, x6, [x29, #128]
  404510:	91000718 	add	x24, x24, #0x1
  404514:	a9090fa7 	stp	x7, x3, [x29, #144]
  404518:	97ffef42 	bl	400220 <.plt+0x10>
  40451c:	aa1903e1 	mov	x1, x25
  404520:	a9481ba9 	ldp	x9, x6, [x29, #128]
  404524:	f9404ba7 	ldr	x7, [x29, #144]
  404528:	f9403ba4 	ldr	x4, [x29, #112]
  40452c:	f82668e0 	str	x0, [x7, x6]
  404530:	8b090380 	add	x0, x28, x9
  404534:	aa0403e2 	mov	x2, x4
  404538:	97ffef3a 	bl	400220 <.plt+0x10>
  40453c:	f90002db 	str	x27, [x22]
  404540:	f9404fa3 	ldr	x3, [x29, #152]
  404544:	f9403fa8 	ldr	x8, [x29, #120]
  404548:	f9000ac8 	str	x8, [x22, #16]
  40454c:	f9000460 	str	x0, [x3, #8]
  404550:	17ffff8d 	b	404384 <read_alias_file+0x144>
  404554:	aa1903e1 	mov	x1, x25
  404558:	39400720 	ldrb	w0, [x25, #1]
  40455c:	91000739 	add	x25, x25, #0x1
  404560:	3900003f 	strb	wzr, [x1]
  404564:	d37f1c01 	ubfiz	x1, x0, #1, #8
  404568:	78616841 	ldrh	w1, [x2, x1]
  40456c:	376ff761 	tbnz	w1, #13, 404458 <read_alias_file+0x218>
  404570:	17ffffbe 	b	404468 <read_alias_file+0x228>
  404574:	8b040045 	add	x5, x2, x4
  404578:	d2808006 	mov	x6, #0x400                 	// #1024
  40457c:	eb0600bf 	cmp	x5, x6
  404580:	aa1c03e0 	mov	x0, x28
  404584:	9a8620a5 	csel	x5, x5, x6, cs  // cs = hs, nlast
  404588:	a906a3a3 	stp	x3, x8, [x29, #104]
  40458c:	8b0100a5 	add	x5, x5, x1
  404590:	aa0503e1 	mov	x1, x5
  404594:	a907aba9 	stp	x9, x10, [x29, #120]
  404598:	a9088ba4 	stp	x4, x2, [x29, #136]
  40459c:	f9004fa5 	str	x5, [x29, #152]
  4045a0:	94003e44 	bl	413eb0 <__libc_realloc>
  4045a4:	b4ffef60 	cbz	x0, 404390 <read_alias_file+0x150>
  4045a8:	a946a3a3 	ldp	x3, x8, [x29, #104]
  4045ac:	eb1c001f 	cmp	x0, x28
  4045b0:	a947aba9 	ldp	x9, x10, [x29, #120]
  4045b4:	a9488ba4 	ldp	x4, x2, [x29, #136]
  4045b8:	f9400067 	ldr	x7, [x3]
  4045bc:	f9404fa5 	ldr	x5, [x29, #152]
  4045c0:	540004a1 	b.ne	404654 <read_alias_file+0x414>  // b.any
  4045c4:	d37cef66 	lsl	x6, x27, #4
  4045c8:	aa0003fc 	mov	x28, x0
  4045cc:	f9000460 	str	x0, [x3, #8]
  4045d0:	f9000ec5 	str	x5, [x22, #24]
  4045d4:	17ffffc9 	b	4044f8 <read_alias_file+0x2b8>
  4045d8:	a94002db 	ldp	x27, x0, [x22]
  4045dc:	3900003f 	strb	wzr, [x1]
  4045e0:	90000c3c 	adrp	x28, 588000 <initial+0x70>
  4045e4:	913f6383 	add	x3, x28, #0xfd8
  4045e8:	eb00037f 	cmp	x27, x0
  4045ec:	54fff643 	b.cc	4044b4 <read_alias_file+0x274>  // b.lo, b.ul, b.last
  4045f0:	b50001a0 	cbnz	x0, 404624 <read_alias_file+0x3e4>
  4045f4:	d280c801 	mov	x1, #0x640                 	// #1600
  4045f8:	d2800c82 	mov	x2, #0x64                  	// #100
  4045fc:	90000c3c 	adrp	x28, 588000 <initial+0x70>
  404600:	913f6383 	add	x3, x28, #0xfd8
  404604:	a9090fa2 	stp	x2, x3, [x29, #144]
  404608:	f947ef80 	ldr	x0, [x28, #4056]
  40460c:	94003e29 	bl	413eb0 <__libc_realloc>
  404610:	b4ffec00 	cbz	x0, 404390 <read_alias_file+0x150>
  404614:	a9490fa2 	ldp	x2, x3, [x29, #144]
  404618:	f907ef80 	str	x0, [x28, #4056]
  40461c:	f90006c2 	str	x2, [x22, #8]
  404620:	17ffffa5 	b	4044b4 <read_alias_file+0x274>
  404624:	d37ff802 	lsl	x2, x0, #1
  404628:	d37be801 	lsl	x1, x0, #5
  40462c:	17fffff4 	b	4045fc <read_alias_file+0x3bc>
  404630:	f90003ff 	str	xzr, [sp]
  404634:	17ffff20 	b	4042b4 <read_alias_file+0x74>
  404638:	cb2163ff 	sub	sp, sp, x1
  40463c:	d1002021 	sub	x1, x1, #0x8
  404640:	f8216bff 	str	xzr, [sp, x1]
  404644:	b4ffe383 	cbz	x3, 4042b4 <read_alias_file+0x74>
  404648:	17fffffa 	b	404630 <read_alias_file+0x3f0>
  40464c:	d2800018 	mov	x24, #0x0                   	// #0
  404650:	17ffff5b 	b	4043bc <read_alias_file+0x17c>
  404654:	d2800006 	mov	x6, #0x0                   	// #0
  404658:	b4fffb9b 	cbz	x27, 4045c8 <read_alias_file+0x388>
  40465c:	d37cef66 	lsl	x6, x27, #4
  404660:	cb1c001c 	sub	x28, x0, x28
  404664:	8b0600ed 	add	x13, x7, x6
  404668:	aa0703e1 	mov	x1, x7
  40466c:	a9402c2c 	ldp	x12, x11, [x1]
  404670:	8b1c018c 	add	x12, x12, x28
  404674:	8b1c016b 	add	x11, x11, x28
  404678:	a9002c2c 	stp	x12, x11, [x1]
  40467c:	91004021 	add	x1, x1, #0x10
  404680:	eb0101bf 	cmp	x13, x1
  404684:	54ffff41 	b.ne	40466c <read_alias_file+0x42c>  // b.any
  404688:	17ffffd0 	b	4045c8 <read_alias_file+0x388>
  40468c:	94000bdb 	bl	4075f8 <_IO_new_fclose>
  404690:	17ffff4b 	b	4043bc <read_alias_file+0x17c>
  404694:	9400587d 	bl	41a888 <__stack_chk_fail>

0000000000404698 <_nl_expand_alias>:
  404698:	a9bb7bfd 	stp	x29, x30, [sp, #-80]!
  40469c:	52800021 	mov	w1, #0x1                   	// #1
  4046a0:	910003fd 	mov	x29, sp
  4046a4:	a90153f3 	stp	x19, x20, [sp, #16]
  4046a8:	f0000c14 	adrp	x20, 587000 <temp+0x7f5e0>
  4046ac:	913ca294 	add	x20, x20, #0xf28
  4046b0:	91008293 	add	x19, x20, #0x20
  4046b4:	a9025bf5 	stp	x21, x22, [sp, #32]
  4046b8:	aa1303e2 	mov	x2, x19
  4046bc:	a90363f7 	stp	x23, x24, [sp, #48]
  4046c0:	a9046bf9 	stp	x25, x26, [sp, #64]
  4046c4:	aa0003fa 	mov	x26, x0
  4046c8:	52800000 	mov	w0, #0x0                   	// #0
  4046cc:	94011945 	bl	44abe0 <__aarch64_cas4_acq>
  4046d0:	35000aa0 	cbnz	w0, 404824 <_nl_expand_alias+0x18c>
  4046d4:	f9401680 	ldr	x0, [x20, #40]
  4046d8:	b40009a0 	cbz	x0, 40480c <_nl_expand_alias+0x174>
  4046dc:	f9400296 	ldr	x22, [x20]
  4046e0:	900002f5 	adrp	x21, 460000 <translit_from_idx+0xae0>
  4046e4:	912be2b5 	add	x21, x21, #0xaf8
  4046e8:	b5000676 	cbnz	x22, 4047b4 <_nl_expand_alias+0x11c>
  4046ec:	f9401683 	ldr	x3, [x20, #40]
  4046f0:	52800001 	mov	w1, #0x0                   	// #0
  4046f4:	39400060 	ldrb	w0, [x3]
  4046f8:	340002c0 	cbz	w0, 404750 <_nl_expand_alias+0xb8>
  4046fc:	d503201f 	nop
  404700:	7100e81f 	cmp	w0, #0x3a
  404704:	91000461 	add	x1, x3, #0x1
  404708:	540007e1 	b.ne	404804 <_nl_expand_alias+0x16c>  // b.any
  40470c:	d503201f 	nop
  404710:	aa0103e0 	mov	x0, x1
  404714:	38401422 	ldrb	w2, [x1], #1
  404718:	7100e85f 	cmp	w2, #0x3a
  40471c:	54ffffa0 	b.eq	404710 <_nl_expand_alias+0x78>  // b.none
  404720:	34000382 	cbz	w2, 404790 <_nl_expand_alias+0xf8>
  404724:	91000401 	add	x1, x0, #0x1
  404728:	aa0103e3 	mov	x3, x1
  40472c:	38401422 	ldrb	w2, [x1], #1
  404730:	7100e85f 	cmp	w2, #0x3a
  404734:	7a401844 	ccmp	w2, #0x0, #0x4, ne  // ne = any
  404738:	54ffff81 	b.ne	404728 <_nl_expand_alias+0x90>  // b.any
  40473c:	eb00007f 	cmp	x3, x0
  404740:	540002e8 	b.hi	40479c <_nl_expand_alias+0x104>  // b.pmore
  404744:	52800021 	mov	w1, #0x1                   	// #1
  404748:	39400060 	ldrb	w0, [x3]
  40474c:	35fffda0 	cbnz	w0, 404700 <_nl_expand_alias+0x68>
  404750:	34000041 	cbz	w1, 404758 <_nl_expand_alias+0xc0>
  404754:	f9001683 	str	x3, [x20, #40]
  404758:	d2800013 	mov	x19, #0x0                   	// #0
  40475c:	91008294 	add	x20, x20, #0x20
  404760:	52800000 	mov	w0, #0x0                   	// #0
  404764:	aa1403e1 	mov	x1, x20
  404768:	9401198a 	bl	44ad90 <__aarch64_swp4_rel>
  40476c:	7100041f 	cmp	w0, #0x1
  404770:	5400060c 	b.gt	404830 <_nl_expand_alias+0x198>
  404774:	aa1303e0 	mov	x0, x19
  404778:	a94153f3 	ldp	x19, x20, [sp, #16]
  40477c:	a9425bf5 	ldp	x21, x22, [sp, #32]
  404780:	a94363f7 	ldp	x23, x24, [sp, #48]
  404784:	a9446bf9 	ldp	x25, x26, [sp, #64]
  404788:	a8c57bfd 	ldp	x29, x30, [sp], #80
  40478c:	d65f03c0 	ret
  404790:	aa0003e3 	mov	x3, x0
  404794:	52800021 	mov	w1, #0x1                   	// #1
  404798:	17ffffec 	b	404748 <_nl_expand_alias+0xb0>
  40479c:	4b000061 	sub	w1, w3, w0
  4047a0:	f9001683 	str	x3, [x20, #40]
  4047a4:	97fffea7 	bl	404240 <read_alias_file>
  4047a8:	b4fffa20 	cbz	x0, 4046ec <_nl_expand_alias+0x54>
  4047ac:	f9400296 	ldr	x22, [x20]
  4047b0:	b4fff9f6 	cbz	x22, 4046ec <_nl_expand_alias+0x54>
  4047b4:	90000c20 	adrp	x0, 588000 <initial+0x70>
  4047b8:	d2800017 	mov	x23, #0x0                   	// #0
  4047bc:	f947ec18 	ldr	x24, [x0, #4056]
  4047c0:	14000005 	b	4047d4 <_nl_expand_alias+0x13c>
  4047c4:	540002c0 	b.eq	40481c <_nl_expand_alias+0x184>  // b.none
  4047c8:	91000677 	add	x23, x19, #0x1
  4047cc:	eb1702df 	cmp	x22, x23
  4047d0:	54fff8e9 	b.ls	4046ec <_nl_expand_alias+0x54>  // b.plast
  4047d4:	8b1602f3 	add	x19, x23, x22
  4047d8:	aa1503e2 	mov	x2, x21
  4047dc:	aa1a03e0 	mov	x0, x26
  4047e0:	d341fe73 	lsr	x19, x19, #1
  4047e4:	d37cee61 	lsl	x1, x19, #4
  4047e8:	8b010319 	add	x25, x24, x1
  4047ec:	f8616b01 	ldr	x1, [x24, x1]
  4047f0:	94004734 	bl	4164c0 <__strcasecmp_l>
  4047f4:	7100001f 	cmp	w0, #0x0
  4047f8:	54fffe6a 	b.ge	4047c4 <_nl_expand_alias+0x12c>  // b.tcont
  4047fc:	aa1303f6 	mov	x22, x19
  404800:	17fffff3 	b	4047cc <_nl_expand_alias+0x134>
  404804:	aa0303e0 	mov	x0, x3
  404808:	17ffffc7 	b	404724 <_nl_expand_alias+0x8c>
  40480c:	90000260 	adrp	x0, 450000 <buffer_free+0x40>
  404810:	91308000 	add	x0, x0, #0xc20
  404814:	f9001680 	str	x0, [x20, #40]
  404818:	17ffffb1 	b	4046dc <_nl_expand_alias+0x44>
  40481c:	f9400733 	ldr	x19, [x25, #8]
  404820:	17ffffcf 	b	40475c <_nl_expand_alias+0xc4>
  404824:	aa1303e0 	mov	x0, x19
  404828:	94002974 	bl	40edf8 <__lll_lock_wait_private>
  40482c:	17ffffaa 	b	4046d4 <_nl_expand_alias+0x3c>
  404830:	aa1403e0 	mov	x0, x20
  404834:	d2801021 	mov	x1, #0x81                  	// #129
  404838:	d2800022 	mov	x2, #0x1                   	// #1
  40483c:	d2800003 	mov	x3, #0x0                   	// #0
  404840:	d2800c48 	mov	x8, #0x62                  	// #98
  404844:	d4000001 	svc	#0x0
  404848:	17ffffcb 	b	404774 <_nl_expand_alias+0xdc>

000000000040484c <.annobin__nl_expand_alias.end>:
  40484c:	d503201f 	nop

0000000000404850 <_nl_make_l10nflist>:
  404850:	d102c3ff 	sub	sp, sp, #0xb0
  404854:	a9027bfd 	stp	x29, x30, [sp, #32]
  404858:	910083fd 	add	x29, sp, #0x20
  40485c:	6d0827e8 	stp	d8, d9, [sp, #128]
  404860:	9e670088 	fmov	d8, x4
  404864:	9e6700a9 	fmov	d9, x5
  404868:	6d092fea 	stp	d10, d11, [sp, #144]
  40486c:	9e6700ca 	fmov	d10, x6
  404870:	9e6700eb 	fmov	d11, x7
  404874:	a90353f3 	stp	x19, x20, [sp, #48]
  404878:	2a0303f4 	mov	w20, w3
  40487c:	a9045bf5 	stp	x21, x22, [sp, #64]
  404880:	aa0203f5 	mov	x21, x2
  404884:	121e0076 	and	w22, w3, #0x4
  404888:	a90563f7 	stp	x23, x24, [sp, #80]
  40488c:	aa0103f7 	mov	x23, x1
  404890:	91000858 	add	x24, x2, #0x2
  404894:	a9066bf9 	stp	x25, x26, [sp, #96]
  404898:	a90773fb 	stp	x27, x28, [sp, #112]
  40489c:	f90053e0 	str	x0, [sp, #160]
  4048a0:	aa0403e0 	mov	x0, x4
  4048a4:	94004337 	bl	415580 <__strlen>
  4048a8:	aa0003f3 	mov	x19, x0
  4048ac:	361000b4 	tbz	w20, #2, 4048c0 <_nl_make_l10nflist+0x70>
  4048b0:	9e660120 	fmov	x0, d9
  4048b4:	91000673 	add	x19, x19, #0x1
  4048b8:	94004332 	bl	415580 <__strlen>
  4048bc:	8b000273 	add	x19, x19, x0
  4048c0:	d2800019 	mov	x25, #0x0                   	// #0
  4048c4:	121f029c 	and	w28, w20, #0x2
  4048c8:	36080094 	tbz	w20, #1, 4048d8 <_nl_make_l10nflist+0x88>
  4048cc:	9e660140 	fmov	x0, d10
  4048d0:	9400432c 	bl	415580 <__strlen>
  4048d4:	91000419 	add	x25, x0, #0x1
  4048d8:	12000280 	and	w0, w20, #0x1
  4048dc:	b900abe0 	str	w0, [sp, #168]
  4048e0:	360000b4 	tbz	w20, #0, 4048f4 <_nl_make_l10nflist+0xa4>
  4048e4:	9e660160 	fmov	x0, d11
  4048e8:	91000739 	add	x25, x25, #0x1
  4048ec:	94004325 	bl	415580 <__strlen>
  4048f0:	8b000339 	add	x25, x25, x0
  4048f4:	121d0280 	and	w0, w20, #0x8
  4048f8:	b900afe0 	str	w0, [sp, #172]
  4048fc:	8b190273 	add	x19, x19, x25
  404900:	d280001a 	mov	x26, #0x0                   	// #0
  404904:	8b180273 	add	x19, x19, x24
  404908:	36180094 	tbz	w20, #3, 404918 <_nl_make_l10nflist+0xc8>
  40490c:	f9405be0 	ldr	x0, [sp, #176]
  404910:	9400431c 	bl	415580 <__strlen>
  404914:	9100041a 	add	x26, x0, #0x1
  404918:	f9405fe0 	ldr	x0, [sp, #184]
  40491c:	94004319 	bl	415580 <__strlen>
  404920:	aa0003f9 	mov	x25, x0
  404924:	8b1a0000 	add	x0, x0, x26
  404928:	8b130000 	add	x0, x0, x19
  40492c:	94003b3b 	bl	413618 <__libc_malloc>
  404930:	aa0003f3 	mov	x19, x0
  404934:	b4001cc0 	cbz	x0, 404ccc <_nl_make_l10nflist+0x47c>
  404938:	aa1503e2 	mov	x2, x21
  40493c:	aa1703e1 	mov	x1, x23
  404940:	97ffee38 	bl	400220 <.plt+0x10>
  404944:	b4000255 	cbz	x21, 40498c <_nl_make_l10nflist+0x13c>
  404948:	aa1303fa 	mov	x26, x19
  40494c:	aa1503fb 	mov	x27, x21
  404950:	aa1a03e0 	mov	x0, x26
  404954:	9400430b 	bl	415580 <__strlen>
  404958:	8b00035a 	add	x26, x26, x0
  40495c:	aa2003e0 	mvn	x0, x0
  404960:	52800758 	mov	w24, #0x3a                  	// #58
  404964:	ab00037b 	adds	x27, x27, x0
  404968:	54000120 	b.eq	40498c <_nl_make_l10nflist+0x13c>  // b.none
  40496c:	d503201f 	nop
  404970:	38001758 	strb	w24, [x26], #1
  404974:	aa1a03e0 	mov	x0, x26
  404978:	94004302 	bl	415580 <__strlen>
  40497c:	8b00035a 	add	x26, x26, x0
  404980:	aa2003e0 	mvn	x0, x0
  404984:	ab00037b 	adds	x27, x27, x0
  404988:	54ffff41 	b.ne	404970 <_nl_make_l10nflist+0x120>  // b.any
  40498c:	8b150262 	add	x2, x19, x21
  404990:	9e660101 	fmov	x1, d8
  404994:	528005e3 	mov	w3, #0x2f                  	// #47
  404998:	aa0203e0 	mov	x0, x2
  40499c:	381ff043 	sturb	w3, [x2, #-1]
  4049a0:	94004658 	bl	416300 <__stpcpy>
  4049a4:	35001796 	cbnz	w22, 404c94 <_nl_make_l10nflist+0x444>
  4049a8:	91000401 	add	x1, x0, #0x1
  4049ac:	3500167c 	cbnz	w28, 404c78 <_nl_make_l10nflist+0x428>
  4049b0:	b940abe2 	ldr	w2, [sp, #168]
  4049b4:	35001542 	cbnz	w2, 404c5c <_nl_make_l10nflist+0x40c>
  4049b8:	b940afe2 	ldr	w2, [sp, #172]
  4049bc:	35001422 	cbnz	w2, 404c40 <_nl_make_l10nflist+0x3f0>
  4049c0:	528005e2 	mov	w2, #0x2f                  	// #47
  4049c4:	39000002 	strb	w2, [x0]
  4049c8:	aa0103e0 	mov	x0, x1
  4049cc:	91000722 	add	x2, x25, #0x1
  4049d0:	f9405fe1 	ldr	x1, [sp, #184]
  4049d4:	97ffee13 	bl	400220 <.plt+0x10>
  4049d8:	f94053e0 	ldr	x0, [sp, #160]
  4049dc:	f9400019 	ldr	x25, [x0]
  4049e0:	b40018f9 	cbz	x25, 404cfc <_nl_make_l10nflist+0x4ac>
  4049e4:	aa1903f6 	mov	x22, x25
  4049e8:	d2800018 	mov	x24, #0x0                   	// #0
  4049ec:	d503201f 	nop
  4049f0:	f94002c2 	ldr	x2, [x22]
  4049f4:	aa1303e1 	mov	x1, x19
  4049f8:	aa0203e0 	mov	x0, x2
  4049fc:	b40000c2 	cbz	x2, 404a14 <_nl_make_l10nflist+0x1c4>
  404a00:	940041c0 	bl	415100 <strcmp>
  404a04:	7100001f 	cmp	w0, #0x0
  404a08:	540015c0 	b.eq	404cc0 <_nl_make_l10nflist+0x470>  // b.none
  404a0c:	5400008b 	b.lt	404a1c <_nl_make_l10nflist+0x1cc>  // b.tstop
  404a10:	aa1603f8 	mov	x24, x22
  404a14:	f9400ed6 	ldr	x22, [x22, #24]
  404a18:	b5fffed6 	cbnz	x22, 4049f0 <_nl_make_l10nflist+0x1a0>
  404a1c:	b940c3e0 	ldr	w0, [sp, #192]
  404a20:	340014c0 	cbz	w0, 404cb8 <_nl_make_l10nflist+0x468>
  404a24:	12855540 	mov	w0, #0xffffd555            	// #-10923
  404a28:	528aaab6 	mov	w22, #0x5555                	// #21845
  404a2c:	0a940400 	and	w0, w0, w20, asr #1
  404a30:	0a160296 	and	w22, w20, w22
  404a34:	0b160000 	add	w0, w0, w22
  404a38:	12819981 	mov	w1, #0xfffff333            	// #-3277
  404a3c:	52866676 	mov	w22, #0x3333                	// #13107
  404a40:	0a160016 	and	w22, w0, w22
  404a44:	0a800820 	and	w0, w1, w0, asr #2
  404a48:	5281e1e3 	mov	w3, #0xf0f                 	// #3855
  404a4c:	0b160016 	add	w22, w0, w22
  404a50:	52800022 	mov	w2, #0x1                   	// #1
  404a54:	aa1503fb 	mov	x27, x21
  404a58:	aa1703fc 	mov	x28, x23
  404a5c:	0b9612d6 	add	w22, w22, w22, asr #4
  404a60:	d280001a 	mov	x26, #0x0                   	// #0
  404a64:	0a0302d6 	and	w22, w22, w3
  404a68:	0b5622d6 	add	w22, w22, w22, lsr #8
  404a6c:	1ad62056 	lsl	w22, w2, w22
  404a70:	93407ed6 	sxtw	x22, w22
  404a74:	b4001315 	cbz	x21, 404cd4 <_nl_make_l10nflist+0x484>
  404a78:	aa1c03e0 	mov	x0, x28
  404a7c:	940042c1 	bl	415580 <__strlen>
  404a80:	91000402 	add	x2, x0, #0x1
  404a84:	aa2003e0 	mvn	x0, x0
  404a88:	9100075a 	add	x26, x26, #0x1
  404a8c:	8b02039c 	add	x28, x28, x2
  404a90:	ab00037b 	adds	x27, x27, x0
  404a94:	54ffff21 	b.ne	404a78 <_nl_make_l10nflist+0x228>  // b.any
  404a98:	9b167f56 	mul	x22, x26, x22
  404a9c:	910016c0 	add	x0, x22, #0x5
  404aa0:	d37df000 	lsl	x0, x0, #3
  404aa4:	94003add 	bl	413618 <__libc_malloc>
  404aa8:	aa0003f6 	mov	x22, x0
  404aac:	b40012c0 	cbz	x0, 404d04 <_nl_make_l10nflist+0x4b4>
  404ab0:	aa1503fa 	mov	x26, x21
  404ab4:	aa1703fc 	mov	x28, x23
  404ab8:	f9000013 	str	x19, [x0]
  404abc:	d503201f 	nop
  404ac0:	aa1c03e0 	mov	x0, x28
  404ac4:	940042af 	bl	415580 <__strlen>
  404ac8:	91000402 	add	x2, x0, #0x1
  404acc:	aa2003e0 	mvn	x0, x0
  404ad0:	9100077b 	add	x27, x27, #0x1
  404ad4:	8b02039c 	add	x28, x28, x2
  404ad8:	ab00035a 	adds	x26, x26, x0
  404adc:	54ffff21 	b.ne	404ac0 <_nl_make_l10nflist+0x270>  // b.any
  404ae0:	f100077f 	cmp	x27, #0x1
  404ae4:	52800020 	mov	w0, #0x1                   	// #1
  404ae8:	540005e0 	b.eq	404ba4 <_nl_make_l10nflist+0x354>  // b.none
  404aec:	b9000ac0 	str	w0, [x22, #8]
  404af0:	f9000adf 	str	xzr, [x22, #16]
  404af4:	b4000db8 	cbz	x24, 404ca8 <_nl_make_l10nflist+0x458>
  404af8:	f9400f00 	ldr	x0, [x24, #24]
  404afc:	f9000ec0 	str	x0, [x22, #24]
  404b00:	f9000f16 	str	x22, [x24, #24]
  404b04:	b4000f95 	cbz	x21, 404cf4 <_nl_make_l10nflist+0x4a4>
  404b08:	aa1503f8 	mov	x24, x21
  404b0c:	aa1703f3 	mov	x19, x23
  404b10:	d2800019 	mov	x25, #0x0                   	// #0
  404b14:	d503201f 	nop
  404b18:	aa1303e0 	mov	x0, x19
  404b1c:	94004299 	bl	415580 <__strlen>
  404b20:	91000401 	add	x1, x0, #0x1
  404b24:	aa2003e0 	mvn	x0, x0
  404b28:	91000739 	add	x25, x25, #0x1
  404b2c:	8b010273 	add	x19, x19, x1
  404b30:	ab000318 	adds	x24, x24, x0
  404b34:	54ffff21 	b.ne	404b18 <_nl_make_l10nflist+0x2c8>  // b.any
  404b38:	f100073f 	cmp	x25, #0x1
  404b3c:	1a9f17f3 	cset	w19, eq  // eq = none
  404b40:	4b130293 	sub	w19, w20, w19
  404b44:	2a3403f4 	mvn	w20, w20
  404b48:	d2800019 	mov	x25, #0x0                   	// #0
  404b4c:	37f80133 	tbnz	w19, #31, 404b70 <_nl_make_l10nflist+0x320>
  404b50:	8b1502fb 	add	x27, x23, x21
  404b54:	910062dc 	add	x28, x22, #0x18
  404b58:	5280003a 	mov	w26, #0x1                   	// #1
  404b5c:	6a14027f 	tst	w19, w20
  404b60:	54000300 	b.eq	404bc0 <_nl_make_l10nflist+0x370>  // b.none
  404b64:	51000673 	sub	w19, w19, #0x1
  404b68:	3100067f 	cmn	w19, #0x1
  404b6c:	54ffff81 	b.ne	404b5c <_nl_make_l10nflist+0x30c>  // b.any
  404b70:	91001339 	add	x25, x25, #0x4
  404b74:	f8397adf 	str	xzr, [x22, x25, lsl #3]
  404b78:	aa1603e0 	mov	x0, x22
  404b7c:	a9427bfd 	ldp	x29, x30, [sp, #32]
  404b80:	a94353f3 	ldp	x19, x20, [sp, #48]
  404b84:	a9445bf5 	ldp	x21, x22, [sp, #64]
  404b88:	a94563f7 	ldp	x23, x24, [sp, #80]
  404b8c:	a9466bf9 	ldp	x25, x26, [sp, #96]
  404b90:	a94773fb 	ldp	x27, x28, [sp, #112]
  404b94:	6d4827e8 	ldp	d8, d9, [sp, #128]
  404b98:	6d492fea 	ldp	d10, d11, [sp, #144]
  404b9c:	9102c3ff 	add	sp, sp, #0xb0
  404ba0:	d65f03c0 	ret
  404ba4:	12000680 	and	w0, w20, #0x3
  404ba8:	f9000adf 	str	xzr, [x22, #16]
  404bac:	71000c1f 	cmp	w0, #0x3
  404bb0:	1a9f17e0 	cset	w0, eq  // eq = none
  404bb4:	b9000ac0 	str	w0, [x22, #8]
  404bb8:	b5fffa18 	cbnz	x24, 404af8 <_nl_make_l10nflist+0x2a8>
  404bbc:	1400003b 	b	404ca8 <_nl_make_l10nflist+0x458>
  404bc0:	d2800018 	mov	x24, #0x0                   	// #0
  404bc4:	b4000398 	cbz	x24, 404c34 <_nl_make_l10nflist+0x3e4>
  404bc8:	aa1803e0 	mov	x0, x24
  404bcc:	eb1b031f 	cmp	x24, x27
  404bd0:	54fffca2 	b.cs	404b64 <_nl_make_l10nflist+0x314>  // b.hs, b.nlast
  404bd4:	9400426b 	bl	415580 <__strlen>
  404bd8:	91000400 	add	x0, x0, #0x1
  404bdc:	ab000318 	adds	x24, x24, x0
  404be0:	fa5b1302 	ccmp	x24, x27, #0x2, ne  // ne = any
  404be4:	54fffc02 	b.cs	404b64 <_nl_make_l10nflist+0x314>  // b.hs, b.nlast
  404be8:	aa1803e0 	mov	x0, x24
  404bec:	94004265 	bl	415580 <__strlen>
  404bf0:	91000402 	add	x2, x0, #0x1
  404bf4:	9e660167 	fmov	x7, d11
  404bf8:	9e660146 	fmov	x6, d10
  404bfc:	9e660125 	fmov	x5, d9
  404c00:	9e660104 	fmov	x4, d8
  404c04:	91000739 	add	x25, x25, #0x1
  404c08:	f94053e0 	ldr	x0, [sp, #160]
  404c0c:	b90013fa 	str	w26, [sp, #16]
  404c10:	f9405be1 	ldr	x1, [sp, #176]
  404c14:	f90003e1 	str	x1, [sp]
  404c18:	f9405fe1 	ldr	x1, [sp, #184]
  404c1c:	f90007e1 	str	x1, [sp, #8]
  404c20:	2a1303e3 	mov	w3, w19
  404c24:	aa1803e1 	mov	x1, x24
  404c28:	97ffff0a 	bl	404850 <_nl_make_l10nflist>
  404c2c:	f8397b80 	str	x0, [x28, x25, lsl #3]
  404c30:	b5fffcd8 	cbnz	x24, 404bc8 <_nl_make_l10nflist+0x378>
  404c34:	aa1703f8 	mov	x24, x23
  404c38:	b5fffd95 	cbnz	x21, 404be8 <_nl_make_l10nflist+0x398>
  404c3c:	17ffffca 	b	404b64 <_nl_make_l10nflist+0x314>
  404c40:	52800802 	mov	w2, #0x40                  	// #64
  404c44:	39000002 	strb	w2, [x0]
  404c48:	aa0103e0 	mov	x0, x1
  404c4c:	f9405be1 	ldr	x1, [sp, #176]
  404c50:	940045ac 	bl	416300 <__stpcpy>
  404c54:	91000401 	add	x1, x0, #0x1
  404c58:	17ffff5a 	b	4049c0 <_nl_make_l10nflist+0x170>
  404c5c:	528005c2 	mov	w2, #0x2e                  	// #46
  404c60:	39000002 	strb	w2, [x0]
  404c64:	aa0103e0 	mov	x0, x1
  404c68:	9e660161 	fmov	x1, d11
  404c6c:	940045a5 	bl	416300 <__stpcpy>
  404c70:	91000401 	add	x1, x0, #0x1
  404c74:	17ffff51 	b	4049b8 <_nl_make_l10nflist+0x168>
  404c78:	528005c2 	mov	w2, #0x2e                  	// #46
  404c7c:	39000002 	strb	w2, [x0]
  404c80:	aa0103e0 	mov	x0, x1
  404c84:	9e660141 	fmov	x1, d10
  404c88:	9400459e 	bl	416300 <__stpcpy>
  404c8c:	91000401 	add	x1, x0, #0x1
  404c90:	17ffff48 	b	4049b0 <_nl_make_l10nflist+0x160>
  404c94:	9e660121 	fmov	x1, d9
  404c98:	52800be2 	mov	w2, #0x5f                  	// #95
  404c9c:	38001402 	strb	w2, [x0], #1
  404ca0:	94004598 	bl	416300 <__stpcpy>
  404ca4:	17ffff41 	b	4049a8 <_nl_make_l10nflist+0x158>
  404ca8:	f94053e0 	ldr	x0, [sp, #160]
  404cac:	f9000ed9 	str	x25, [x22, #24]
  404cb0:	f9000016 	str	x22, [x0]
  404cb4:	17ffff94 	b	404b04 <_nl_make_l10nflist+0x2b4>
  404cb8:	d2800016 	mov	x22, #0x0                   	// #0
  404cbc:	d503201f 	nop
  404cc0:	aa1303e0 	mov	x0, x19
  404cc4:	94003be9 	bl	413c68 <__free>
  404cc8:	17ffffac 	b	404b78 <_nl_make_l10nflist+0x328>
  404ccc:	d2800016 	mov	x22, #0x0                   	// #0
  404cd0:	17ffffaa 	b	404b78 <_nl_make_l10nflist+0x328>
  404cd4:	d2800500 	mov	x0, #0x28                  	// #40
  404cd8:	94003a50 	bl	413618 <__libc_malloc>
  404cdc:	52800022 	mov	w2, #0x1                   	// #1
  404ce0:	aa0003f6 	mov	x22, x0
  404ce4:	b4000100 	cbz	x0, 404d04 <_nl_make_l10nflist+0x4b4>
  404ce8:	2a0203e0 	mov	w0, w2
  404cec:	f90002d3 	str	x19, [x22]
  404cf0:	17ffff7f 	b	404aec <_nl_make_l10nflist+0x29c>
  404cf4:	2a1403f3 	mov	w19, w20
  404cf8:	17ffff93 	b	404b44 <_nl_make_l10nflist+0x2f4>
  404cfc:	d2800018 	mov	x24, #0x0                   	// #0
  404d00:	17ffff47 	b	404a1c <_nl_make_l10nflist+0x1cc>
  404d04:	aa1303e0 	mov	x0, x19
  404d08:	d2800016 	mov	x22, #0x0                   	// #0
  404d0c:	94003bd7 	bl	413c68 <__free>
  404d10:	17ffff9a 	b	404b78 <_nl_make_l10nflist+0x328>

0000000000404d14 <.annobin__nl_make_l10nflist.end>:
  404d14:	d503201f 	nop

0000000000404d18 <_nl_normalize_codeset>:
  404d18:	a9bd7bfd 	stp	x29, x30, [sp, #-48]!
  404d1c:	910003fd 	mov	x29, sp
  404d20:	b40008c1 	cbz	x1, 404e38 <_nl_normalize_codeset+0x120>
  404d24:	a9025bf5 	stp	x21, x22, [sp, #32]
  404d28:	900002f6 	adrp	x22, 460000 <translit_from_idx+0xae0>
  404d2c:	912be2d6 	add	x22, x22, #0xaf8
  404d30:	a90153f3 	stp	x19, x20, [sp, #16]
  404d34:	aa0103f4 	mov	x20, x1
  404d38:	aa0003f5 	mov	x21, x0
  404d3c:	f94036d3 	ldr	x19, [x22, #104]
  404d40:	aa0003e3 	mov	x3, x0
  404d44:	8b000026 	add	x6, x1, x0
  404d48:	52800025 	mov	w5, #0x1                   	// #1
  404d4c:	d2800000 	mov	x0, #0x0                   	// #0
  404d50:	39400062 	ldrb	w2, [x3]
  404d54:	91000463 	add	x3, x3, #0x1
  404d58:	5100c044 	sub	w4, w2, #0x30
  404d5c:	d37f1c42 	ubfiz	x2, x2, #1, #8
  404d60:	78626a62 	ldrh	w2, [x19, x2]
  404d64:	36180082 	tbz	w2, #3, 404d74 <_nl_normalize_codeset+0x5c>
  404d68:	7100289f 	cmp	w4, #0xa
  404d6c:	91000400 	add	x0, x0, #0x1
  404d70:	1a9f30a5 	csel	w5, w5, wzr, cc  // cc = lo, ul, last
  404d74:	eb0300df 	cmp	x6, x3
  404d78:	54fffec1 	b.ne	404d50 <_nl_normalize_codeset+0x38>  // b.any
  404d7c:	35000425 	cbnz	w5, 404e00 <_nl_normalize_codeset+0xe8>
  404d80:	91000400 	add	x0, x0, #0x1
  404d84:	94003a25 	bl	413618 <__libc_malloc>
  404d88:	aa0003e4 	mov	x4, x0
  404d8c:	b4000400 	cbz	x0, 404e0c <_nl_normalize_codeset+0xf4>
  404d90:	d2800002 	mov	x2, #0x0                   	// #0
  404d94:	f9403ac8 	ldr	x8, [x22, #112]
  404d98:	14000007 	b	404db4 <_nl_normalize_codeset+0x9c>
  404d9c:	b8657901 	ldr	w1, [x8, x5, lsl #2]
  404da0:	380014c1 	strb	w1, [x6], #1
  404da4:	aa0603e4 	mov	x4, x6
  404da8:	91000442 	add	x2, x2, #0x1
  404dac:	eb02029f 	cmp	x20, x2
  404db0:	540001e9 	b.ls	404dec <_nl_normalize_codeset+0xd4>  // b.plast
  404db4:	38626aa5 	ldrb	w5, [x21, x2]
  404db8:	aa0403e6 	mov	x6, x4
  404dbc:	aa0503e3 	mov	x3, x5
  404dc0:	5100c0a1 	sub	w1, w5, #0x30
  404dc4:	78657a67 	ldrh	w7, [x19, x5, lsl #1]
  404dc8:	3757fea7 	tbnz	w7, #10, 404d9c <_nl_normalize_codeset+0x84>
  404dcc:	aa0403e5 	mov	x5, x4
  404dd0:	7100243f 	cmp	w1, #0x9
  404dd4:	54fffea8 	b.hi	404da8 <_nl_normalize_codeset+0x90>  // b.pmore
  404dd8:	380014a3 	strb	w3, [x5], #1
  404ddc:	91000442 	add	x2, x2, #0x1
  404de0:	eb02029f 	cmp	x20, x2
  404de4:	aa0503e4 	mov	x4, x5
  404de8:	54fffe68 	b.hi	404db4 <_nl_normalize_codeset+0x9c>  // b.pmore
  404dec:	a94153f3 	ldp	x19, x20, [sp, #16]
  404df0:	a9425bf5 	ldp	x21, x22, [sp, #32]
  404df4:	3900009f 	strb	wzr, [x4]
  404df8:	a8c37bfd 	ldp	x29, x30, [sp], #48
  404dfc:	d65f03c0 	ret
  404e00:	91001000 	add	x0, x0, #0x4
  404e04:	94003a05 	bl	413618 <__libc_malloc>
  404e08:	b50000c0 	cbnz	x0, 404e20 <_nl_normalize_codeset+0x108>
  404e0c:	a94153f3 	ldp	x19, x20, [sp, #16]
  404e10:	a9425bf5 	ldp	x21, x22, [sp, #32]
  404e14:	d2800000 	mov	x0, #0x0                   	// #0
  404e18:	a8c37bfd 	ldp	x29, x30, [sp], #48
  404e1c:	d65f03c0 	ret
  404e20:	aa0003e4 	mov	x4, x0
  404e24:	528e6d21 	mov	w1, #0x7369                	// #29545
  404e28:	72a00de1 	movk	w1, #0x6f, lsl #16
  404e2c:	f94036d3 	ldr	x19, [x22, #104]
  404e30:	b8003481 	str	w1, [x4], #3
  404e34:	17ffffd7 	b	404d90 <_nl_normalize_codeset+0x78>
  404e38:	d2800080 	mov	x0, #0x4                   	// #4
  404e3c:	940039f7 	bl	413618 <__libc_malloc>
  404e40:	b4fffea0 	cbz	x0, 404e14 <_nl_normalize_codeset+0xfc>
  404e44:	aa0003e4 	mov	x4, x0
  404e48:	528e6d21 	mov	w1, #0x7369                	// #29545
  404e4c:	72a00de1 	movk	w1, #0x6f, lsl #16
  404e50:	b8003481 	str	w1, [x4], #3
  404e54:	17ffffe8 	b	404df4 <_nl_normalize_codeset+0xdc>

0000000000404e58 <_nl_explode_name>:
  404e58:	a9ba7bfd 	stp	x29, x30, [sp, #-96]!
  404e5c:	910003fd 	mov	x29, sp
  404e60:	a90153f3 	stp	x19, x20, [sp, #16]
  404e64:	f900005f 	str	xzr, [x2]
  404e68:	f900007f 	str	xzr, [x3]
  404e6c:	f900009f 	str	xzr, [x4]
  404e70:	f90000bf 	str	xzr, [x5]
  404e74:	f9000020 	str	x0, [x1]
  404e78:	39400001 	ldrb	w1, [x0]
  404e7c:	71017c3f 	cmp	w1, #0x5f
  404e80:	12197826 	and	w6, w1, #0xffffffbf
  404e84:	7a4018c4 	ccmp	w6, #0x0, #0x4, ne  // ne = any
  404e88:	540005a0 	b.eq	404f3c <_nl_explode_name+0xe4>  // b.none
  404e8c:	7100b83f 	cmp	w1, #0x2e
  404e90:	54000560 	b.eq	404f3c <_nl_explode_name+0xe4>  // b.none
  404e94:	aa0003e6 	mov	x6, x0
  404e98:	52800807 	mov	w7, #0x40                  	// #64
  404e9c:	d503201f 	nop
  404ea0:	394004c1 	ldrb	w1, [x6, #1]
  404ea4:	910004d3 	add	x19, x6, #0x1
  404ea8:	71017c3f 	cmp	w1, #0x5f
  404eac:	7a401824 	ccmp	w1, #0x0, #0x4, ne  // ne = any
  404eb0:	540004a0 	b.eq	404f44 <_nl_explode_name+0xec>  // b.none
  404eb4:	7100b83f 	cmp	w1, #0x2e
  404eb8:	aa1303e6 	mov	x6, x19
  404ebc:	7a471024 	ccmp	w1, w7, #0x4, ne  // ne = any
  404ec0:	54ffff01 	b.ne	404ea0 <_nl_explode_name+0x48>  // b.any
  404ec4:	eb13001f 	cmp	x0, x19
  404ec8:	540003a0 	b.eq	404f3c <_nl_explode_name+0xe4>  // b.none
  404ecc:	52800014 	mov	w20, #0x0                   	// #0
  404ed0:	7100b83f 	cmp	w1, #0x2e
  404ed4:	54000640 	b.eq	404f9c <_nl_explode_name+0x144>  // b.none
  404ed8:	7101003f 	cmp	w1, #0x40
  404edc:	54000101 	b.ne	404efc <_nl_explode_name+0xa4>  // b.any
  404ee0:	aa1303e0 	mov	x0, x19
  404ee4:	321d0281 	orr	w1, w20, #0x8
  404ee8:	3800141f 	strb	wzr, [x0], #1
  404eec:	f9000040 	str	x0, [x2]
  404ef0:	39400660 	ldrb	w0, [x19, #1]
  404ef4:	7100001f 	cmp	w0, #0x0
  404ef8:	1a941034 	csel	w20, w1, w20, ne  // ne = any
  404efc:	f9400060 	ldr	x0, [x3]
  404f00:	b40000a0 	cbz	x0, 404f14 <_nl_explode_name+0xbc>
  404f04:	39400001 	ldrb	w1, [x0]
  404f08:	121d7a80 	and	w0, w20, #0xfffffffb
  404f0c:	7100003f 	cmp	w1, #0x0
  404f10:	1a940014 	csel	w20, w0, w20, eq  // eq = none
  404f14:	f9400080 	ldr	x0, [x4]
  404f18:	b40000a0 	cbz	x0, 404f2c <_nl_explode_name+0xd4>
  404f1c:	39400001 	ldrb	w1, [x0]
  404f20:	121e7a80 	and	w0, w20, #0xfffffffd
  404f24:	7100003f 	cmp	w1, #0x0
  404f28:	1a940014 	csel	w20, w0, w20, eq  // eq = none
  404f2c:	2a1403e0 	mov	w0, w20
  404f30:	a94153f3 	ldp	x19, x20, [sp, #16]
  404f34:	a8c67bfd 	ldp	x29, x30, [sp], #96
  404f38:	d65f03c0 	ret
  404f3c:	52800014 	mov	w20, #0x0                   	// #0
  404f40:	17ffffef 	b	404efc <_nl_explode_name+0xa4>
  404f44:	eb13001f 	cmp	x0, x19
  404f48:	54ffffa0 	b.eq	404f3c <_nl_explode_name+0xe4>  // b.none
  404f4c:	71017c3f 	cmp	w1, #0x5f
  404f50:	54fffbe1 	b.ne	404ecc <_nl_explode_name+0x74>  // b.any
  404f54:	3900027f 	strb	wzr, [x19]
  404f58:	910008c6 	add	x6, x6, #0x2
  404f5c:	f9000066 	str	x6, [x3]
  404f60:	39400661 	ldrb	w1, [x19, #1]
  404f64:	12197820 	and	w0, w1, #0xffffffbf
  404f68:	7100b83f 	cmp	w1, #0x2e
  404f6c:	12001c00 	and	w0, w0, #0xff
  404f70:	7a401804 	ccmp	w0, #0x0, #0x4, ne  // ne = any
  404f74:	540000c0 	b.eq	404f8c <_nl_explode_name+0x134>  // b.none
  404f78:	38401cc1 	ldrb	w1, [x6, #1]!
  404f7c:	7100b83f 	cmp	w1, #0x2e
  404f80:	12197820 	and	w0, w1, #0xffffffbf
  404f84:	7a401804 	ccmp	w0, #0x0, #0x4, ne  // ne = any
  404f88:	54ffff81 	b.ne	404f78 <_nl_explode_name+0x120>  // b.any
  404f8c:	aa0603f3 	mov	x19, x6
  404f90:	52800094 	mov	w20, #0x4                   	// #4
  404f94:	7100b83f 	cmp	w1, #0x2e
  404f98:	54fffa01 	b.ne	404ed8 <_nl_explode_name+0x80>  // b.any
  404f9c:	aa1303e0 	mov	x0, x19
  404fa0:	a9025bf5 	stp	x21, x22, [sp, #32]
  404fa4:	528017e6 	mov	w6, #0xbf                  	// #191
  404fa8:	321f0296 	orr	w22, w20, #0x2
  404fac:	3800141f 	strb	wzr, [x0], #1
  404fb0:	f9000080 	str	x0, [x4]
  404fb4:	39400661 	ldrb	w1, [x19, #1]
  404fb8:	6a06003f 	tst	w1, w6
  404fbc:	54000600 	b.eq	40507c <_nl_explode_name+0x224>  // b.none
  404fc0:	aa0003f5 	mov	x21, x0
  404fc4:	14000002 	b	404fcc <_nl_explode_name+0x174>
  404fc8:	aa1303f5 	mov	x21, x19
  404fcc:	394006a7 	ldrb	w7, [x21, #1]
  404fd0:	528017e6 	mov	w6, #0xbf                  	// #191
  404fd4:	910006b3 	add	x19, x21, #0x1
  404fd8:	6a0600ff 	tst	w7, w6
  404fdc:	54ffff61 	b.ne	404fc8 <_nl_explode_name+0x170>  // b.any
  404fe0:	f90023e5 	str	x5, [sp, #64]
  404fe4:	eb13001f 	cmp	x0, x19
  404fe8:	540002e0 	b.eq	405044 <_nl_explode_name+0x1ec>  // b.none
  404fec:	cb000261 	sub	x1, x19, x0
  404ff0:	f9001bf7 	str	x23, [sp, #48]
  404ff4:	a9048fe2 	stp	x2, x3, [sp, #72]
  404ff8:	f9002fe4 	str	x4, [sp, #88]
  404ffc:	97ffff47 	bl	404d18 <_nl_normalize_codeset>
  405000:	f94023e5 	ldr	x5, [sp, #64]
  405004:	aa0003f7 	mov	x23, x0
  405008:	f90000a0 	str	x0, [x5]
  40500c:	b4000400 	cbz	x0, 40508c <_nl_explode_name+0x234>
  405010:	f9402fe4 	ldr	x4, [sp, #88]
  405014:	aa0003e1 	mov	x1, x0
  405018:	f90023e4 	str	x4, [sp, #64]
  40501c:	f9400080 	ldr	x0, [x4]
  405020:	94004038 	bl	415100 <strcmp>
  405024:	a9440be4 	ldp	x4, x2, [sp, #64]
  405028:	f9402be3 	ldr	x3, [sp, #80]
  40502c:	34000120 	cbz	w0, 405050 <_nl_explode_name+0x1f8>
  405030:	394006a1 	ldrb	w1, [x21, #1]
  405034:	32000694 	orr	w20, w20, #0x3
  405038:	a9425bf5 	ldp	x21, x22, [sp, #32]
  40503c:	f9401bf7 	ldr	x23, [sp, #48]
  405040:	17ffffa6 	b	404ed8 <_nl_explode_name+0x80>
  405044:	2a1603f4 	mov	w20, w22
  405048:	a9425bf5 	ldp	x21, x22, [sp, #32]
  40504c:	17ffffa3 	b	404ed8 <_nl_explode_name+0x80>
  405050:	aa1703e0 	mov	x0, x23
  405054:	a9040fe2 	stp	x2, x3, [sp, #64]
  405058:	2a1603f4 	mov	w20, w22
  40505c:	f9002be4 	str	x4, [sp, #80]
  405060:	94003b02 	bl	413c68 <__free>
  405064:	394006a1 	ldrb	w1, [x21, #1]
  405068:	a9425bf5 	ldp	x21, x22, [sp, #32]
  40506c:	f9401bf7 	ldr	x23, [sp, #48]
  405070:	a9440fe2 	ldp	x2, x3, [sp, #64]
  405074:	f9402be4 	ldr	x4, [sp, #80]
  405078:	17ffff98 	b	404ed8 <_nl_explode_name+0x80>
  40507c:	2a1603f4 	mov	w20, w22
  405080:	aa0003f3 	mov	x19, x0
  405084:	a9425bf5 	ldp	x21, x22, [sp, #32]
  405088:	17ffff94 	b	404ed8 <_nl_explode_name+0x80>
  40508c:	12800014 	mov	w20, #0xffffffff            	// #-1
  405090:	a9425bf5 	ldp	x21, x22, [sp, #32]
  405094:	f9401bf7 	ldr	x23, [sp, #48]
  405098:	17ffffa5 	b	404f2c <_nl_explode_name+0xd4>

000000000040509c <.annobin__nl_explode_name.end>:
  40509c:	d503201f 	nop

00000000004050a0 <__gettext_free_exp>:
  4050a0:	b4000340 	cbz	x0, 405108 <__gettext_free_exp+0x68>
  4050a4:	a9be7bfd 	stp	x29, x30, [sp, #-32]!
  4050a8:	910003fd 	mov	x29, sp
  4050ac:	f9000bf3 	str	x19, [sp, #16]
  4050b0:	aa0003f3 	mov	x19, x0
  4050b4:	b9400000 	ldr	w0, [x0]
  4050b8:	7100081f 	cmp	w0, #0x2
  4050bc:	54000160 	b.eq	4050e8 <__gettext_free_exp+0x48>  // b.none
  4050c0:	71000c1f 	cmp	w0, #0x3
  4050c4:	540000e0 	b.eq	4050e0 <__gettext_free_exp+0x40>  // b.none
  4050c8:	7100041f 	cmp	w0, #0x1
  4050cc:	54000120 	b.eq	4050f0 <__gettext_free_exp+0x50>  // b.none
  4050d0:	aa1303e0 	mov	x0, x19
  4050d4:	f9400bf3 	ldr	x19, [sp, #16]
  4050d8:	a8c27bfd 	ldp	x29, x30, [sp], #32
  4050dc:	14003ae3 	b	413c68 <__free>
  4050e0:	f9400e60 	ldr	x0, [x19, #24]
  4050e4:	97ffffef 	bl	4050a0 <__gettext_free_exp>
  4050e8:	f9400a60 	ldr	x0, [x19, #16]
  4050ec:	97ffffed 	bl	4050a0 <__gettext_free_exp>
  4050f0:	f9400660 	ldr	x0, [x19, #8]
  4050f4:	97ffffeb 	bl	4050a0 <__gettext_free_exp>
  4050f8:	aa1303e0 	mov	x0, x19
  4050fc:	f9400bf3 	ldr	x19, [sp, #16]
  405100:	a8c27bfd 	ldp	x29, x30, [sp], #32
  405104:	14003ad9 	b	413c68 <__free>
  405108:	d65f03c0 	ret

000000000040510c <.annobin___gettext_free_exp.end>:
  40510c:	d503201f 	nop

0000000000405110 <new_exp>:
  405110:	a9bc7bfd 	stp	x29, x30, [sp, #-64]!
  405114:	910003fd 	mov	x29, sp
  405118:	a90363f7 	stp	x23, x24, [sp, #48]
  40511c:	2a0003f7 	mov	w23, w0
  405120:	2a0103f8 	mov	w24, w1
  405124:	34000620 	cbz	w0, 4051e8 <new_exp+0xd8>
  405128:	51000400 	sub	w0, w0, #0x1
  40512c:	a90153f3 	stp	x19, x20, [sp, #16]
  405130:	51000af3 	sub	w19, w23, #0x2
  405134:	a9025bf5 	stp	x21, x22, [sp, #32]
  405138:	91002043 	add	x3, x2, #0x8
  40513c:	93407e76 	sxtw	x22, w19
  405140:	f860d854 	ldr	x20, [x2, w0, sxtw #3]
  405144:	aa0203f5 	mov	x21, x2
  405148:	aa1603e0 	mov	x0, x22
  40514c:	b5000094 	cbnz	x20, 40515c <new_exp+0x4c>
  405150:	14000018 	b	4051b0 <new_exp+0xa0>
  405154:	f8607862 	ldr	x2, [x3, x0, lsl #3]
  405158:	b40002c2 	cbz	x2, 4051b0 <new_exp+0xa0>
  40515c:	3100041f 	cmn	w0, #0x1
  405160:	d1000400 	sub	x0, x0, #0x1
  405164:	54ffff81 	b.ne	405154 <new_exp+0x44>  // b.any
  405168:	d2800400 	mov	x0, #0x20                  	// #32
  40516c:	9400392b 	bl	413618 <__libc_malloc>
  405170:	b4000200 	cbz	x0, 4051b0 <new_exp+0xa0>
  405174:	91004001 	add	x1, x0, #0x10
  405178:	29006017 	stp	w23, w24, [x0]
  40517c:	310006df 	cmn	w22, #0x1
  405180:	f8367834 	str	x20, [x1, x22, lsl #3]
  405184:	540000c0 	b.eq	40519c <new_exp+0x8c>  // b.none
  405188:	f8767ab4 	ldr	x20, [x21, x22, lsl #3]
  40518c:	d10006d6 	sub	x22, x22, #0x1
  405190:	310006df 	cmn	w22, #0x1
  405194:	f8367834 	str	x20, [x1, x22, lsl #3]
  405198:	54ffff81 	b.ne	405188 <new_exp+0x78>  // b.any
  40519c:	a94153f3 	ldp	x19, x20, [sp, #16]
  4051a0:	a9425bf5 	ldp	x21, x22, [sp, #32]
  4051a4:	a94363f7 	ldp	x23, x24, [sp, #48]
  4051a8:	a8c47bfd 	ldp	x29, x30, [sp], #64
  4051ac:	d65f03c0 	ret
  4051b0:	93407e73 	sxtw	x19, w19
  4051b4:	14000003 	b	4051c0 <new_exp+0xb0>
  4051b8:	f8737ab4 	ldr	x20, [x21, x19, lsl #3]
  4051bc:	d1000673 	sub	x19, x19, #0x1
  4051c0:	aa1403e0 	mov	x0, x20
  4051c4:	97ffffb7 	bl	4050a0 <__gettext_free_exp>
  4051c8:	3100067f 	cmn	w19, #0x1
  4051cc:	54ffff61 	b.ne	4051b8 <new_exp+0xa8>  // b.any
  4051d0:	a94153f3 	ldp	x19, x20, [sp, #16]
  4051d4:	a9425bf5 	ldp	x21, x22, [sp, #32]
  4051d8:	d2800000 	mov	x0, #0x0                   	// #0
  4051dc:	a94363f7 	ldp	x23, x24, [sp, #48]
  4051e0:	a8c47bfd 	ldp	x29, x30, [sp], #64
  4051e4:	d65f03c0 	ret
  4051e8:	d2800400 	mov	x0, #0x20                  	// #32
  4051ec:	9400390b 	bl	413618 <__libc_malloc>
  4051f0:	b4ffff40 	cbz	x0, 4051d8 <new_exp+0xc8>
  4051f4:	2900601f 	stp	wzr, w24, [x0]
  4051f8:	17fffff9 	b	4051dc <new_exp+0xcc>

00000000004051fc <.annobin___gettextparse.start>:
  4051fc:	d503201f 	nop

0000000000405200 <__gettextparse>:
  405200:	d12243ff 	sub	sp, sp, #0x890
  405204:	f0000244 	adrp	x4, 450000 <buffer_free+0x40>
  405208:	a9007bfd 	stp	x29, x30, [sp]
  40520c:	910003fd 	mov	x29, sp
  405210:	a90153f3 	stp	x19, x20, [sp, #16]
  405214:	9102e3f3 	add	x19, sp, #0xb8
  405218:	910923f4 	add	x20, sp, #0x248
  40521c:	a90363f7 	stp	x23, x24, [sp, #48]
  405220:	91358097 	add	x23, x4, #0xd60
  405224:	a9046bf9 	stp	x25, x26, [sp, #64]
  405228:	90000419 	adrp	x25, 485000 <__FRAME_END__+0xfc98>
  40522c:	91234321 	add	x1, x25, #0x8d0
  405230:	aa1303f9 	mov	x25, x19
  405234:	a9025bf5 	stp	x21, x22, [sp, #32]
  405238:	910082f6 	add	x22, x23, #0x20
  40523c:	a90807e0 	stp	x0, x1, [sp, #128]
  405240:	f9400020 	ldr	x0, [x1]
  405244:	f90447e0 	str	x0, [sp, #2184]
  405248:	d2800000 	mov	x0, #0x0                   	// #0
  40524c:	910162e0 	add	x0, x23, #0x58
  405250:	12800035 	mov	w21, #0xfffffffe            	// #-2
  405254:	5280001a 	mov	w26, #0x0                   	// #0
  405258:	a90573fb 	stp	x27, x28, [sp, #80]
  40525c:	d280191b 	mov	x27, #0xc8                  	// #200
  405260:	fd0033e8 	str	d8, [sp, #96]
  405264:	9e670288 	fmov	d8, x20
  405268:	f9003be0 	str	x0, [sp, #112]
  40526c:	b9007fff 	str	wzr, [sp, #124]
  405270:	790173ff 	strh	wzr, [sp, #184]
  405274:	38facae2 	ldrsb	w2, [x23, w26, sxtw]
  405278:	93407f41 	sxtw	x1, w26
  40527c:	3100285f 	cmn	w2, #0xa
  405280:	54000340 	b.eq	4052e8 <__gettextparse+0xe8>  // b.none
  405284:	31000abf 	cmn	w21, #0x2
  405288:	54001c20 	b.eq	40560c <__gettextparse+0x40c>  // b.none
  40528c:	710002bf 	cmp	w21, #0x0
  405290:	54001a6d 	b.le	4055dc <__gettextparse+0x3dc>
  405294:	910382e0 	add	x0, x23, #0xe0
  405298:	3875c808 	ldrb	w8, [x0, w21, sxtw]
  40529c:	0b080042 	add	w2, w2, w8
  4052a0:	7100d85f 	cmp	w2, #0x36
  4052a4:	54000228 	b.hi	4052e8 <__gettextparse+0xe8>  // b.pmore
  4052a8:	38e2cac0 	ldrsb	w0, [x22, w2, sxtw]
  4052ac:	6b08001f 	cmp	w0, w8
  4052b0:	540001c1 	b.ne	4052e8 <__gettextparse+0xe8>  // b.any
  4052b4:	f9403be0 	ldr	x0, [sp, #112]
  4052b8:	3862c81a 	ldrb	w26, [x0, w2, sxtw]
  4052bc:	340019ba 	cbz	w26, 4055f0 <__gettextparse+0x3f0>
  4052c0:	b9407fe1 	ldr	w1, [sp, #124]
  4052c4:	12800035 	mov	w21, #0xfffffffe            	// #-2
  4052c8:	91002294 	add	x20, x20, #0x8
  4052cc:	7100003f 	cmp	w1, #0x0
  4052d0:	1a9f07e0 	cset	w0, ne  // ne = any
  4052d4:	4b000020 	sub	w0, w1, w0
  4052d8:	b9007fe0 	str	w0, [sp, #124]
  4052dc:	f9404fe0 	ldr	x0, [sp, #152]
  4052e0:	f9000280 	str	x0, [x20]
  4052e4:	14000056 	b	40543c <__gettextparse+0x23c>
  4052e8:	910242e0 	add	x0, x23, #0x90
  4052ec:	38616802 	ldrb	w2, [x0, x1]
  4052f0:	35000662 	cbnz	w2, 4053bc <__gettextparse+0x1bc>
  4052f4:	b9407fe0 	ldr	w0, [sp, #124]
  4052f8:	71000c1f 	cmp	w0, #0x3
  4052fc:	540001e1 	b.ne	405338 <__gettextparse+0x138>  // b.any
  405300:	710002bf 	cmp	w21, #0x0
  405304:	5400172c 	b.gt	4055e8 <__gettextparse+0x3e8>
  405308:	54000181 	b.ne	405338 <__gettextparse+0x138>  // b.any
  40530c:	aa1903f3 	mov	x19, x25
  405310:	52800034 	mov	w20, #0x1                   	// #1
  405314:	14000015 	b	405368 <__gettextparse+0x168>
  405318:	f9403be1 	ldr	x1, [sp, #112]
  40531c:	3860c83a 	ldrb	w26, [x1, w0, sxtw]
  405320:	35001e3a 	cbnz	w26, 4056e4 <__gettextparse+0x4e4>
  405324:	d503201f 	nop
  405328:	eb19027f 	cmp	x19, x25
  40532c:	540001c0 	b.eq	405364 <__gettextparse+0x164>  // b.none
  405330:	789fee61 	ldrsh	x1, [x19, #-2]!
  405334:	d1002294 	sub	x20, x20, #0x8
  405338:	38e16ae0 	ldrsb	w0, [x23, x1]
  40533c:	3100281f 	cmn	w0, #0xa
  405340:	54ffff40 	b.eq	405328 <__gettextparse+0x128>  // b.none
  405344:	11000400 	add	w0, w0, #0x1
  405348:	7100d81f 	cmp	w0, #0x36
  40534c:	54fffee8 	b.hi	405328 <__gettextparse+0x128>  // b.pmore
  405350:	38e0cac1 	ldrsb	w1, [x22, w0, sxtw]
  405354:	7100043f 	cmp	w1, #0x1
  405358:	54fffe00 	b.eq	405318 <__gettextparse+0x118>  // b.none
  40535c:	eb19027f 	cmp	x19, x25
  405360:	54fffe81 	b.ne	405330 <__gettextparse+0x130>  // b.any
  405364:	52800034 	mov	w20, #0x1                   	// #1
  405368:	9102e3e0 	add	x0, sp, #0xb8
  40536c:	eb00027f 	cmp	x19, x0
  405370:	54000060 	b.eq	40537c <__gettextparse+0x17c>  // b.none
  405374:	aa1303e0 	mov	x0, x19
  405378:	94003a3c 	bl	413c68 <__free>
  40537c:	f94047e1 	ldr	x1, [sp, #136]
  405380:	2a1403e0 	mov	w0, w20
  405384:	f94447e2 	ldr	x2, [sp, #2184]
  405388:	f9400023 	ldr	x3, [x1]
  40538c:	eb030042 	subs	x2, x2, x3
  405390:	d2800003 	mov	x3, #0x0                   	// #0
  405394:	54002d41 	b.ne	40593c <__gettextparse+0x73c>  // b.any
  405398:	a9407bfd 	ldp	x29, x30, [sp]
  40539c:	a94153f3 	ldp	x19, x20, [sp, #16]
  4053a0:	a9425bf5 	ldp	x21, x22, [sp, #32]
  4053a4:	a94363f7 	ldp	x23, x24, [sp, #48]
  4053a8:	a9446bf9 	ldp	x25, x26, [sp, #64]
  4053ac:	a94573fb 	ldp	x27, x28, [sp, #80]
  4053b0:	fd4033e8 	ldr	d8, [sp, #96]
  4053b4:	912243ff 	add	sp, sp, #0x890
  4053b8:	d65f03c0 	ret
  4053bc:	9102c2e0 	add	x0, x23, #0xb0
  4053c0:	52800021 	mov	w1, #0x1                   	// #1
  4053c4:	71001c5f 	cmp	w2, #0x7
  4053c8:	3862c803 	ldrb	w3, [x0, w2, sxtw]
  4053cc:	4b030020 	sub	w0, w1, w3
  4053d0:	f860da80 	ldr	x0, [x20, w0, sxtw #3]
  4053d4:	54000aa0 	b.eq	405528 <__gettextparse+0x328>  // b.none
  4053d8:	54000c09 	b.ls	405558 <__gettextparse+0x358>  // b.plast
  4053dc:	7100285f 	cmp	w2, #0xa
  4053e0:	540019a0 	b.eq	405714 <__gettextparse+0x514>  // b.none
  4053e4:	540009a9 	b.ls	405518 <__gettextparse+0x318>  // b.plast
  4053e8:	7100305f 	cmp	w2, #0xc
  4053ec:	54001aa0 	b.eq	405740 <__gettextparse+0x540>  // b.none
  4053f0:	54001503 	b.cc	405690 <__gettextparse+0x490>  // b.lo, b.ul, b.last
  4053f4:	7100345f 	cmp	w2, #0xd
  4053f8:	54000be1 	b.ne	405574 <__gettextparse+0x374>  // b.any
  4053fc:	f85f8280 	ldur	x0, [x20, #-8]
  405400:	d1001a73 	sub	x19, x19, #0x6
  405404:	d1006298 	sub	x24, x20, #0x18
  405408:	1280001a 	mov	w26, #0xffffffff            	// #-1
  40540c:	52800042 	mov	w2, #0x2                   	// #2
  405410:	79c00267 	ldrsh	w7, [x19]
  405414:	91002314 	add	x20, x24, #0x8
  405418:	f9000700 	str	x0, [x24, #8]
  40541c:	0b1a00e1 	add	w1, w7, w26
  405420:	7100d83f 	cmp	w1, #0x36
  405424:	54000088 	b.hi	405434 <__gettextparse+0x234>  // b.pmore
  405428:	38e1cac0 	ldrsb	w0, [x22, w1, sxtw]
  40542c:	6b07001f 	cmp	w0, w7
  405430:	54000e80 	b.eq	405600 <__gettextparse+0x400>  // b.none
  405434:	910362e0 	add	x0, x23, #0xd8
  405438:	38e2c81a 	ldrsb	w26, [x0, w2, sxtw]
  40543c:	d37ffb61 	lsl	x1, x27, #1
  405440:	7900067a 	strh	w26, [x19, #2]
  405444:	d1000820 	sub	x0, x1, #0x2
  405448:	91000a73 	add	x19, x19, #0x2
  40544c:	8b000320 	add	x0, x25, x0
  405450:	eb00027f 	cmp	x19, x0
  405454:	54000583 	b.cc	405504 <__gettextparse+0x304>  // b.lo, b.ul, b.last
  405458:	cb190274 	sub	x20, x19, x25
  40545c:	d284e1e0 	mov	x0, #0x270f                	// #9999
  405460:	eb00037f 	cmp	x27, x0
  405464:	9341fe94 	asr	x20, x20, #1
  405468:	91000694 	add	x20, x20, #0x1
  40546c:	54001808 	b.hi	40576c <__gettextparse+0x56c>  // b.pmore
  405470:	d284e206 	mov	x6, #0x2710                	// #10000
  405474:	eb06003f 	cmp	x1, x6
  405478:	9a86903b 	csel	x27, x1, x6, ls  // ls = plast
  40547c:	8b1b0b60 	add	x0, x27, x27, lsl #2
  405480:	d37ff800 	lsl	x0, x0, #1
  405484:	91001c00 	add	x0, x0, #0x7
  405488:	94003864 	bl	413618 <__libc_malloc>
  40548c:	aa0003fc 	mov	x28, x0
  405490:	b40016e0 	cbz	x0, 40576c <__gettextparse+0x56c>
  405494:	d37ffa93 	lsl	x19, x20, #1
  405498:	aa1903e1 	mov	x1, x25
  40549c:	aa1303e2 	mov	x2, x19
  4054a0:	8b1b0418 	add	x24, x0, x27, lsl #1
  4054a4:	97ffeb5f 	bl	400220 <.plt+0x10>
  4054a8:	9e660101 	fmov	x1, d8
  4054ac:	d37df294 	lsl	x20, x20, #3
  4054b0:	aa1803e0 	mov	x0, x24
  4054b4:	aa1403e2 	mov	x2, x20
  4054b8:	97ffeb5a 	bl	400220 <.plt+0x10>
  4054bc:	9102e3e0 	add	x0, sp, #0xb8
  4054c0:	d37ffb61 	lsl	x1, x27, #1
  4054c4:	eb00033f 	cmp	x25, x0
  4054c8:	540000a0 	b.eq	4054dc <__gettextparse+0x2dc>  // b.none
  4054cc:	aa1903e0 	mov	x0, x25
  4054d0:	f9004be1 	str	x1, [sp, #144]
  4054d4:	940039e5 	bl	413c68 <__free>
  4054d8:	f9404be1 	ldr	x1, [sp, #144]
  4054dc:	d1000a73 	sub	x19, x19, #0x2
  4054e0:	d1000821 	sub	x1, x1, #0x2
  4054e4:	8b130393 	add	x19, x28, x19
  4054e8:	8b010381 	add	x1, x28, x1
  4054ec:	d1002294 	sub	x20, x20, #0x8
  4054f0:	eb01027f 	cmp	x19, x1
  4054f4:	8b140314 	add	x20, x24, x20
  4054f8:	54001fa2 	b.cs	4058ec <__gettextparse+0x6ec>  // b.hs, b.nlast
  4054fc:	aa1c03f9 	mov	x25, x28
  405500:	9e670308 	fmov	d8, x24
  405504:	7100275f 	cmp	w26, #0x9
  405508:	54ffeb61 	b.ne	405274 <__gettextparse+0x74>  // b.any
  40550c:	aa1903f3 	mov	x19, x25
  405510:	52800014 	mov	w20, #0x0                   	// #0
  405514:	17ffff95 	b	405368 <__gettextparse+0x168>
  405518:	7100205f 	cmp	w2, #0x8
  40551c:	54000060 	b.eq	405528 <__gettextparse+0x328>  // b.none
  405520:	7100245f 	cmp	w2, #0x9
  405524:	54000281 	b.ne	405574 <__gettextparse+0x374>  // b.any
  405528:	b85f8281 	ldur	w1, [x20, #-8]
  40552c:	d1006298 	sub	x24, x20, #0x18
  405530:	f85f0283 	ldur	x3, [x20, #-16]
  405534:	910283e2 	add	x2, sp, #0xa0
  405538:	f9400287 	ldr	x7, [x20]
  40553c:	52800040 	mov	w0, #0x2                   	// #2
  405540:	a90a1fe3 	stp	x3, x7, [sp, #160]
  405544:	97fffef3 	bl	405110 <new_exp>
  405548:	1280001a 	mov	w26, #0xffffffff            	// #-1
  40554c:	d1001a73 	sub	x19, x19, #0x6
  405550:	52800042 	mov	w2, #0x2                   	// #2
  405554:	17ffffaf 	b	405410 <__gettextparse+0x210>
  405558:	7100105f 	cmp	w2, #0x4
  40555c:	54000d00 	b.eq	4056fc <__gettextparse+0x4fc>  // b.none
  405560:	540001a9 	b.ls	405594 <__gettextparse+0x394>  // b.plast
  405564:	7100145f 	cmp	w2, #0x5
  405568:	54000a60 	b.eq	4056b4 <__gettextparse+0x4b4>  // b.none
  40556c:	7100185f 	cmp	w2, #0x6
  405570:	54fffdc0 	b.eq	405528 <__gettextparse+0x328>  // b.none
  405574:	910302e7 	add	x7, x23, #0xc0
  405578:	910342e1 	add	x1, x23, #0xd0
  40557c:	cb030e98 	sub	x24, x20, x3, lsl #3
  405580:	cb030673 	sub	x19, x19, x3, lsl #1
  405584:	3862c8e2 	ldrb	w2, [x7, w2, sxtw]
  405588:	51004042 	sub	w2, w2, #0x10
  40558c:	38e2c83a 	ldrsb	w26, [x1, w2, sxtw]
  405590:	17ffffa0 	b	405410 <__gettextparse+0x210>
  405594:	7100085f 	cmp	w2, #0x2
  405598:	540006a0 	b.eq	40566c <__gettextparse+0x46c>  // b.none
  40559c:	71000c5f 	cmp	w2, #0x3
  4055a0:	54fffea1 	b.ne	405574 <__gettextparse+0x374>  // b.any
  4055a4:	f85f0283 	ldur	x3, [x20, #-16]
  4055a8:	2a0203e0 	mov	w0, w2
  4055ac:	f9400287 	ldr	x7, [x20]
  4055b0:	910283e2 	add	x2, sp, #0xa0
  4055b4:	f85e0281 	ldur	x1, [x20, #-32]
  4055b8:	a90a0fe1 	stp	x1, x3, [sp, #160]
  4055bc:	52800201 	mov	w1, #0x10                  	// #16
  4055c0:	f9005be7 	str	x7, [sp, #176]
  4055c4:	97fffed3 	bl	405110 <new_exp>
  4055c8:	d100a298 	sub	x24, x20, #0x28
  4055cc:	1280001a 	mov	w26, #0xffffffff            	// #-1
  4055d0:	d1002a73 	sub	x19, x19, #0xa
  4055d4:	52800042 	mov	w2, #0x2                   	// #2
  4055d8:	17ffff8e 	b	405410 <__gettextparse+0x210>
  4055dc:	52800008 	mov	w8, #0x0                   	// #0
  4055e0:	52800015 	mov	w21, #0x0                   	// #0
  4055e4:	17ffff2f 	b	4052a0 <__gettextparse+0xa0>
  4055e8:	12800035 	mov	w21, #0xfffffffe            	// #-2
  4055ec:	17ffff53 	b	405338 <__gettextparse+0x138>
  4055f0:	aa1403f8 	mov	x24, x20
  4055f4:	128001e2 	mov	w2, #0xfffffff0            	// #-16
  4055f8:	f9400680 	ldr	x0, [x20, #8]
  4055fc:	17ffff85 	b	405410 <__gettextparse+0x210>
  405600:	f9403be0 	ldr	x0, [sp, #112]
  405604:	3861c81a 	ldrb	w26, [x0, w1, sxtw]
  405608:	17ffff8d 	b	40543c <__gettextparse+0x23c>
  40560c:	f94043e0 	ldr	x0, [sp, #128]
  405610:	f9400003 	ldr	x3, [x0]
  405614:	39400060 	ldrb	w0, [x3]
  405618:	35000080 	cbnz	w0, 405628 <__gettextparse+0x428>
  40561c:	1400000f 	b	405658 <__gettextparse+0x458>
  405620:	38401c60 	ldrb	w0, [x3, #1]!
  405624:	340001a0 	cbz	w0, 405658 <__gettextparse+0x458>
  405628:	7100801f 	cmp	w0, #0x20
  40562c:	7a491804 	ccmp	w0, #0x9, #0x4, ne  // ne = any
  405630:	54ffff80 	b.eq	405620 <__gettextparse+0x420>  // b.none
  405634:	7101f01f 	cmp	w0, #0x7c
  405638:	91000467 	add	x7, x3, #0x1
  40563c:	2a0003f5 	mov	w21, w0
  405640:	54000469 	b.ls	4056cc <__gettextparse+0x4cc>  // b.plast
  405644:	f94043e0 	ldr	x0, [sp, #128]
  405648:	52800028 	mov	w8, #0x1                   	// #1
  40564c:	52802015 	mov	w21, #0x100                 	// #256
  405650:	f9000007 	str	x7, [x0]
  405654:	17ffff12 	b	40529c <__gettextparse+0x9c>
  405658:	f94043e0 	ldr	x0, [sp, #128]
  40565c:	52800008 	mov	w8, #0x0                   	// #0
  405660:	52800015 	mov	w21, #0x0                   	// #0
  405664:	f9000003 	str	x3, [x0]
  405668:	17ffff0e 	b	4052a0 <__gettextparse+0xa0>
  40566c:	f9400287 	ldr	x7, [x20]
  405670:	b4001607 	cbz	x7, 405930 <__gettextparse+0x730>
  405674:	2a0103e2 	mov	w2, w1
  405678:	d1002298 	sub	x24, x20, #0x8
  40567c:	f94043e1 	ldr	x1, [sp, #128]
  405680:	d1000a73 	sub	x19, x19, #0x2
  405684:	1280013a 	mov	w26, #0xfffffff6            	// #-10
  405688:	f9000427 	str	x7, [x1, #8]
  40568c:	17ffff61 	b	405410 <__gettextparse+0x210>
  405690:	d2800002 	mov	x2, #0x0                   	// #0
  405694:	52800001 	mov	w1, #0x0                   	// #0
  405698:	52800000 	mov	w0, #0x0                   	// #0
  40569c:	97fffe9d 	bl	405110 <new_exp>
  4056a0:	d1002298 	sub	x24, x20, #0x8
  4056a4:	1280001a 	mov	w26, #0xffffffff            	// #-1
  4056a8:	d1000a73 	sub	x19, x19, #0x2
  4056ac:	52800042 	mov	w2, #0x2                   	// #2
  4056b0:	17ffff58 	b	405410 <__gettextparse+0x210>
  4056b4:	d1006298 	sub	x24, x20, #0x18
  4056b8:	910283e2 	add	x2, sp, #0xa0
  4056bc:	528001c1 	mov	w1, #0xe                   	// #14
  4056c0:	f85f0283 	ldur	x3, [x20, #-16]
  4056c4:	f9400287 	ldr	x7, [x20]
  4056c8:	17ffff9d 	b	40553c <__gettextparse+0x33c>
  4056cc:	f0000248 	adrp	x8, 450000 <buffer_free+0x40>
  4056d0:	91338108 	add	x8, x8, #0xce0
  4056d4:	38604904 	ldrb	w4, [x8, w0, uxtw]
  4056d8:	10000065 	adr	x5, 4056e4 <__gettextparse+0x4e4>
  4056dc:	8b2488a4 	add	x4, x5, w4, sxtb #2
  4056e0:	d61f0080 	br	x4
  4056e4:	52800060 	mov	w0, #0x3                   	// #3
  4056e8:	b9007fe0 	str	w0, [sp, #124]
  4056ec:	f9404fe0 	ldr	x0, [sp, #152]
  4056f0:	91002294 	add	x20, x20, #0x8
  4056f4:	f9000280 	str	x0, [x20]
  4056f8:	17ffff51 	b	40543c <__gettextparse+0x23c>
  4056fc:	d1006298 	sub	x24, x20, #0x18
  405700:	910283e2 	add	x2, sp, #0xa0
  405704:	528001e1 	mov	w1, #0xf                   	// #15
  405708:	f85f0283 	ldur	x3, [x20, #-16]
  40570c:	f9400287 	ldr	x7, [x20]
  405710:	17ffff8b 	b	40553c <__gettextparse+0x33c>
  405714:	aa1403f8 	mov	x24, x20
  405718:	2a0103e0 	mov	w0, w1
  40571c:	910283e2 	add	x2, sp, #0xa0
  405720:	52800041 	mov	w1, #0x2                   	// #2
  405724:	1280001a 	mov	w26, #0xffffffff            	// #-1
  405728:	d1001273 	sub	x19, x19, #0x4
  40572c:	f85f0707 	ldr	x7, [x24], #-16
  405730:	f90053e7 	str	x7, [sp, #160]
  405734:	97fffe77 	bl	405110 <new_exp>
  405738:	52800042 	mov	w2, #0x2                   	// #2
  40573c:	17ffff35 	b	405410 <__gettextparse+0x210>
  405740:	d2800002 	mov	x2, #0x0                   	// #0
  405744:	52800000 	mov	w0, #0x0                   	// #0
  405748:	d1002298 	sub	x24, x20, #0x8
  40574c:	97fffe71 	bl	405110 <new_exp>
  405750:	d1000a73 	sub	x19, x19, #0x2
  405754:	b4000c60 	cbz	x0, 4058e0 <__gettextparse+0x6e0>
  405758:	f9400281 	ldr	x1, [x20]
  40575c:	1280001a 	mov	w26, #0xffffffff            	// #-1
  405760:	52800042 	mov	w2, #0x2                   	// #2
  405764:	f9000401 	str	x1, [x0, #8]
  405768:	17ffff2a 	b	405410 <__gettextparse+0x210>
  40576c:	aa1903f3 	mov	x19, x25
  405770:	52800054 	mov	w20, #0x2                   	// #2
  405774:	17fffefd 	b	405368 <__gettextparse+0x168>
  405778:	39400468 	ldrb	w8, [x3, #1]
  40577c:	6b00011f 	cmp	w8, w0
  405780:	54fff621 	b.ne	405644 <__gettextparse+0x444>  // b.any
  405784:	91000867 	add	x7, x3, #0x2
  405788:	f94043e0 	ldr	x0, [sp, #128]
  40578c:	f9000007 	str	x7, [x0]
  405790:	17fffebf 	b	40528c <__gettextparse+0x8c>
  405794:	d28000c0 	mov	x0, #0x6                   	// #6
  405798:	f9404fe3 	ldr	x3, [sp, #152]
  40579c:	52800108 	mov	w8, #0x8                   	// #8
  4057a0:	52802095 	mov	w21, #0x104                 	// #260
  4057a4:	b3407c03 	bfxil	x3, x0, #0, #32
  4057a8:	f9004fe3 	str	x3, [sp, #152]
  4057ac:	f94043e0 	ldr	x0, [sp, #128]
  4057b0:	f9000007 	str	x7, [x0]
  4057b4:	17fffeba 	b	40529c <__gettextparse+0x9c>
  4057b8:	d2800060 	mov	x0, #0x3                   	// #3
  4057bc:	f9404fe3 	ldr	x3, [sp, #152]
  4057c0:	52800128 	mov	w8, #0x9                   	// #9
  4057c4:	528020b5 	mov	w21, #0x105                 	// #261
  4057c8:	b3407c03 	bfxil	x3, x0, #0, #32
  4057cc:	f9004fe3 	str	x3, [sp, #152]
  4057d0:	f94043e0 	ldr	x0, [sp, #128]
  4057d4:	f9000007 	str	x7, [x0]
  4057d8:	17fffeb1 	b	40529c <__gettextparse+0x9c>
  4057dc:	39400460 	ldrb	w0, [x3, #1]
  4057e0:	7100f41f 	cmp	w0, #0x3d
  4057e4:	540009e0 	b.eq	405920 <__gettextparse+0x720>  // b.none
  4057e8:	d2800100 	mov	x0, #0x8                   	// #8
  4057ec:	f9404fe3 	ldr	x3, [sp, #152]
  4057f0:	528000e8 	mov	w8, #0x7                   	// #7
  4057f4:	52802075 	mov	w21, #0x103                 	// #259
  4057f8:	b3407c03 	bfxil	x3, x0, #0, #32
  4057fc:	f9004fe3 	str	x3, [sp, #152]
  405800:	f94043e0 	ldr	x0, [sp, #128]
  405804:	f9000007 	str	x7, [x0]
  405808:	17fffea5 	b	40529c <__gettextparse+0x9c>
  40580c:	39400468 	ldrb	w8, [x3, #1]
  405810:	5100c000 	sub	w0, w0, #0x30
  405814:	5100c103 	sub	w3, w8, #0x30
  405818:	93407c00 	sxtw	x0, w0
  40581c:	12001c68 	and	w8, w3, #0xff
  405820:	7100251f 	cmp	w8, #0x9
  405824:	54000128 	b.hi	405848 <__gettextparse+0x648>  // b.pmore
  405828:	38401ce8 	ldrb	w8, [x7, #1]!
  40582c:	93407c69 	sxtw	x9, w3
  405830:	8b000800 	add	x0, x0, x0, lsl #2
  405834:	5100c103 	sub	w3, w8, #0x30
  405838:	12001c68 	and	w8, w3, #0xff
  40583c:	8b000520 	add	x0, x9, x0, lsl #1
  405840:	7100251f 	cmp	w8, #0x9
  405844:	54ffff29 	b.ls	405828 <__gettextparse+0x628>  // b.plast
  405848:	f9004fe0 	str	x0, [sp, #152]
  40584c:	52800168 	mov	w8, #0xb                   	// #11
  405850:	f94043e0 	ldr	x0, [sp, #128]
  405854:	528020d5 	mov	w21, #0x106                 	// #262
  405858:	f9000007 	str	x7, [x0]
  40585c:	17fffe90 	b	40529c <__gettextparse+0x9c>
  405860:	d2800080 	mov	x0, #0x4                   	// #4
  405864:	17ffffd6 	b	4057bc <__gettextparse+0x5bc>
  405868:	d28000e0 	mov	x0, #0x7                   	// #7
  40586c:	17ffffcb 	b	405798 <__gettextparse+0x598>
  405870:	39400460 	ldrb	w0, [x3, #1]
  405874:	7100f41f 	cmp	w0, #0x3d
  405878:	54000400 	b.eq	4058f8 <__gettextparse+0x6f8>  // b.none
  40587c:	d2800120 	mov	x0, #0x9                   	// #9
  405880:	17ffffdb 	b	4057ec <__gettextparse+0x5ec>
  405884:	39400460 	ldrb	w0, [x3, #1]
  405888:	7100f41f 	cmp	w0, #0x3d
  40588c:	54ffedc1 	b.ne	405644 <__gettextparse+0x444>  // b.any
  405890:	d2800180 	mov	x0, #0xc                   	// #12
  405894:	f9404fe4 	ldr	x4, [sp, #152]
  405898:	91000863 	add	x3, x3, #0x2
  40589c:	528000c8 	mov	w8, #0x6                   	// #6
  4058a0:	52802055 	mov	w21, #0x102                 	// #258
  4058a4:	b3407c04 	bfxil	x4, x0, #0, #32
  4058a8:	f9004fe4 	str	x4, [sp, #152]
  4058ac:	f94043e0 	ldr	x0, [sp, #128]
  4058b0:	f9000003 	str	x3, [x0]
  4058b4:	17fffe7a 	b	40529c <__gettextparse+0x9c>
  4058b8:	d28000a0 	mov	x0, #0x5                   	// #5
  4058bc:	17ffffc0 	b	4057bc <__gettextparse+0x5bc>
  4058c0:	39400460 	ldrb	w0, [x3, #1]
  4058c4:	7100f41f 	cmp	w0, #0x3d
  4058c8:	54000300 	b.eq	405928 <__gettextparse+0x728>  // b.none
  4058cc:	f94043e0 	ldr	x0, [sp, #128]
  4058d0:	52800148 	mov	w8, #0xa                   	// #10
  4058d4:	52800435 	mov	w21, #0x21                  	// #33
  4058d8:	f9000007 	str	x7, [x0]
  4058dc:	17fffe70 	b	40529c <__gettextparse+0x9c>
  4058e0:	1280001a 	mov	w26, #0xffffffff            	// #-1
  4058e4:	52800042 	mov	w2, #0x2                   	// #2
  4058e8:	17fffeca 	b	405410 <__gettextparse+0x210>
  4058ec:	aa1c03f3 	mov	x19, x28
  4058f0:	52800034 	mov	w20, #0x1                   	// #1
  4058f4:	17fffea0 	b	405374 <__gettextparse+0x174>
  4058f8:	d2800160 	mov	x0, #0xb                   	// #11
  4058fc:	f9404fe4 	ldr	x4, [sp, #152]
  405900:	91000863 	add	x3, x3, #0x2
  405904:	528000e8 	mov	w8, #0x7                   	// #7
  405908:	52802075 	mov	w21, #0x103                 	// #259
  40590c:	b3407c04 	bfxil	x4, x0, #0, #32
  405910:	f9004fe4 	str	x4, [sp, #152]
  405914:	f94043e0 	ldr	x0, [sp, #128]
  405918:	f9000003 	str	x3, [x0]
  40591c:	17fffe60 	b	40529c <__gettextparse+0x9c>
  405920:	d2800140 	mov	x0, #0xa                   	// #10
  405924:	17fffff6 	b	4058fc <__gettextparse+0x6fc>
  405928:	d28001a0 	mov	x0, #0xd                   	// #13
  40592c:	17ffffda 	b	405894 <__gettextparse+0x694>
  405930:	aa1903f3 	mov	x19, x25
  405934:	2a0103f4 	mov	w20, w1
  405938:	17fffe8c 	b	405368 <__gettextparse+0x168>
  40593c:	940053d3 	bl	41a888 <__stack_chk_fail>

0000000000405940 <__gettext_extract_plural>:
  405940:	a9ba7bfd 	stp	x29, x30, [sp, #-96]!
  405944:	910003fd 	mov	x29, sp
  405948:	f9001bf7 	str	x23, [sp, #48]
  40594c:	90000417 	adrp	x23, 485000 <__FRAME_END__+0xfc98>
  405950:	912342f7 	add	x23, x23, #0x8d0
  405954:	a90153f3 	stp	x19, x20, [sp, #16]
  405958:	f94002e3 	ldr	x3, [x23]
  40595c:	f9002fe3 	str	x3, [sp, #88]
  405960:	d2800003 	mov	x3, #0x0                   	// #0
  405964:	a9025bf5 	stp	x21, x22, [sp, #32]
  405968:	aa0203f4 	mov	x20, x2
  40596c:	aa0103f5 	mov	x21, x1
  405970:	b40003a0 	cbz	x0, 4059e4 <__gettext_extract_plural+0xa4>
  405974:	aa0003f3 	mov	x19, x0
  405978:	f0000241 	adrp	x1, 450000 <buffer_free+0x40>
  40597c:	913ea021 	add	x1, x1, #0xfa8
  405980:	940040f4 	bl	415d50 <strstr>
  405984:	f0000241 	adrp	x1, 450000 <buffer_free+0x40>
  405988:	aa0003f6 	mov	x22, x0
  40598c:	913ec021 	add	x1, x1, #0xfb0
  405990:	aa1303e0 	mov	x0, x19
  405994:	940040ef 	bl	415d50 <strstr>
  405998:	f10002df 	cmp	x22, #0x0
  40599c:	fa401804 	ccmp	x0, #0x0, #0x4, ne  // ne = any
  4059a0:	54000220 	b.eq	4059e4 <__gettext_extract_plural+0xa4>  // b.none
  4059a4:	39402401 	ldrb	w1, [x0, #9]
  4059a8:	91002413 	add	x19, x0, #0x9
  4059ac:	340001c1 	cbz	w1, 4059e4 <__gettext_extract_plural+0xa4>
  4059b0:	90000402 	adrp	x2, 485000 <__FRAME_END__+0xfc98>
  4059b4:	f947d042 	ldr	x2, [x2, #4000]
  4059b8:	d53bd043 	mrs	x3, tpidr_el0
  4059bc:	d37f1c20 	ubfiz	x0, x1, #1, #8
  4059c0:	f8626862 	ldr	x2, [x3, x2]
  4059c4:	78606840 	ldrh	w0, [x2, x0]
  4059c8:	376800a0 	tbnz	w0, #13, 4059dc <__gettext_extract_plural+0x9c>
  4059cc:	14000015 	b	405a20 <__gettext_extract_plural+0xe0>
  4059d0:	d37f1c20 	ubfiz	x0, x1, #1, #8
  4059d4:	78606840 	ldrh	w0, [x2, x0]
  4059d8:	36680240 	tbz	w0, #13, 405a20 <__gettext_extract_plural+0xe0>
  4059dc:	38401e61 	ldrb	w1, [x19, #1]!
  4059e0:	35ffff81 	cbnz	w1, 4059d0 <__gettext_extract_plural+0x90>
  4059e4:	f0000240 	adrp	x0, 450000 <buffer_free+0x40>
  4059e8:	913d2000 	add	x0, x0, #0xf48
  4059ec:	f90002a0 	str	x0, [x21]
  4059f0:	d2800040 	mov	x0, #0x2                   	// #2
  4059f4:	f9000280 	str	x0, [x20]
  4059f8:	f9402fe0 	ldr	x0, [sp, #88]
  4059fc:	f94002e1 	ldr	x1, [x23]
  405a00:	eb010000 	subs	x0, x0, x1
  405a04:	d2800001 	mov	x1, #0x0                   	// #0
  405a08:	54000341 	b.ne	405a70 <__gettext_extract_plural+0x130>  // b.any
  405a0c:	a94153f3 	ldp	x19, x20, [sp, #16]
  405a10:	a9425bf5 	ldp	x21, x22, [sp, #32]
  405a14:	f9401bf7 	ldr	x23, [sp, #48]
  405a18:	a8c67bfd 	ldp	x29, x30, [sp], #96
  405a1c:	d65f03c0 	ret
  405a20:	5100c021 	sub	w1, w1, #0x30
  405a24:	12001c21 	and	w1, w1, #0xff
  405a28:	7100243f 	cmp	w1, #0x9
  405a2c:	54fffdc8 	b.hi	4059e4 <__gettext_extract_plural+0xa4>  // b.pmore
  405a30:	910103e1 	add	x1, sp, #0x40
  405a34:	52800142 	mov	w2, #0xa                   	// #10
  405a38:	aa1303e0 	mov	x0, x19
  405a3c:	940003ad 	bl	4068f0 <__strtoul>
  405a40:	f94023e1 	ldr	x1, [sp, #64]
  405a44:	eb13003f 	cmp	x1, x19
  405a48:	54fffce0 	b.eq	4059e4 <__gettext_extract_plural+0xa4>  // b.none
  405a4c:	f9000280 	str	x0, [x20]
  405a50:	91001ed6 	add	x22, x22, #0x7
  405a54:	910123e0 	add	x0, sp, #0x48
  405a58:	f90027f6 	str	x22, [sp, #72]
  405a5c:	97fffde9 	bl	405200 <__gettextparse>
  405a60:	35fffc20 	cbnz	w0, 4059e4 <__gettext_extract_plural+0xa4>
  405a64:	f9402be0 	ldr	x0, [sp, #80]
  405a68:	f90002a0 	str	x0, [x21]
  405a6c:	17ffffe3 	b	4059f8 <__gettext_extract_plural+0xb8>
  405a70:	94005386 	bl	41a888 <__stack_chk_fail>

0000000000405a74 <.annobin___gettext_extract_plural.end>:
  405a74:	d503201f 	nop

0000000000405a78 <__hash_string>:
  405a78:	aa0003e2 	mov	x2, x0
  405a7c:	d2800000 	mov	x0, #0x0                   	// #0
  405a80:	14000006 	b	405a98 <__hash_string+0x20>
  405a84:	8b001060 	add	x0, x3, x0, lsl #4
  405a88:	f2640c01 	ands	x1, x0, #0xf0000000
  405a8c:	9260ec03 	and	x3, x0, #0xffffffff0fffffff
